
build/firmware.elf:     file format elf32-littlearm


Disassembly of section .text:

81800000 <__image_start>:
81800000:	ea000016 	b	81800060 <_vector>
81800004:	4e4f4765 	cdpmi	7, 4, cr4, cr15, cr5, {3}
81800008:	3054422e 	subscc	r4, r4, lr, lsr #4
8180000c:	00000000 	andeq	r0, r0, r0
81800010:	000018a4 	andeq	r1, r0, r4, lsr #17
81800014:	024c5053 	subeq	r5, ip, #83	; 0x53
	...

81800060 <_vector>:
81800060:	ea00000d 	b	8180009c <reset>
81800064:	e59ff014 	ldr	pc, [pc, #20]	; 81800080 <_undefined_instruction>
81800068:	e59ff014 	ldr	pc, [pc, #20]	; 81800084 <_software_interrupt>
8180006c:	e59ff014 	ldr	pc, [pc, #20]	; 81800088 <_prefetch_abort>
81800070:	e59ff014 	ldr	pc, [pc, #20]	; 8180008c <_data_abort>
81800074:	e59ff014 	ldr	pc, [pc, #20]	; 81800090 <_not_used>
81800078:	e59ff014 	ldr	pc, [pc, #20]	; 81800094 <_irq>
8180007c:	e59ff014 	ldr	pc, [pc, #20]	; 81800098 <_fiq>

81800080 <_undefined_instruction>:
81800080:	81800240 	orrhi	r0, r0, r0, asr #4

81800084 <_software_interrupt>:
81800084:	81800260 	orrhi	r0, r0, r0, ror #4

81800088 <_prefetch_abort>:
81800088:	81800280 	orrhi	r0, r0, r0, lsl #5

8180008c <_data_abort>:
8180008c:	818002a0 	orrhi	r0, r0, r0, lsr #5

81800090 <_not_used>:
81800090:	818002c0 	orrhi	r0, r0, r0, asr #5

81800094 <_irq>:
81800094:	818002e0 	orrhi	r0, r0, r0, ror #5

81800098 <_fiq>:
81800098:	818003a0 	orrhi	r0, r0, r0, lsr #7

8180009c <reset>:
8180009c:	e3a00040 	mov	r0, #64	; 0x40
818000a0:	e580d000 	str	sp, [r0]
818000a4:	e580e004 	str	lr, [r0, #4]
818000a8:	e10fe000 	mrs	lr, CPSR
818000ac:	e580e008 	str	lr, [r0, #8]
818000b0:	ee11ef10 	mrc	15, 0, lr, cr1, cr0, {0}
818000b4:	e580e00c 	str	lr, [r0, #12]
818000b8:	ee11ef10 	mrc	15, 0, lr, cr1, cr0, {0}
818000bc:	e580e010 	str	lr, [r0, #16]
818000c0:	e3a00000 	mov	r0, #0
818000c4:	e5901008 	ldr	r1, [r0, #8]
818000c8:	e59f23bc 	ldr	r2, [pc, #956]	; 8180048c <_stack_srv_end+0x4>
818000cc:	e1510002 	cmp	r1, r2
818000d0:	1a000001 	bne	818000dc <reset+0x40>
818000d4:	e3a01001 	mov	r1, #1
818000d8:	e5801058 	str	r1, [r0, #88]	; 0x58
818000dc:	e1a00000 	nop			; (mov r0, r0)
818000e0:	e10f0000 	mrs	r0, CPSR
818000e4:	e3c0001f 	bic	r0, r0, #31
818000e8:	e38000d3 	orr	r0, r0, #211	; 0xd3
818000ec:	e129f000 	msr	CPSR_fc, r0
818000f0:	ee110f10 	mrc	15, 0, r0, cr1, cr0, {0}
818000f4:	e3c00a02 	bic	r0, r0, #8192	; 0x2000
818000f8:	ee010f10 	mcr	15, 0, r0, cr1, cr0, {0}
818000fc:	e24f00a4 	sub	r0, pc, #164	; 0xa4
81800100:	ee112f10 	mrc	15, 0, r2, cr1, cr0, {0}
81800104:	e2122a02 	ands	r2, r2, #8192	; 0x2000
81800108:	03a01000 	moveq	r1, #0
8180010c:	159f137c 	ldrne	r1, [pc, #892]	; 81800490 <_stack_srv_end+0x8>
81800110:	e8b005fc 	ldm	r0!, {r2, r3, r4, r5, r6, r7, r8, sl}
81800114:	e8a105fc 	stmia	r1!, {r2, r3, r4, r5, r6, r7, r8, sl}
81800118:	e8b005fc 	ldm	r0!, {r2, r3, r4, r5, r6, r7, r8, sl}
8180011c:	e8a105fc 	stmia	r1!, {r2, r3, r4, r5, r6, r7, r8, sl}
81800120:	eb000294 	bl	81800b78 <sys_clock_init>
81800124:	eb000373 	bl	81800ef8 <sys_dram_init>
81800128:	eb000111 	bl	81800574 <sys_uart_init>
8180012c:	e24f0f4d 	sub	r0, pc, #308	; 0x134
81800130:	e59f135c 	ldr	r1, [pc, #860]	; 81800494 <_stack_srv_end+0xc>
81800134:	e1500001 	cmp	r0, r1
81800138:	0a000000 	beq	81800140 <reset+0xa4>
8180013c:	eb0005c1 	bl	81801848 <sys_copyself>
81800140:	e1a00000 	nop			; (mov r0, r0)
81800144:	e10f0000 	mrs	r0, CPSR
81800148:	e3c0001f 	bic	r0, r0, #31
8180014c:	e380101b 	orr	r1, r0, #27
81800150:	e12ff001 	msr	CPSR_fsxc, r1
81800154:	e59fd31c 	ldr	sp, [pc, #796]	; 81800478 <_stack_und_end>
81800158:	e3c0001f 	bic	r0, r0, #31
8180015c:	e3801017 	orr	r1, r0, #23
81800160:	e12ff001 	msr	CPSR_fsxc, r1
81800164:	e59fd310 	ldr	sp, [pc, #784]	; 8180047c <_stack_abt_end>
81800168:	e3c0001f 	bic	r0, r0, #31
8180016c:	e3801012 	orr	r1, r0, #18
81800170:	e12ff001 	msr	CPSR_fsxc, r1
81800174:	e59fd304 	ldr	sp, [pc, #772]	; 81800480 <_stack_irq_end>
81800178:	e3c0001f 	bic	r0, r0, #31
8180017c:	e3801011 	orr	r1, r0, #17
81800180:	e12ff001 	msr	CPSR_fsxc, r1
81800184:	e59fd2f8 	ldr	sp, [pc, #760]	; 81800484 <_stack_fiq_end>
81800188:	e3c0001f 	bic	r0, r0, #31
8180018c:	e3801013 	orr	r1, r0, #19
81800190:	e12ff001 	msr	CPSR_fsxc, r1
81800194:	e59fd2ec 	ldr	sp, [pc, #748]	; 81800488 <_stack_srv_end>
81800198:	e59f02d0 	ldr	r0, [pc, #720]	; 81800470 <_bss_start>
8180019c:	e59f22d0 	ldr	r2, [pc, #720]	; 81800474 <_bss_end>
818001a0:	e0422000 	sub	r2, r2, r0
818001a4:	e3a01000 	mov	r1, #0
818001a8:	eb0000bc 	bl	818004a0 <memset>
818001ac:	e59f12e4 	ldr	r1, [pc, #740]	; 81800498 <_stack_srv_end+0x10>
818001b0:	e1a0f001 	mov	pc, r1

818001b4 <_main>:
818001b4:	eb0005ba 	bl	818018a4 <mmu_setup>
818001b8:	eb0005ba 	bl	818018a8 <mmu_enable>
818001bc:	eb000658 	bl	81801b24 <boot_main>
818001c0:	eafffffb 	b	818001b4 <_main>

818001c4 <return_to_fel>:
818001c4:	e3a00004 	mov	r0, #4
818001c8:	e3a01065 	mov	r1, #101	; 0x65
818001cc:	e5c01000 	strb	r1, [r0]
818001d0:	e3a01047 	mov	r1, #71	; 0x47
818001d4:	e5c01001 	strb	r1, [r0, #1]
818001d8:	e3a0104f 	mov	r1, #79	; 0x4f
818001dc:	e5c01002 	strb	r1, [r0, #2]
818001e0:	e3a0104e 	mov	r1, #78	; 0x4e
818001e4:	e5c01003 	strb	r1, [r0, #3]
818001e8:	e3a0102e 	mov	r1, #46	; 0x2e
818001ec:	e5c01004 	strb	r1, [r0, #4]
818001f0:	e3a01046 	mov	r1, #70	; 0x46
818001f4:	e5c01005 	strb	r1, [r0, #5]
818001f8:	e3a01045 	mov	r1, #69	; 0x45
818001fc:	e5c01006 	strb	r1, [r0, #6]
81800200:	e3a0104c 	mov	r1, #76	; 0x4c
81800204:	e5c01007 	strb	r1, [r0, #7]
81800208:	e3a00040 	mov	r0, #64	; 0x40
8180020c:	e590d000 	ldr	sp, [r0]
81800210:	e590e004 	ldr	lr, [r0, #4]
81800214:	e5901010 	ldr	r1, [r0, #16]
81800218:	ee011f10 	mcr	15, 0, r1, cr1, cr0, {0}
8180021c:	e590100c 	ldr	r1, [r0, #12]
81800220:	ee011f10 	mcr	15, 0, r1, cr1, cr0, {0}
81800224:	e5901008 	ldr	r1, [r0, #8]
81800228:	e129f001 	msr	CPSR_fc, r1
8180022c:	e12fff1e 	bx	lr
81800230:	e1a00000 	nop			; (mov r0, r0)
81800234:	e1a00000 	nop			; (mov r0, r0)
81800238:	e1a00000 	nop			; (mov r0, r0)
8180023c:	e1a00000 	nop			; (mov r0, r0)

81800240 <undefined_instruction>:
81800240:	eafffffe 	b	81800240 <undefined_instruction>
81800244:	e1a00000 	nop			; (mov r0, r0)
81800248:	e1a00000 	nop			; (mov r0, r0)
8180024c:	e1a00000 	nop			; (mov r0, r0)
81800250:	e1a00000 	nop			; (mov r0, r0)
81800254:	e1a00000 	nop			; (mov r0, r0)
81800258:	e1a00000 	nop			; (mov r0, r0)
8180025c:	e1a00000 	nop			; (mov r0, r0)

81800260 <software_interrupt>:
81800260:	eafffffe 	b	81800260 <software_interrupt>
81800264:	e1a00000 	nop			; (mov r0, r0)
81800268:	e1a00000 	nop			; (mov r0, r0)
8180026c:	e1a00000 	nop			; (mov r0, r0)
81800270:	e1a00000 	nop			; (mov r0, r0)
81800274:	e1a00000 	nop			; (mov r0, r0)
81800278:	e1a00000 	nop			; (mov r0, r0)
8180027c:	e1a00000 	nop			; (mov r0, r0)

81800280 <prefetch_abort>:
81800280:	eafffffe 	b	81800280 <prefetch_abort>
81800284:	e1a00000 	nop			; (mov r0, r0)
81800288:	e1a00000 	nop			; (mov r0, r0)
8180028c:	e1a00000 	nop			; (mov r0, r0)
81800290:	e1a00000 	nop			; (mov r0, r0)
81800294:	e1a00000 	nop			; (mov r0, r0)
81800298:	e1a00000 	nop			; (mov r0, r0)
8180029c:	e1a00000 	nop			; (mov r0, r0)

818002a0 <data_abort>:
818002a0:	eafffffe 	b	818002a0 <data_abort>
818002a4:	e1a00000 	nop			; (mov r0, r0)
818002a8:	e1a00000 	nop			; (mov r0, r0)
818002ac:	e1a00000 	nop			; (mov r0, r0)
818002b0:	e1a00000 	nop			; (mov r0, r0)
818002b4:	e1a00000 	nop			; (mov r0, r0)
818002b8:	e1a00000 	nop			; (mov r0, r0)
818002bc:	e1a00000 	nop			; (mov r0, r0)

818002c0 <not_used>:
818002c0:	eafffffe 	b	818002c0 <not_used>
818002c4:	e1a00000 	nop			; (mov r0, r0)
818002c8:	e1a00000 	nop			; (mov r0, r0)
818002cc:	e1a00000 	nop			; (mov r0, r0)
818002d0:	e1a00000 	nop			; (mov r0, r0)
818002d4:	e1a00000 	nop			; (mov r0, r0)
818002d8:	e1a00000 	nop			; (mov r0, r0)
818002dc:	e1a00000 	nop			; (mov r0, r0)

818002e0 <irq>:
818002e0:	e24ee004 	sub	lr, lr, #4
818002e4:	e50de004 	str	lr, [sp, #-4]
818002e8:	e14fe000 	mrs	lr, SPSR
818002ec:	e50de008 	str	lr, [sp, #-8]
818002f0:	e50d100c 	str	r1, [sp, #-12]
818002f4:	e50d0010 	str	r0, [sp, #-16]
818002f8:	e1a0000d 	mov	r0, sp
818002fc:	e10fe000 	mrs	lr, CPSR
81800300:	e3cee01f 	bic	lr, lr, #31
81800304:	e38ee013 	orr	lr, lr, #19
81800308:	e121f00e 	msr	CPSR_c, lr
8180030c:	e5101004 	ldr	r1, [r0, #-4]
81800310:	e52d1004 	push	{r1}		; (str r1, [sp, #-4]!)
81800314:	e5101008 	ldr	r1, [r0, #-8]
81800318:	e50d1040 	str	r1, [sp, #-64]	; 0xffffffc0
8180031c:	e510100c 	ldr	r1, [r0, #-12]
81800320:	e5100010 	ldr	r0, [r0, #-16]
81800324:	e94d7fff 	stmdb	sp, {r0, r1, r2, r3, r4, r5, r6, r7, r8, r9, sl, fp, ip, sp, lr}^
81800328:	e24dd040 	sub	sp, sp, #64	; 0x40
8180032c:	e59d4000 	ldr	r4, [sp]
81800330:	e204001f 	and	r0, r4, #31
81800334:	e3500010 	cmp	r0, #16
81800338:	0a000005 	beq	81800354 <irq+0x74>
8180033c:	e3500013 	cmp	r0, #19
81800340:	0a000000 	beq	81800348 <irq+0x68>
81800344:	eafffffe 	b	81800344 <irq+0x64>
81800348:	e28d1044 	add	r1, sp, #68	; 0x44
8180034c:	e58d1038 	str	r1, [sp, #56]	; 0x38
81800350:	e58de03c 	str	lr, [sp, #60]	; 0x3c
81800354:	e28d1044 	add	r1, sp, #68	; 0x44
81800358:	e52d1004 	push	{r1}		; (str r1, [sp, #-4]!)
8180035c:	e1a0000d 	mov	r0, sp
81800360:	eb0005ed 	bl	81801b1c <arm32_do_irq>
81800364:	e1a0c00d 	mov	ip, sp
81800368:	e49cd004 	ldr	sp, [ip], #4
8180036c:	e49c1004 	ldr	r1, [ip], #4
81800370:	e16ff001 	msr	SPSR_fsxc, r1
81800374:	e201001f 	and	r0, r1, #31
81800378:	e3500010 	cmp	r0, #16
8180037c:	0a000002 	beq	8180038c <irq+0xac>
81800380:	e3500013 	cmp	r0, #19
81800384:	0a000003 	beq	81800398 <irq+0xb8>
81800388:	eafffffe 	b	81800388 <irq+0xa8>
8180038c:	e59ce03c 	ldr	lr, [ip, #60]	; 0x3c
81800390:	e8dc7fff 	ldm	ip, {r0, r1, r2, r3, r4, r5, r6, r7, r8, r9, sl, fp, ip, sp, lr}^
81800394:	e1b0f00e 	movs	pc, lr
81800398:	e8dcffff 	ldm	ip, {r0, r1, r2, r3, r4, r5, r6, r7, r8, r9, sl, fp, ip, sp, lr, pc}^
8180039c:	e1a00000 	nop			; (mov r0, r0)

818003a0 <fiq>:
818003a0:	e24ee004 	sub	lr, lr, #4
818003a4:	e50de004 	str	lr, [sp, #-4]
818003a8:	e14fe000 	mrs	lr, SPSR
818003ac:	e50de008 	str	lr, [sp, #-8]
818003b0:	e50d100c 	str	r1, [sp, #-12]
818003b4:	e50d0010 	str	r0, [sp, #-16]
818003b8:	e1a0000d 	mov	r0, sp
818003bc:	e10fe000 	mrs	lr, CPSR
818003c0:	e3cee01f 	bic	lr, lr, #31
818003c4:	e38ee013 	orr	lr, lr, #19
818003c8:	e121f00e 	msr	CPSR_c, lr
818003cc:	e5101004 	ldr	r1, [r0, #-4]
818003d0:	e52d1004 	push	{r1}		; (str r1, [sp, #-4]!)
818003d4:	e5101008 	ldr	r1, [r0, #-8]
818003d8:	e50d1040 	str	r1, [sp, #-64]	; 0xffffffc0
818003dc:	e510100c 	ldr	r1, [r0, #-12]
818003e0:	e5100010 	ldr	r0, [r0, #-16]
818003e4:	e94d7fff 	stmdb	sp, {r0, r1, r2, r3, r4, r5, r6, r7, r8, r9, sl, fp, ip, sp, lr}^
818003e8:	e24dd040 	sub	sp, sp, #64	; 0x40
818003ec:	e59d4000 	ldr	r4, [sp]
818003f0:	e204001f 	and	r0, r4, #31
818003f4:	e3500010 	cmp	r0, #16
818003f8:	0a000005 	beq	81800414 <fiq+0x74>
818003fc:	e3500013 	cmp	r0, #19
81800400:	0a000000 	beq	81800408 <fiq+0x68>
81800404:	eafffffe 	b	81800404 <fiq+0x64>
81800408:	e28d1044 	add	r1, sp, #68	; 0x44
8180040c:	e58d1038 	str	r1, [sp, #56]	; 0x38
81800410:	e58de03c 	str	lr, [sp, #60]	; 0x3c
81800414:	e28d1044 	add	r1, sp, #68	; 0x44
81800418:	e52d1004 	push	{r1}		; (str r1, [sp, #-4]!)
8180041c:	e1a0000d 	mov	r0, sp
81800420:	eb0005be 	bl	81801b20 <arm32_do_fiq>
81800424:	e1a0c00d 	mov	ip, sp
81800428:	e49cd004 	ldr	sp, [ip], #4
8180042c:	e49c1004 	ldr	r1, [ip], #4
81800430:	e16ff001 	msr	SPSR_fsxc, r1
81800434:	e201001f 	and	r0, r1, #31
81800438:	e3500010 	cmp	r0, #16
8180043c:	0a000002 	beq	8180044c <fiq+0xac>
81800440:	e3500013 	cmp	r0, #19
81800444:	0a000003 	beq	81800458 <fiq+0xb8>
81800448:	eafffffe 	b	81800448 <fiq+0xa8>
8180044c:	e59ce03c 	ldr	lr, [ip, #60]	; 0x3c
81800450:	e8dc7fff 	ldm	ip, {r0, r1, r2, r3, r4, r5, r6, r7, r8, r9, sl, fp, ip, sp, lr}^
81800454:	e1b0f00e 	movs	pc, lr
81800458:	e8dcffff 	ldm	ip, {r0, r1, r2, r3, r4, r5, r6, r7, r8, r9, sl, fp, ip, sp, lr, pc}^
8180045c:	e1a00000 	nop			; (mov r0, r0)

81800460 <_image_start>:
81800460:	81800000 	orrhi	r0, r0, r0

81800464 <_image_end>:
81800464:	81801c08 	orrhi	r1, r0, r8, lsl #24

81800468 <_data_start>:
81800468:	81801c08 	orrhi	r1, r0, r8, lsl #24

8180046c <_data_end>:
8180046c:	81801c08 	orrhi	r1, r0, r8, lsl #24

81800470 <_bss_start>:
81800470:	81801c08 	orrhi	r1, r0, r8, lsl #24

81800474 <_bss_end>:
81800474:	81801c08 	orrhi	r1, r0, r8, lsl #24

81800478 <_stack_und_end>:
81800478:	81811c08 	orrhi	r1, r1, r8, lsl #24

8180047c <_stack_abt_end>:
8180047c:	81821c08 	orrhi	r1, r2, r8, lsl #24

81800480 <_stack_irq_end>:
81800480:	81831c08 	orrhi	r1, r3, r8, lsl #24

81800484 <_stack_fiq_end>:
81800484:	81841c08 	orrhi	r1, r4, r8, lsl #24

81800488 <_stack_srv_end>:
81800488:	81881c08 	orrhi	r1, r8, r8, lsl #24
8180048c:	4c45462e 	mcrrmi	6, 2, r4, r5, cr14
81800490:	ffff0000 			; <UNDEFINED> instruction: 0xffff0000
81800494:	81800000 	orrhi	r0, r0, r0
81800498:	818001b4 			; <UNDEFINED> instruction: 0x818001b4
8180049c:	00000000 	andeq	r0, r0, r0

818004a0 <memset>:
818004a0:	e92d0001 	stmfd	sp!, {r0}
818004a4:	e20110ff 	and	r1, r1, #255	; 0xff
818004a8:	e3520004 	cmp	r2, #4
818004ac:	ba00001c 	blt	81800524 <memset+0x84>
818004b0:	e2103003 	ands	r3, r0, #3
818004b4:	0a000007 	beq	818004d8 <memset+0x38>
818004b8:	e2633004 	rsb	r3, r3, #4
818004bc:	e0422003 	sub	r2, r2, r3
818004c0:	e3530002 	cmp	r3, #2
818004c4:	e4c01001 	strb	r1, [r0], #1
818004c8:	a4c01001 	strbge	r1, [r0], #1
818004cc:	c4c01001 	strbgt	r1, [r0], #1
818004d0:	e3520004 	cmp	r2, #4
818004d4:	ba000012 	blt	81800524 <memset+0x84>
818004d8:	e1813401 	orr	r3, r1, r1, lsl #8
818004dc:	e1833803 	orr	r3, r3, r3, lsl #16
818004e0:	e3520020 	cmp	r2, #32
818004e4:	ba00000a 	blt	81800514 <memset+0x74>
818004e8:	e92d0070 	push	{r4, r5, r6}
818004ec:	e1a04003 	mov	r4, r3
818004f0:	e1a05003 	mov	r5, r3
818004f4:	e1a06003 	mov	r6, r3
818004f8:	e8a00078 	stmia	r0!, {r3, r4, r5, r6}
818004fc:	e2422010 	sub	r2, r2, #16
81800500:	e3520010 	cmp	r2, #16
81800504:	cafffffb 	bgt	818004f8 <memset+0x58>
81800508:	e8bd0070 	pop	{r4, r5, r6}
8180050c:	e3520004 	cmp	r2, #4
81800510:	ba000003 	blt	81800524 <memset+0x84>
81800514:	e4803004 	str	r3, [r0], #4
81800518:	e2422004 	sub	r2, r2, #4
8180051c:	e3520004 	cmp	r2, #4
81800520:	aafffffb 	bge	81800514 <memset+0x74>
81800524:	e3520000 	cmp	r2, #0
81800528:	08bd0001 	ldmfdeq	sp!, {r0}
8180052c:	01a0f00e 	moveq	pc, lr
81800530:	e3520002 	cmp	r2, #2
81800534:	e4c01001 	strb	r1, [r0], #1
81800538:	a4c01001 	strbge	r1, [r0], #1
8180053c:	c4c01001 	strbgt	r1, [r0], #1
81800540:	e8bd0001 	ldmfd	sp!, {r0}
81800544:	e1a0f00e 	mov	pc, lr

81800548 <strlen>:
81800548:	e5d03000 	ldrb	r3, [r0]
8180054c:	e1a02000 	mov	r2, r0
81800550:	e3530000 	cmp	r3, #0
81800554:	0a000004 	beq	8180056c <strlen+0x24>
81800558:	e5f03001 	ldrb	r3, [r0, #1]!
8180055c:	e3530000 	cmp	r3, #0
81800560:	1afffffc 	bne	81800558 <strlen+0x10>
81800564:	e0400002 	sub	r0, r0, r2
81800568:	e12fff1e 	bx	lr
8180056c:	e1a00003 	mov	r0, r3
81800570:	e12fff1e 	bx	lr

81800574 <sys_uart_init>:
81800574:	e59f2088 	ldr	r2, [pc, #136]	; 81800604 <sys_uart_init+0x90>
81800578:	e52de004 	push	{lr}		; (str lr, [sp, #-4]!)
8180057c:	e5921890 	ldr	r1, [r2, #2192]	; 0x890
81800580:	e59f3080 	ldr	r3, [pc, #128]	; 81800608 <sys_uart_init+0x94>
81800584:	e3c110f0 	bic	r1, r1, #240	; 0xf0
81800588:	e3811050 	orr	r1, r1, #80	; 0x50
8180058c:	e5821890 	str	r1, [r2, #2192]	; 0x890
81800590:	e5921890 	ldr	r1, [r2, #2192]	; 0x890
81800594:	e3a00000 	mov	r0, #0
81800598:	e3c1100f 	bic	r1, r1, #15
8180059c:	e3811005 	orr	r1, r1, #5
818005a0:	e5821890 	str	r1, [r2, #2192]	; 0x890
818005a4:	e5921068 	ldr	r1, [r2, #104]	; 0x68
818005a8:	e3a0e0f7 	mov	lr, #247	; 0xf7
818005ac:	e3811601 	orr	r1, r1, #1048576	; 0x100000
818005b0:	e5821068 	str	r1, [r2, #104]	; 0x68
818005b4:	e59212d0 	ldr	r1, [r2, #720]	; 0x2d0
818005b8:	e3a0c036 	mov	ip, #54	; 0x36
818005bc:	e3811601 	orr	r1, r1, #1048576	; 0x100000
818005c0:	e58212d0 	str	r1, [r2, #720]	; 0x2d0
818005c4:	e5830004 	str	r0, [r3, #4]
818005c8:	e583e008 	str	lr, [r3, #8]
818005cc:	e5830010 	str	r0, [r3, #16]
818005d0:	e593200c 	ldr	r2, [r3, #12]
818005d4:	e3822080 	orr	r2, r2, #128	; 0x80
818005d8:	e583200c 	str	r2, [r3, #12]
818005dc:	e583c000 	str	ip, [r3]
818005e0:	e5830004 	str	r0, [r3, #4]
818005e4:	e593200c 	ldr	r2, [r3, #12]
818005e8:	e3c22080 	bic	r2, r2, #128	; 0x80
818005ec:	e583200c 	str	r2, [r3, #12]
818005f0:	e593200c 	ldr	r2, [r3, #12]
818005f4:	e3c2201f 	bic	r2, r2, #31
818005f8:	e3822003 	orr	r2, r2, #3
818005fc:	e583200c 	str	r2, [r3, #12]
81800600:	e49df004 	pop	{pc}		; (ldr pc, [sp], #4)
81800604:	01c20000 	biceq	r0, r2, r0
81800608:	01c25000 	biceq	r5, r2, r0

8180060c <sys_uart_putc>:
8180060c:	e59f2010 	ldr	r2, [pc, #16]	; 81800624 <sys_uart_putc+0x18>
81800610:	e592307c 	ldr	r3, [r2, #124]	; 0x7c
81800614:	e3130002 	tst	r3, #2
81800618:	0afffffc 	beq	81800610 <sys_uart_putc+0x4>
8180061c:	e5820000 	str	r0, [r2]
81800620:	e12fff1e 	bx	lr
81800624:	01c25000 	biceq	r5, r2, r0

81800628 <sysPutString>:
81800628:	e5d01000 	ldrb	r1, [r0]
8180062c:	e3510000 	cmp	r1, #0
81800630:	012fff1e 	bxeq	lr
81800634:	e59f201c 	ldr	r2, [pc, #28]	; 81800658 <sysPutString+0x30>
81800638:	e592307c 	ldr	r3, [r2, #124]	; 0x7c
8180063c:	e3130002 	tst	r3, #2
81800640:	0afffffc 	beq	81800638 <sysPutString+0x10>
81800644:	e5821000 	str	r1, [r2]
81800648:	e5f01001 	ldrb	r1, [r0, #1]!
8180064c:	e3510000 	cmp	r1, #0
81800650:	1afffff8 	bne	81800638 <sysPutString+0x10>
81800654:	e12fff1e 	bx	lr
81800658:	01c25000 	biceq	r5, r2, r0

8180065c <printf>:
8180065c:	e92d000f 	push	{r0, r1, r2, r3}
81800660:	e92d4ff0 	push	{r4, r5, r6, r7, r8, r9, sl, fp, lr}
81800664:	e59f4508 	ldr	r4, [pc, #1288]	; 81800b74 <printf+0x518>
81800668:	e24dd03c 	sub	sp, sp, #60	; 0x3c
8180066c:	e59d5060 	ldr	r5, [sp, #96]	; 0x60
81800670:	e28d0064 	add	r0, sp, #100	; 0x64
81800674:	e5d53000 	ldrb	r3, [r5]
81800678:	e3a0b030 	mov	fp, #48	; 0x30
8180067c:	e3a0102c 	mov	r1, #44	; 0x2c
81800680:	e3530000 	cmp	r3, #0
81800684:	0a00000b 	beq	818006b8 <printf+0x5c>
81800688:	e3530025 	cmp	r3, #37	; 0x25
8180068c:	e2857001 	add	r7, r5, #1
81800690:	158d7060 	strne	r7, [sp, #96]	; 0x60
81800694:	0a00000b 	beq	818006c8 <printf+0x6c>
81800698:	e594207c 	ldr	r2, [r4, #124]	; 0x7c
8180069c:	e3120002 	tst	r2, #2
818006a0:	0afffffc 	beq	81800698 <printf+0x3c>
818006a4:	e5843000 	str	r3, [r4]
818006a8:	e5d53001 	ldrb	r3, [r5, #1]
818006ac:	e1a05007 	mov	r5, r7
818006b0:	e3530000 	cmp	r3, #0
818006b4:	1afffff3 	bne	81800688 <printf+0x2c>
818006b8:	e28dd03c 	add	sp, sp, #60	; 0x3c
818006bc:	e8bd4ff0 	pop	{r4, r5, r6, r7, r8, r9, sl, fp, lr}
818006c0:	e28dd010 	add	sp, sp, #16
818006c4:	e12fff1e 	bx	lr
818006c8:	e5d53001 	ldrb	r3, [r5, #1]
818006cc:	e5909000 	ldr	r9, [r0]
818006d0:	e3530030 	cmp	r3, #48	; 0x30
818006d4:	e3a08000 	mov	r8, #0
818006d8:	03a0a030 	moveq	sl, #48	; 0x30
818006dc:	13a0a020 	movne	sl, #32
818006e0:	e1a06008 	mov	r6, r8
818006e4:	e2802004 	add	r2, r0, #4
818006e8:	e1a05007 	mov	r5, r7
818006ec:	e4d53001 	ldrb	r3, [r5], #1
818006f0:	e086e106 	add	lr, r6, r6, lsl #2
818006f4:	e2430030 	sub	r0, r3, #48	; 0x30
818006f8:	e3530000 	cmp	r3, #0
818006fc:	e200c0ff 	and	ip, r0, #255	; 0xff
81800700:	0a000022 	beq	81800790 <printf+0x134>
81800704:	e35c0009 	cmp	ip, #9
81800708:	9080608e 	addls	r6, r0, lr, lsl #1
8180070c:	9a000014 	bls	81800764 <printf+0x108>
81800710:	e3530064 	cmp	r3, #100	; 0x64
81800714:	0a000078 	beq	818008fc <printf+0x2a0>
81800718:	8a000013 	bhi	8180076c <printf+0x110>
8180071c:	e353002d 	cmp	r3, #45	; 0x2d
81800720:	0a00000e 	beq	81800760 <printf+0x104>
81800724:	8a00004a 	bhi	81800854 <printf+0x1f8>
81800728:	e3530000 	cmp	r3, #0
8180072c:	01a05007 	moveq	r5, r7
81800730:	0a000007 	beq	81800754 <printf+0xf8>
81800734:	e3530025 	cmp	r3, #37	; 0x25
81800738:	1a000067 	bne	818008dc <printf+0x280>
8180073c:	e594307c 	ldr	r3, [r4, #124]	; 0x7c
81800740:	e3130002 	tst	r3, #2
81800744:	0afffffc 	beq	8180073c <printf+0xe0>
81800748:	e3a03025 	mov	r3, #37	; 0x25
8180074c:	e5843000 	str	r3, [r4]
81800750:	e5d73001 	ldrb	r3, [r7, #1]
81800754:	e58d5060 	str	r5, [sp, #96]	; 0x60
81800758:	e1a00002 	mov	r0, r2
8180075c:	eaffffc7 	b	81800680 <printf+0x24>
81800760:	e3a08001 	mov	r8, #1
81800764:	e1a07005 	mov	r7, r5
81800768:	eaffffde 	b	818006e8 <printf+0x8c>
8180076c:	e3530073 	cmp	r3, #115	; 0x73
81800770:	0a00008f 	beq	818009b4 <printf+0x358>
81800774:	9a000053 	bls	818008c8 <printf+0x26c>
81800778:	e3530075 	cmp	r3, #117	; 0x75
8180077c:	03a0300a 	moveq	r3, #10
81800780:	0a000002 	beq	81800790 <printf+0x134>
81800784:	e3530078 	cmp	r3, #120	; 0x78
81800788:	1a000053 	bne	818008dc <printf+0x280>
8180078c:	e3a03010 	mov	r3, #16
81800790:	e3580000 	cmp	r8, #0
81800794:	1a000053 	bne	818008e8 <printf+0x28c>
81800798:	e3560051 	cmp	r6, #81	; 0x51
8180079c:	a3a06000 	movge	r6, #0
818007a0:	e3530000 	cmp	r3, #0
818007a4:	ba00005c 	blt	8180091c <printf+0x2c0>
818007a8:	e3530010 	cmp	r3, #16
818007ac:	e1a0c009 	mov	ip, r9
818007b0:	028de00f 	addeq	lr, sp, #15
818007b4:	03a00000 	moveq	r0, #0
818007b8:	1a00005c 	bne	81800930 <printf+0x2d4>
818007bc:	e20c300f 	and	r3, ip, #15
818007c0:	e3530009 	cmp	r3, #9
818007c4:	e20330ff 	and	r3, r3, #255	; 0xff
818007c8:	e2839030 	add	r9, r3, #48	; 0x30
818007cc:	e1a0c22c 	lsr	ip, ip, #4
818007d0:	e2833037 	add	r3, r3, #55	; 0x37
818007d4:	8a00004a 	bhi	81800904 <printf+0x2a8>
818007d8:	e35c0000 	cmp	ip, #0
818007dc:	e5ee9001 	strb	r9, [lr, #1]!
818007e0:	e2803001 	add	r3, r0, #1
818007e4:	1a00004a 	bne	81800914 <printf+0x2b8>
818007e8:	e1560003 	cmp	r6, r3
818007ec:	da000066 	ble	8180098c <printf+0x330>
818007f0:	e3580000 	cmp	r8, #0
818007f4:	e0466003 	sub	r6, r6, r3
818007f8:	0a0000b5 	beq	81800ad4 <printf+0x478>
818007fc:	e28de010 	add	lr, sp, #16
81800800:	e08e0003 	add	r0, lr, r3
81800804:	e570c001 	ldrb	ip, [r0, #-1]!
81800808:	e594307c 	ldr	r3, [r4, #124]	; 0x7c
8180080c:	e3130002 	tst	r3, #2
81800810:	0afffffc 	beq	81800808 <printf+0x1ac>
81800814:	e15e0000 	cmp	lr, r0
81800818:	e584c000 	str	ip, [r4]
8180081c:	1afffff8 	bne	81800804 <printf+0x1a8>
81800820:	e3580000 	cmp	r8, #0
81800824:	0a000093 	beq	81800a78 <printf+0x41c>
81800828:	e3560000 	cmp	r6, #0
8180082c:	e2460001 	sub	r0, r6, #1
81800830:	0a000090 	beq	81800a78 <printf+0x41c>
81800834:	e594307c 	ldr	r3, [r4, #124]	; 0x7c
81800838:	e3130002 	tst	r3, #2
8180083c:	0afffffc 	beq	81800834 <printf+0x1d8>
81800840:	e2400001 	sub	r0, r0, #1
81800844:	e3700001 	cmn	r0, #1
81800848:	e584a000 	str	sl, [r4]
8180084c:	1afffff8 	bne	81800834 <printf+0x1d8>
81800850:	ea000088 	b	81800a78 <printf+0x41c>
81800854:	e3530058 	cmp	r3, #88	; 0x58
81800858:	0affffcb 	beq	8180078c <printf+0x130>
8180085c:	e3530063 	cmp	r3, #99	; 0x63
81800860:	1a00001d 	bne	818008dc <printf+0x280>
81800864:	e3580000 	cmp	r8, #0
81800868:	1a00007b 	bne	81800a5c <printf+0x400>
8180086c:	e3560000 	cmp	r6, #0
81800870:	0a00000b 	beq	818008a4 <printf+0x248>
81800874:	e3560001 	cmp	r6, #1
81800878:	e2466002 	sub	r6, r6, #2
8180087c:	0a000008 	beq	818008a4 <printf+0x248>
81800880:	e594307c 	ldr	r3, [r4, #124]	; 0x7c
81800884:	e3130002 	tst	r3, #2
81800888:	0afffffc 	beq	81800880 <printf+0x224>
8180088c:	e2466001 	sub	r6, r6, #1
81800890:	e3760001 	cmn	r6, #1
81800894:	e584a000 	str	sl, [r4]
81800898:	1afffff8 	bne	81800880 <printf+0x224>
8180089c:	e3580000 	cmp	r8, #0
818008a0:	1a000074 	bne	81800a78 <printf+0x41c>
818008a4:	e209907f 	and	r9, r9, #127	; 0x7f
818008a8:	e594307c 	ldr	r3, [r4, #124]	; 0x7c
818008ac:	e3130002 	tst	r3, #2
818008b0:	0afffffc 	beq	818008a8 <printf+0x24c>
818008b4:	e5849000 	str	r9, [r4]
818008b8:	e1a00002 	mov	r0, r2
818008bc:	e5d73001 	ldrb	r3, [r7, #1]
818008c0:	e58d5060 	str	r5, [sp, #96]	; 0x60
818008c4:	eaffff6d 	b	81800680 <printf+0x24>
818008c8:	e3530069 	cmp	r3, #105	; 0x69
818008cc:	0a00000a 	beq	818008fc <printf+0x2a0>
818008d0:	e353006f 	cmp	r3, #111	; 0x6f
818008d4:	03a03008 	moveq	r3, #8
818008d8:	0affffac 	beq	81800790 <printf+0x134>
818008dc:	e3580000 	cmp	r8, #0
818008e0:	e3a03003 	mov	r3, #3
818008e4:	0affffab 	beq	81800798 <printf+0x13c>
818008e8:	e3560000 	cmp	r6, #0
818008ec:	01a08006 	moveq	r8, r6
818008f0:	0affffaa 	beq	818007a0 <printf+0x144>
818008f4:	e3a08001 	mov	r8, #1
818008f8:	eaffffa6 	b	81800798 <printf+0x13c>
818008fc:	e3e03009 	mvn	r3, #9
81800900:	eaffffa2 	b	81800790 <printf+0x134>
81800904:	e35c0000 	cmp	ip, #0
81800908:	e5ee3001 	strb	r3, [lr, #1]!
8180090c:	e2803001 	add	r3, r0, #1
81800910:	0affffb4 	beq	818007e8 <printf+0x18c>
81800914:	e1a00003 	mov	r0, r3
81800918:	eaffffa7 	b	818007bc <printf+0x160>
8180091c:	e3590000 	cmp	r9, #0
81800920:	e2633000 	rsb	r3, r3, #0
81800924:	b2699000 	rsblt	r9, r9, #0
81800928:	b3a0c001 	movlt	ip, #1
8180092c:	ba000000 	blt	81800934 <printf+0x2d8>
81800930:	e3a0c000 	mov	ip, #0
81800934:	e353000a 	cmp	r3, #10
81800938:	0a000070 	beq	81800b00 <printf+0x4a4>
8180093c:	e28de00f 	add	lr, sp, #15
81800940:	e3a00000 	mov	r0, #0
81800944:	e3590000 	cmp	r9, #0
81800948:	e5eeb001 	strb	fp, [lr, #1]!
8180094c:	e2803001 	add	r3, r0, #1
81800950:	0a000004 	beq	81800968 <printf+0x30c>
81800954:	e1a00003 	mov	r0, r3
81800958:	e3590000 	cmp	r9, #0
8180095c:	e5eeb001 	strb	fp, [lr, #1]!
81800960:	e2803001 	add	r3, r0, #1
81800964:	1afffffa 	bne	81800954 <printf+0x2f8>
81800968:	e35c0000 	cmp	ip, #0
8180096c:	0affff9d 	beq	818007e8 <printf+0x18c>
81800970:	e28dc038 	add	ip, sp, #56	; 0x38
81800974:	e08cc003 	add	ip, ip, r3
81800978:	e2803002 	add	r3, r0, #2
8180097c:	e3a0e02d 	mov	lr, #45	; 0x2d
81800980:	e1560003 	cmp	r6, r3
81800984:	e54ce028 	strb	lr, [ip, #-40]	; 0xffffffd8
81800988:	caffff98 	bgt	818007f0 <printf+0x194>
8180098c:	e28de010 	add	lr, sp, #16
81800990:	e08e0003 	add	r0, lr, r3
81800994:	e570c001 	ldrb	ip, [r0, #-1]!
81800998:	e594307c 	ldr	r3, [r4, #124]	; 0x7c
8180099c:	e3130002 	tst	r3, #2
818009a0:	0afffffc 	beq	81800998 <printf+0x33c>
818009a4:	e15e0000 	cmp	lr, r0
818009a8:	e584c000 	str	ip, [r4]
818009ac:	1afffff8 	bne	81800994 <printf+0x338>
818009b0:	ea000030 	b	81800a78 <printf+0x41c>
818009b4:	e3580000 	cmp	r8, #0
818009b8:	e1a03009 	mov	r3, r9
818009bc:	0a000031 	beq	81800a88 <printf+0x42c>
818009c0:	e5d9c000 	ldrb	ip, [r9]
818009c4:	e35c0000 	cmp	ip, #0
818009c8:	0a000007 	beq	818009ec <printf+0x390>
818009cc:	e1a0e009 	mov	lr, r9
818009d0:	e594007c 	ldr	r0, [r4, #124]	; 0x7c
818009d4:	e3100002 	tst	r0, #2
818009d8:	0afffffc 	beq	818009d0 <printf+0x374>
818009dc:	e584c000 	str	ip, [r4]
818009e0:	e5fec001 	ldrb	ip, [lr, #1]!
818009e4:	e35c0000 	cmp	ip, #0
818009e8:	1afffff8 	bne	818009d0 <printf+0x374>
818009ec:	e1a00009 	mov	r0, r9
818009f0:	e58d100c 	str	r1, [sp, #12]
818009f4:	e1cd20f4 	strd	r2, [sp, #4]
818009f8:	ebfffed2 	bl	81800548 <strlen>
818009fc:	e1cd20d4 	ldrd	r2, [sp, #4]
81800a00:	e59d100c 	ldr	r1, [sp, #12]
81800a04:	e1560000 	cmp	r6, r0
81800a08:	da00001a 	ble	81800a78 <printf+0x41c>
81800a0c:	e1a00009 	mov	r0, r9
81800a10:	e58d100c 	str	r1, [sp, #12]
81800a14:	e1cd20f4 	strd	r2, [sp, #4]
81800a18:	ebfffeca 	bl	81800548 <strlen>
81800a1c:	e1cd20d4 	ldrd	r2, [sp, #4]
81800a20:	e59d100c 	ldr	r1, [sp, #12]
81800a24:	e0460000 	sub	r0, r6, r0
81800a28:	e3500000 	cmp	r0, #0
81800a2c:	e240c001 	sub	ip, r0, #1
81800a30:	0a000010 	beq	81800a78 <printf+0x41c>
81800a34:	e594007c 	ldr	r0, [r4, #124]	; 0x7c
81800a38:	e3100002 	tst	r0, #2
81800a3c:	0afffffc 	beq	81800a34 <printf+0x3d8>
81800a40:	e24cc001 	sub	ip, ip, #1
81800a44:	e37c0001 	cmn	ip, #1
81800a48:	e584a000 	str	sl, [r4]
81800a4c:	1afffff8 	bne	81800a34 <printf+0x3d8>
81800a50:	e3580000 	cmp	r8, #0
81800a54:	0a000013 	beq	81800aa8 <printf+0x44c>
81800a58:	ea000006 	b	81800a78 <printf+0x41c>
81800a5c:	e209007f 	and	r0, r9, #127	; 0x7f
81800a60:	e594307c 	ldr	r3, [r4, #124]	; 0x7c
81800a64:	e3130002 	tst	r3, #2
81800a68:	0afffffc 	beq	81800a60 <printf+0x404>
81800a6c:	e3560000 	cmp	r6, #0
81800a70:	e5840000 	str	r0, [r4]
81800a74:	1a00003a 	bne	81800b64 <printf+0x508>
81800a78:	e5d73001 	ldrb	r3, [r7, #1]
81800a7c:	e58d5060 	str	r5, [sp, #96]	; 0x60
81800a80:	e1a00002 	mov	r0, r2
81800a84:	eafffefd 	b	81800680 <printf+0x24>
81800a88:	e1a00009 	mov	r0, r9
81800a8c:	e58d100c 	str	r1, [sp, #12]
81800a90:	e1cd20f4 	strd	r2, [sp, #4]
81800a94:	ebfffeab 	bl	81800548 <strlen>
81800a98:	e1cd20d4 	ldrd	r2, [sp, #4]
81800a9c:	e59d100c 	ldr	r1, [sp, #12]
81800aa0:	e1560000 	cmp	r6, r0
81800aa4:	ca000024 	bgt	81800b3c <printf+0x4e0>
81800aa8:	e5d9c000 	ldrb	ip, [r9]
81800aac:	e35c0000 	cmp	ip, #0
81800ab0:	0afffff0 	beq	81800a78 <printf+0x41c>
81800ab4:	e594007c 	ldr	r0, [r4, #124]	; 0x7c
81800ab8:	e3100002 	tst	r0, #2
81800abc:	0afffffc 	beq	81800ab4 <printf+0x458>
81800ac0:	e584c000 	str	ip, [r4]
81800ac4:	e5f3c001 	ldrb	ip, [r3, #1]!
81800ac8:	e35c0000 	cmp	ip, #0
81800acc:	1afffff8 	bne	81800ab4 <printf+0x458>
81800ad0:	eaffffe8 	b	81800a78 <printf+0x41c>
81800ad4:	e3560000 	cmp	r6, #0
81800ad8:	e246c001 	sub	ip, r6, #1
81800adc:	0affff46 	beq	818007fc <printf+0x1a0>
81800ae0:	e594007c 	ldr	r0, [r4, #124]	; 0x7c
81800ae4:	e3100002 	tst	r0, #2
81800ae8:	0afffffc 	beq	81800ae0 <printf+0x484>
81800aec:	e24cc001 	sub	ip, ip, #1
81800af0:	e37c0001 	cmn	ip, #1
81800af4:	e584a000 	str	sl, [r4]
81800af8:	1afffff8 	bne	81800ae0 <printf+0x484>
81800afc:	eaffff3e 	b	818007fc <printf+0x1a0>
81800b00:	e3a00000 	mov	r0, #0
81800b04:	e28d3038 	add	r3, sp, #56	; 0x38
81800b08:	e0833000 	add	r3, r3, r0
81800b0c:	e3590000 	cmp	r9, #0
81800b10:	e543b028 	strb	fp, [r3, #-40]	; 0xffffffd8
81800b14:	e3c0e00c 	bic	lr, r0, #12
81800b18:	e2803001 	add	r3, r0, #1
81800b1c:	0affff91 	beq	81800968 <printf+0x30c>
81800b20:	e35e0002 	cmp	lr, #2
81800b24:	e28de038 	add	lr, sp, #56	; 0x38
81800b28:	e08ee003 	add	lr, lr, r3
81800b2c:	054e1028 	strbeq	r1, [lr, #-40]	; 0xffffffd8
81800b30:	02800002 	addeq	r0, r0, #2
81800b34:	11a00003 	movne	r0, r3
81800b38:	eafffff1 	b	81800b04 <printf+0x4a8>
81800b3c:	e1a00009 	mov	r0, r9
81800b40:	e58d100c 	str	r1, [sp, #12]
81800b44:	e1cd20f4 	strd	r2, [sp, #4]
81800b48:	ebfffe7e 	bl	81800548 <strlen>
81800b4c:	e1cd20d4 	ldrd	r2, [sp, #4]
81800b50:	e59d100c 	ldr	r1, [sp, #12]
81800b54:	e0560000 	subs	r0, r6, r0
81800b58:	1240c001 	subne	ip, r0, #1
81800b5c:	1affffb4 	bne	81800a34 <printf+0x3d8>
81800b60:	eaffffd0 	b	81800aa8 <printf+0x44c>
81800b64:	e3560001 	cmp	r6, #1
81800b68:	e2466002 	sub	r6, r6, #2
81800b6c:	1affff43 	bne	81800880 <printf+0x224>
81800b70:	eaffffc0 	b	81800a78 <printf+0x41c>
81800b74:	01c25000 	biceq	r5, r2, r0

81800b78 <sys_clock_init>:
81800b78:	e59f20dc 	ldr	r2, [pc, #220]	; 81800c5c <sys_clock_init+0xe4>
81800b7c:	e59f10dc 	ldr	r1, [pc, #220]	; 81800c60 <sys_clock_init+0xe8>
81800b80:	e3a03064 	mov	r3, #100	; 0x64
81800b84:	e5821200 	str	r1, [r2, #512]	; 0x200
81800b88:	e5821204 	str	r1, [r2, #516]	; 0x204
81800b8c:	e5921050 	ldr	r1, [r2, #80]	; 0x50
81800b90:	e1a00003 	mov	r0, r3
81800b94:	e3c11803 	bic	r1, r1, #196608	; 0x30000
81800b98:	e3811801 	orr	r1, r1, #65536	; 0x10000
81800b9c:	e5821050 	str	r1, [r2, #80]	; 0x50
81800ba0:	e2500001 	subs	r0, r0, #1
81800ba4:	1afffffd 	bne	81800ba0 <sys_clock_init+0x28>
81800ba8:	e59f00b4 	ldr	r0, [pc, #180]	; 81800c64 <sys_clock_init+0xec>
81800bac:	e1a01003 	mov	r1, r3
81800bb0:	e5820010 	str	r0, [r2, #16]
81800bb4:	e2511001 	subs	r1, r1, #1
81800bb8:	1afffffd 	bne	81800bb4 <sys_clock_init+0x3c>
81800bbc:	e59f00a4 	ldr	r0, [pc, #164]	; 81800c68 <sys_clock_init+0xf0>
81800bc0:	e1a01003 	mov	r1, r3
81800bc4:	e5820028 	str	r0, [r2, #40]	; 0x28
81800bc8:	e2511001 	subs	r1, r1, #1
81800bcc:	1afffffd 	bne	81800bc8 <sys_clock_init+0x50>
81800bd0:	e3a01dc6 	mov	r1, #12672	; 0x3180
81800bd4:	e5821054 	str	r1, [r2, #84]	; 0x54
81800bd8:	e1a01003 	mov	r1, r3
81800bdc:	e2511001 	subs	r1, r1, #1
81800be0:	1afffffd 	bne	81800bdc <sys_clock_init+0x64>
81800be4:	e5921100 	ldr	r1, [r2, #256]	; 0x100
81800be8:	e3811405 	orr	r1, r1, #83886080	; 0x5000000
81800bec:	e381100f 	orr	r1, r1, #15
81800bf0:	e5821100 	str	r1, [r2, #256]	; 0x100
81800bf4:	e2533001 	subs	r3, r3, #1
81800bf8:	1afffffd 	bne	81800bf4 <sys_clock_init+0x7c>
81800bfc:	e59f3068 	ldr	r3, [pc, #104]	; 81800c6c <sys_clock_init+0xf4>
81800c00:	e5920000 	ldr	r0, [r2]
81800c04:	e1a01002 	mov	r1, r2
81800c08:	e0033000 	and	r3, r3, r0
81800c0c:	e3833102 	orr	r3, r3, #-2147483648	; 0x80000000
81800c10:	e3833a01 	orr	r3, r3, #4096	; 0x1000
81800c14:	e5823000 	str	r3, [r2]
81800c18:	e59f3050 	ldr	r3, [pc, #80]	; 81800c70 <sys_clock_init+0xf8>
81800c1c:	e5922000 	ldr	r2, [r2]
81800c20:	ea000002 	b	81800c30 <sys_clock_init+0xb8>
81800c24:	e2533001 	subs	r3, r3, #1
81800c28:	e5912000 	ldr	r2, [r1]
81800c2c:	0a000001 	beq	81800c38 <sys_clock_init+0xc0>
81800c30:	e3120201 	tst	r2, #268435456	; 0x10000000
81800c34:	0afffffa 	beq	81800c24 <sys_clock_init+0xac>
81800c38:	e59f101c 	ldr	r1, [pc, #28]	; 81800c5c <sys_clock_init+0xe4>
81800c3c:	e3a02064 	mov	r2, #100	; 0x64
81800c40:	e5913050 	ldr	r3, [r1, #80]	; 0x50
81800c44:	e3c33803 	bic	r3, r3, #196608	; 0x30000
81800c48:	e3833802 	orr	r3, r3, #131072	; 0x20000
81800c4c:	e5813050 	str	r3, [r1, #80]	; 0x50
81800c50:	e2522001 	subs	r2, r2, #1
81800c54:	1afffffd 	bne	81800c50 <sys_clock_init+0xd8>
81800c58:	e12fff1e 	bx	lr
81800c5c:	01c20000 	biceq	r0, r2, r0
81800c60:	000001ff 	strdeq	r0, [r0], -pc	; <UNPREDICTABLE>
81800c64:	81003e03 	tsthi	r0, r3, lsl #28
81800c68:	80041800 	andhi	r1, r4, r0, lsl #16
81800c6c:	fffce0cc 			; <UNDEFINED> instruction: 0xfffce0cc
81800c70:	00000ffe 	strdeq	r0, [r0], -lr

81800c74 <dram_para_setup>:
81800c74:	e5903028 	ldr	r3, [r0, #40]	; 0x28
81800c78:	e92d40f0 	push	{r4, r5, r6, r7, lr}
81800c7c:	e5d06018 	ldrb	r6, [r0, #24]
81800c80:	e1a03123 	lsr	r3, r3, #2
81800c84:	e1a07183 	lsl	r7, r3, #3
81800c88:	e590301c 	ldr	r3, [r0, #28]
81800c8c:	e3560000 	cmp	r6, #0
81800c90:	e5902014 	ldr	r2, [r0, #20]
81800c94:	11a03223 	lsrne	r3, r3, #4
81800c98:	01a032a3 	lsreq	r3, r3, #5
81800c9c:	e5905010 	ldr	r5, [r0, #16]
81800ca0:	e1a0c683 	lsl	ip, r3, #13
81800ca4:	e590300c 	ldr	r3, [r0, #12]
81800ca8:	e5904024 	ldr	r4, [r0, #36]	; 0x24
81800cac:	e590e020 	ldr	lr, [r0, #32]
81800cb0:	e3822002 	orr	r2, r2, #2
81800cb4:	e1822783 	orr	r2, r2, r3, lsl #15
81800cb8:	e1a050a5 	lsr	r5, r5, #1
81800cbc:	e1823007 	orr	r3, r2, r7
81800cc0:	e2444001 	sub	r4, r4, #1
81800cc4:	e1a05205 	lsl	r5, r5, #4
81800cc8:	e24ee001 	sub	lr, lr, #1
81800ccc:	e1a04284 	lsl	r4, r4, #5
81800cd0:	e1833005 	orr	r3, r3, r5
81800cd4:	e1a0e48e 	lsl	lr, lr, #9
81800cd8:	e1833004 	orr	r3, r3, r4
81800cdc:	e59f104c 	ldr	r1, [pc, #76]	; 81800d30 <dram_para_setup+0xbc>
81800ce0:	e183300e 	orr	r3, r3, lr
81800ce4:	e1833806 	orr	r3, r3, r6, lsl #16
81800ce8:	e183300c 	orr	r3, r3, ip
81800cec:	e5813000 	str	r3, [r1]
81800cf0:	e591300c 	ldr	r3, [r1, #12]
81800cf4:	e1a02001 	mov	r2, r1
81800cf8:	e3833702 	orr	r3, r3, #524288	; 0x80000
81800cfc:	e581300c 	str	r3, [r1, #12]
81800d00:	e591300c 	ldr	r3, [r1, #12]
81800d04:	e3e004ff 	mvn	r0, #-16777216	; 0xff000000
81800d08:	e3833001 	orr	r3, r3, #1
81800d0c:	e581300c 	str	r3, [r1, #12]
81800d10:	ea000001 	b	81800d1c <dram_para_setup+0xa8>
81800d14:	e2500001 	subs	r0, r0, #1
81800d18:	08bd80f0 	popeq	{r4, r5, r6, r7, pc}
81800d1c:	e592300c 	ldr	r3, [r2, #12]
81800d20:	e3130001 	tst	r3, #1
81800d24:	1afffffa 	bne	81800d14 <dram_para_setup+0xa0>
81800d28:	e3a00001 	mov	r0, #1
81800d2c:	e8bd80f0 	pop	{r4, r5, r6, r7, pc}
81800d30:	01c01000 	biceq	r1, r0, r0

81800d34 <dram_scan_readpipe.isra.1>:
81800d34:	e3500001 	cmp	r0, #1
81800d38:	1a000048 	bne	81800e60 <dram_scan_readpipe.isra.1+0x12c>
81800d3c:	e59fc1b0 	ldr	ip, [pc, #432]	; 81800ef4 <dram_scan_readpipe.isra.1+0x1c0>
81800d40:	e92d40f0 	push	{r4, r5, r6, r7, lr}
81800d44:	e3a04000 	mov	r4, #0
81800d48:	e1a05004 	mov	r5, r4
81800d4c:	e1a0e004 	mov	lr, r4
81800d50:	e59c200c 	ldr	r2, [ip, #12]
81800d54:	e3e034ff 	mvn	r3, #-16777216	; 0xff000000
81800d58:	e3c22d07 	bic	r2, r2, #448	; 0x1c0
81800d5c:	e182230e 	orr	r2, r2, lr, lsl #6
81800d60:	e58c200c 	str	r2, [ip, #12]
81800d64:	e59c2024 	ldr	r2, [ip, #36]	; 0x24
81800d68:	e3822001 	orr	r2, r2, #1
81800d6c:	e58c2024 	str	r2, [ip, #36]	; 0x24
81800d70:	ea000001 	b	81800d7c <dram_scan_readpipe.isra.1+0x48>
81800d74:	e2533001 	subs	r3, r3, #1
81800d78:	0a000002 	beq	81800d88 <dram_scan_readpipe.isra.1+0x54>
81800d7c:	e59c2024 	ldr	r2, [ip, #36]	; 0x24
81800d80:	e3120001 	tst	r2, #1
81800d84:	1afffffa 	bne	81800d74 <dram_scan_readpipe.isra.1+0x40>
81800d88:	e59c3024 	ldr	r3, [ip, #36]	; 0x24
81800d8c:	e3130030 	tst	r3, #48	; 0x30
81800d90:	1a000002 	bne	81800da0 <dram_scan_readpipe.isra.1+0x6c>
81800d94:	e59c0024 	ldr	r0, [ip, #36]	; 0x24
81800d98:	e2100010 	ands	r0, r0, #16
81800d9c:	0a000014 	beq	81800df4 <dram_scan_readpipe.isra.1+0xc0>
81800da0:	e28ee001 	add	lr, lr, #1
81800da4:	e35e0008 	cmp	lr, #8
81800da8:	1affffe8 	bne	81800d50 <dram_scan_readpipe.isra.1+0x1c>
81800dac:	e59f2140 	ldr	r2, [pc, #320]	; 81800ef4 <dram_scan_readpipe.isra.1+0x1c0>
81800db0:	e3e034ff 	mvn	r3, #-16777216	; 0xff000000
81800db4:	e592000c 	ldr	r0, [r2, #12]
81800db8:	e1a01002 	mov	r1, r2
81800dbc:	e3c00d07 	bic	r0, r0, #448	; 0x1c0
81800dc0:	e1804304 	orr	r4, r0, r4, lsl #6
81800dc4:	e582400c 	str	r4, [r2, #12]
81800dc8:	e5920024 	ldr	r0, [r2, #36]	; 0x24
81800dcc:	e3800001 	orr	r0, r0, #1
81800dd0:	e5820024 	str	r0, [r2, #36]	; 0x24
81800dd4:	ea000001 	b	81800de0 <dram_scan_readpipe.isra.1+0xac>
81800dd8:	e2533001 	subs	r3, r3, #1
81800ddc:	0a000002 	beq	81800dec <dram_scan_readpipe.isra.1+0xb8>
81800de0:	e5912024 	ldr	r2, [r1, #36]	; 0x24
81800de4:	e3120001 	tst	r2, #1
81800de8:	1afffffa 	bne	81800dd8 <dram_scan_readpipe.isra.1+0xa4>
81800dec:	e3a00000 	mov	r0, #0
81800df0:	e8bd80f0 	pop	{r4, r5, r6, r7, pc}
81800df4:	e5913000 	ldr	r3, [r1]
81800df8:	e1a06000 	mov	r6, r0
81800dfc:	e3530010 	cmp	r3, #16
81800e00:	13a07002 	movne	r7, #2
81800e04:	03a07004 	moveq	r7, #4
81800e08:	e3560000 	cmp	r6, #0
81800e0c:	059c3030 	ldreq	r3, [ip, #48]	; 0x30
81800e10:	0a000005 	beq	81800e2c <dram_scan_readpipe.isra.1+0xf8>
81800e14:	e3560001 	cmp	r6, #1
81800e18:	059c3034 	ldreq	r3, [ip, #52]	; 0x34
81800e1c:	0a000002 	beq	81800e2c <dram_scan_readpipe.isra.1+0xf8>
81800e20:	e3560002 	cmp	r6, #2
81800e24:	059c3038 	ldreq	r3, [ip, #56]	; 0x38
81800e28:	159c303c 	ldrne	r3, [ip, #60]	; 0x3c
81800e2c:	e3a02020 	mov	r2, #32
81800e30:	e3130001 	tst	r3, #1
81800e34:	12800001 	addne	r0, r0, #1
81800e38:	e2522001 	subs	r2, r2, #1
81800e3c:	e1a030a3 	lsr	r3, r3, #1
81800e40:	1afffffa 	bne	81800e30 <dram_scan_readpipe.isra.1+0xfc>
81800e44:	e2866001 	add	r6, r6, #1
81800e48:	e1560007 	cmp	r6, r7
81800e4c:	1affffed 	bne	81800e08 <dram_scan_readpipe.isra.1+0xd4>
81800e50:	e1500005 	cmp	r0, r5
81800e54:	81a05000 	movhi	r5, r0
81800e58:	81a0400e 	movhi	r4, lr
81800e5c:	eaffffcf 	b	81800da0 <dram_scan_readpipe.isra.1+0x6c>
81800e60:	e59f308c 	ldr	r3, [pc, #140]	; 81800ef4 <dram_scan_readpipe.isra.1+0x1c0>
81800e64:	e3a00000 	mov	r0, #0
81800e68:	e5932000 	ldr	r2, [r3]
81800e6c:	e1a0c003 	mov	ip, r3
81800e70:	e3c22a16 	bic	r2, r2, #90112	; 0x16000
81800e74:	e5832000 	str	r2, [r3]
81800e78:	e59c100c 	ldr	r1, [ip, #12]
81800e7c:	e3a02102 	mov	r2, #-2147483648	; 0x80000000
81800e80:	e3c11d07 	bic	r1, r1, #448	; 0x1c0
81800e84:	e1811000 	orr	r1, r1, r0
81800e88:	e3a03000 	mov	r3, #0
81800e8c:	e58c100c 	str	r1, [ip, #12]
81800e90:	e4823004 	str	r3, [r2], #4
81800e94:	e2833001 	add	r3, r3, #1
81800e98:	e3530020 	cmp	r3, #32
81800e9c:	1afffffb 	bne	81800e90 <dram_scan_readpipe.isra.1+0x15c>
81800ea0:	e3a02102 	mov	r2, #-2147483648	; 0x80000000
81800ea4:	e3a03000 	mov	r3, #0
81800ea8:	ea000001 	b	81800eb4 <dram_scan_readpipe.isra.1+0x180>
81800eac:	e3530020 	cmp	r3, #32
81800eb0:	0a000008 	beq	81800ed8 <dram_scan_readpipe.isra.1+0x1a4>
81800eb4:	e5921000 	ldr	r1, [r2]
81800eb8:	e2822004 	add	r2, r2, #4
81800ebc:	e1510003 	cmp	r1, r3
81800ec0:	e2833001 	add	r3, r3, #1
81800ec4:	0afffff8 	beq	81800eac <dram_scan_readpipe.isra.1+0x178>
81800ec8:	e2800040 	add	r0, r0, #64	; 0x40
81800ecc:	e3500c02 	cmp	r0, #512	; 0x200
81800ed0:	1affffe8 	bne	81800e78 <dram_scan_readpipe.isra.1+0x144>
81800ed4:	e3a00000 	mov	r0, #0
81800ed8:	e59f2014 	ldr	r2, [pc, #20]	; 81800ef4 <dram_scan_readpipe.isra.1+0x1c0>
81800edc:	e592300c 	ldr	r3, [r2, #12]
81800ee0:	e3c33d07 	bic	r3, r3, #448	; 0x1c0
81800ee4:	e1830000 	orr	r0, r3, r0
81800ee8:	e582000c 	str	r0, [r2, #12]
81800eec:	e3a00000 	mov	r0, #0
81800ef0:	e12fff1e 	bx	lr
81800ef4:	01c01000 	biceq	r1, r0, r0

81800ef8 <sys_dram_init>:
81800ef8:	e92d4010 	push	{r4, lr}
81800efc:	e3a0c020 	mov	ip, #32
81800f00:	e24dd030 	sub	sp, sp, #48	; 0x30
81800f04:	e3a0e102 	mov	lr, #-2147483648	; 0x80000000
81800f08:	e3a0009c 	mov	r0, #156	; 0x9c
81800f0c:	e3a01010 	mov	r1, #16
81800f10:	e3a02001 	mov	r2, #1
81800f14:	e3a03000 	mov	r3, #0
81800f18:	e58de000 	str	lr, [sp]
81800f1c:	e58dc004 	str	ip, [sp, #4]
81800f20:	e58d0008 	str	r0, [sp, #8]
81800f24:	e58d101c 	str	r1, [sp, #28]
81800f28:	e3a0e00a 	mov	lr, #10
81800f2c:	e3a0c00d 	mov	ip, #13
81800f30:	e3a00004 	mov	r0, #4
81800f34:	e3a01003 	mov	r1, #3
81800f38:	e58d200c 	str	r2, [sp, #12]
81800f3c:	e1cd21f0 	strd	r2, [sp, #16]
81800f40:	e58de020 	str	lr, [sp, #32]
81800f44:	e58dc024 	str	ip, [sp, #36]	; 0x24
81800f48:	e1cd02f8 	strd	r0, [sp, #40]	; 0x28
81800f4c:	e593305c 	ldr	r3, [r3, #92]	; 0x5c
81800f50:	e5cd2018 	strb	r2, [sp, #24]
81800f54:	e1a03c23 	lsr	r3, r3, #24
81800f58:	e3530058 	cmp	r3, #88	; 0x58
81800f5c:	1a000001 	bne	81800f68 <sys_dram_init+0x70>
81800f60:	e28dd030 	add	sp, sp, #48	; 0x30
81800f64:	e8bd8010 	pop	{r4, pc}
81800f68:	e59f2604 	ldr	r2, [pc, #1540]	; 81801574 <sys_dram_init+0x67c>
81800f6c:	e59f3604 	ldr	r3, [pc, #1540]	; 81801578 <sys_dram_init+0x680>
81800f70:	e5921824 	ldr	r1, [r2, #2084]	; 0x824
81800f74:	e3811a07 	orr	r1, r1, #28672	; 0x7000
81800f78:	e5821824 	str	r1, [r2, #2084]	; 0x824
81800f7c:	e2533001 	subs	r3, r3, #1
81800f80:	1afffffd 	bne	81800f7c <sys_dram_init+0x84>
81800f84:	e59d302c 	ldr	r3, [sp, #44]	; 0x2c
81800f88:	e3130008 	tst	r3, #8
81800f8c:	15923ac4 	ldrne	r3, [r2, #2756]	; 0xac4
81800f90:	13833503 	orrne	r3, r3, #12582912	; 0xc00000
81800f94:	15823ac4 	strne	r3, [r2, #2756]	; 0xac4
81800f98:	e59d3008 	ldr	r3, [sp, #8]
81800f9c:	e2432090 	sub	r2, r3, #144	; 0x90
81800fa0:	e3520024 	cmp	r2, #36	; 0x24
81800fa4:	959f35c8 	ldrls	r3, [pc, #1480]	; 81801574 <sys_dram_init+0x67c>
81800fa8:	959f25cc 	ldrls	r2, [pc, #1484]	; 8180157c <sys_dram_init+0x684>
81800fac:	95832ac0 	strls	r2, [r3, #2752]	; 0xac0
81800fb0:	959d3008 	ldrls	r3, [sp, #8]
81800fb4:	e35300b3 	cmp	r3, #179	; 0xb3
81800fb8:	859f35b4 	ldrhi	r3, [pc, #1460]	; 81801574 <sys_dram_init+0x67c>
81800fbc:	859f25bc 	ldrhi	r2, [pc, #1468]	; 81801580 <sys_dram_init+0x688>
81800fc0:	85832ac0 	strhi	r2, [r3, #2752]	; 0xac0
81800fc4:	859d3008 	ldrhi	r3, [sp, #8]
81800fc8:	e59f25b4 	ldr	r2, [pc, #1460]	; 81801584 <sys_dram_init+0x68c>
81800fcc:	e3530060 	cmp	r3, #96	; 0x60
81800fd0:	e1a03083 	lsl	r3, r3, #1
81800fd4:	e0810293 	umull	r0, r1, r3, r2
81800fd8:	e59d202c 	ldr	r2, [sp, #44]	; 0x2c
81800fdc:	91a031a1 	lsrls	r3, r1, #3
81800fe0:	81a03221 	lsrhi	r3, r1, #4
81800fe4:	92433001 	subls	r3, r3, #1
81800fe8:	82433001 	subhi	r3, r3, #1
81800fec:	91a03403 	lslls	r3, r3, #8
81800ff0:	81a03403 	lslhi	r3, r3, #8
81800ff4:	93833106 	orrls	r3, r3, #-2147483647	; 0x80000001
81800ff8:	83833102 	orrhi	r3, r3, #-2147483648	; 0x80000000
81800ffc:	e3120010 	tst	r2, #16
81801000:	0a0000e1 	beq	8180138c <sys_dram_init+0x494>
81801004:	e59f2568 	ldr	r2, [pc, #1384]	; 81801574 <sys_dram_init+0x67c>
81801008:	e59f1578 	ldr	r1, [pc, #1400]	; 81801588 <sys_dram_init+0x690>
8180100c:	e5821290 	str	r1, [r2, #656]	; 0x290
81801010:	e59d202c 	ldr	r2, [sp, #44]	; 0x2c
81801014:	e31200f0 	tst	r2, #240	; 0xf0
81801018:	e59f2554 	ldr	r2, [pc, #1364]	; 81801574 <sys_dram_init+0x67c>
8180101c:	13833401 	orrne	r3, r3, #16777216	; 0x1000000
81801020:	e5823020 	str	r3, [r2, #32]
81801024:	e5921020 	ldr	r1, [r2, #32]
81801028:	e1a03002 	mov	r3, r2
8180102c:	e3811601 	orr	r1, r1, #1048576	; 0x100000
81801030:	e5821020 	str	r1, [r2, #32]
81801034:	e5932020 	ldr	r2, [r3, #32]
81801038:	e3120201 	tst	r2, #268435456	; 0x10000000
8180103c:	0afffffc 	beq	81801034 <sys_dram_init+0x13c>
81801040:	e59f2530 	ldr	r2, [pc, #1328]	; 81801578 <sys_dram_init+0x680>
81801044:	e2522001 	subs	r2, r2, #1
81801048:	1afffffd 	bne	81801044 <sys_dram_init+0x14c>
8180104c:	e5932060 	ldr	r2, [r3, #96]	; 0x60
81801050:	e59f4534 	ldr	r4, [pc, #1332]	; 8180158c <sys_dram_init+0x694>
81801054:	e3822901 	orr	r2, r2, #16384	; 0x4000
81801058:	e5832060 	str	r2, [r3, #96]	; 0x60
8180105c:	e59322c0 	ldr	r2, [r3, #704]	; 0x2c0
81801060:	e59fc528 	ldr	ip, [pc, #1320]	; 81801590 <sys_dram_init+0x698>
81801064:	e3c22901 	bic	r2, r2, #16384	; 0x4000
81801068:	e58322c0 	str	r2, [r3, #704]	; 0x2c0
8180106c:	e59322c0 	ldr	r2, [r3, #704]	; 0x2c0
81801070:	e59f151c 	ldr	r1, [pc, #1308]	; 81801594 <sys_dram_init+0x69c>
81801074:	e3822901 	orr	r2, r2, #16384	; 0x4000
81801078:	e58322c0 	str	r2, [r3, #704]	; 0x2c0
8180107c:	e5932ac4 	ldr	r2, [r3, #2756]	; 0xac4
81801080:	e1a0000d 	mov	r0, sp
81801084:	e3822801 	orr	r2, r2, #65536	; 0x10000
81801088:	e5832ac4 	str	r2, [r3, #2756]	; 0xac4
8180108c:	e584c004 	str	ip, [r4, #4]
81801090:	e5841008 	str	r1, [r4, #8]
81801094:	ebfffef6 	bl	81800c74 <dram_para_setup>
81801098:	e3a00000 	mov	r0, #0
8180109c:	e1a01004 	mov	r1, r4
818010a0:	e1a0c000 	mov	ip, r0
818010a4:	e591200c 	ldr	r2, [r1, #12]
818010a8:	e3e034ff 	mvn	r3, #-16777216	; 0xff000000
818010ac:	e3c22d07 	bic	r2, r2, #448	; 0x1c0
818010b0:	e1822000 	orr	r2, r2, r0
818010b4:	e581200c 	str	r2, [r1, #12]
818010b8:	e5912024 	ldr	r2, [r1, #36]	; 0x24
818010bc:	e3822001 	orr	r2, r2, #1
818010c0:	e5812024 	str	r2, [r1, #36]	; 0x24
818010c4:	ea000001 	b	818010d0 <sys_dram_init+0x1d8>
818010c8:	e2533001 	subs	r3, r3, #1
818010cc:	0a000002 	beq	818010dc <sys_dram_init+0x1e4>
818010d0:	e5912024 	ldr	r2, [r1, #36]	; 0x24
818010d4:	e3120001 	tst	r2, #1
818010d8:	1afffffa 	bne	818010c8 <sys_dram_init+0x1d0>
818010dc:	e5913024 	ldr	r3, [r1, #36]	; 0x24
818010e0:	e2800040 	add	r0, r0, #64	; 0x40
818010e4:	e3130030 	tst	r3, #48	; 0x30
818010e8:	128cc001 	addne	ip, ip, #1
818010ec:	e3500c02 	cmp	r0, #512	; 0x200
818010f0:	1affffeb 	bne	818010a4 <sys_dram_init+0x1ac>
818010f4:	e59f3478 	ldr	r3, [pc, #1144]	; 81801574 <sys_dram_init+0x67c>
818010f8:	e59f1474 	ldr	r1, [pc, #1140]	; 81801574 <sys_dram_init+0x67c>
818010fc:	e5933ac4 	ldr	r3, [r3, #2756]	; 0xac4
81801100:	e59f2484 	ldr	r2, [pc, #1156]	; 8180158c <sys_dram_init+0x694>
81801104:	e35c0008 	cmp	ip, #8
81801108:	13833801 	orrne	r3, r3, #65536	; 0x10000
8180110c:	03c33801 	biceq	r3, r3, #65536	; 0x10000
81801110:	13a00001 	movne	r0, #1
81801114:	03a00000 	moveq	r0, #0
81801118:	e5cd0018 	strb	r0, [sp, #24]
8180111c:	e5813ac4 	str	r3, [r1, #2756]	; 0xac4
81801120:	e5922000 	ldr	r2, [r2]
81801124:	e59d3008 	ldr	r3, [sp, #8]
81801128:	e1a022a2 	lsr	r2, r2, #5
8180112c:	e202200f 	and	r2, r2, #15
81801130:	e352000c 	cmp	r2, #12
81801134:	0a0000bc 	beq	8180142c <sys_dram_init+0x534>
81801138:	e352000b 	cmp	r2, #11
8180113c:	0a0000cb 	beq	81801470 <sys_dram_init+0x578>
81801140:	e3a03000 	mov	r3, #0
81801144:	e59f2440 	ldr	r2, [pc, #1088]	; 8180158c <sys_dram_init+0x694>
81801148:	e28d101c 	add	r1, sp, #28
8180114c:	e5823010 	str	r3, [r2, #16]
81801150:	ebfffef7 	bl	81800d34 <dram_scan_readpipe.isra.1>
81801154:	e59d3014 	ldr	r3, [sp, #20]
81801158:	e59de028 	ldr	lr, [sp, #40]	; 0x28
8180115c:	e5dd0018 	ldrb	r0, [sp, #24]
81801160:	e59dc010 	ldr	ip, [sp, #16]
81801164:	e59d400c 	ldr	r4, [sp, #12]
81801168:	e3a0100a 	mov	r1, #10
8180116c:	e58d1020 	str	r1, [sp, #32]
81801170:	e3833d4e 	orr	r3, r3, #4992	; 0x1380
81801174:	e59d101c 	ldr	r1, [sp, #28]
81801178:	e1a0e12e 	lsr	lr, lr, #2
8180117c:	e3833002 	orr	r3, r3, #2
81801180:	e3500000 	cmp	r0, #0
81801184:	e1a0c0ac 	lsr	ip, ip, #1
81801188:	e1a0e18e 	lsl	lr, lr, #3
8180118c:	e1833784 	orr	r3, r3, r4, lsl #15
81801190:	e3a0200d 	mov	r2, #13
81801194:	11a01221 	lsrne	r1, r1, #4
81801198:	e1a0c20c 	lsl	ip, ip, #4
8180119c:	e183300e 	orr	r3, r3, lr
818011a0:	e58d2024 	str	r2, [sp, #36]	; 0x24
818011a4:	11a01211 	lslne	r1, r1, r2
818011a8:	01a012a1 	lsreq	r1, r1, #5
818011ac:	e59f23d8 	ldr	r2, [pc, #984]	; 8180158c <sys_dram_init+0x694>
818011b0:	e183300c 	orr	r3, r3, ip
818011b4:	01a01681 	lsleq	r1, r1, #13
818011b8:	e1833800 	orr	r3, r3, r0, lsl #16
818011bc:	e1833001 	orr	r3, r3, r1
818011c0:	e5823000 	str	r3, [r2]
818011c4:	e592300c 	ldr	r3, [r2, #12]
818011c8:	e1a01002 	mov	r1, r2
818011cc:	e3833702 	orr	r3, r3, #524288	; 0x80000
818011d0:	e582300c 	str	r3, [r2, #12]
818011d4:	e592c00c 	ldr	ip, [r2, #12]
818011d8:	e3e034ff 	mvn	r3, #-16777216	; 0xff000000
818011dc:	e38cc001 	orr	ip, ip, #1
818011e0:	e582c00c 	str	ip, [r2, #12]
818011e4:	ea000001 	b	818011f0 <sys_dram_init+0x2f8>
818011e8:	e2533001 	subs	r3, r3, #1
818011ec:	0a000002 	beq	818011fc <sys_dram_init+0x304>
818011f0:	e591200c 	ldr	r2, [r1, #12]
818011f4:	e3120001 	tst	r2, #1
818011f8:	1afffffa 	bne	818011e8 <sys_dram_init+0x2f0>
818011fc:	e28d101c 	add	r1, sp, #28
81801200:	ebfffecb 	bl	81800d34 <dram_scan_readpipe.isra.1>
81801204:	e59f338c 	ldr	r3, [pc, #908]	; 81801598 <sys_dram_init+0x6a0>
81801208:	e59f038c 	ldr	r0, [pc, #908]	; 8180159c <sys_dram_init+0x6a4>
8180120c:	e59f138c 	ldr	r1, [pc, #908]	; 818015a0 <sys_dram_init+0x6a8>
81801210:	e59f238c 	ldr	r2, [pc, #908]	; 818015a4 <sys_dram_init+0x6ac>
81801214:	e5830000 	str	r0, [r3]
81801218:	e5831400 	str	r1, [r3, #1024]	; 0x400
8180121c:	e2833001 	add	r3, r3, #1
81801220:	e1530002 	cmp	r3, r2
81801224:	1afffffa 	bne	81801214 <sys_dram_init+0x31c>
81801228:	e59f3368 	ldr	r3, [pc, #872]	; 81801598 <sys_dram_init+0x6a0>
8180122c:	e59f036c 	ldr	r0, [pc, #876]	; 818015a0 <sys_dram_init+0x6a8>
81801230:	e59f136c 	ldr	r1, [pc, #876]	; 818015a4 <sys_dram_init+0x6ac>
81801234:	e3a0c000 	mov	ip, #0
81801238:	e5932000 	ldr	r2, [r3]
8180123c:	e2833001 	add	r3, r3, #1
81801240:	e1520000 	cmp	r2, r0
81801244:	028cc001 	addeq	ip, ip, #1
81801248:	e1530001 	cmp	r3, r1
8180124c:	1afffff9 	bne	81801238 <sys_dram_init+0x340>
81801250:	e35c0020 	cmp	ip, #32
81801254:	0a00006b 	beq	81801408 <sys_dram_init+0x510>
81801258:	e3a0300d 	mov	r3, #13
8180125c:	e3a0400a 	mov	r4, #10
81801260:	e1a0000d 	mov	r0, sp
81801264:	e58d4020 	str	r4, [sp, #32]
81801268:	e58d3024 	str	r3, [sp, #36]	; 0x24
8180126c:	ebfffe80 	bl	81800c74 <dram_para_setup>
81801270:	e59f1330 	ldr	r1, [pc, #816]	; 818015a8 <sys_dram_init+0x6b0>
81801274:	e59f2330 	ldr	r2, [pc, #816]	; 818015ac <sys_dram_init+0x6b4>
81801278:	e59fe330 	ldr	lr, [pc, #816]	; 818015b0 <sys_dram_init+0x6b8>
8180127c:	e59fc330 	ldr	ip, [pc, #816]	; 818015b4 <sys_dram_init+0x6bc>
81801280:	e0411002 	sub	r1, r1, r2
81801284:	e2820020 	add	r0, r2, #32
81801288:	e1a03002 	mov	r3, r2
8180128c:	e583e000 	str	lr, [r3]
81801290:	e781c003 	str	ip, [r1, r3]
81801294:	e2833001 	add	r3, r3, #1
81801298:	e1530000 	cmp	r3, r0
8180129c:	1afffffa 	bne	8180128c <sys_dram_init+0x394>
818012a0:	e59f030c 	ldr	r0, [pc, #780]	; 818015b4 <sys_dram_init+0x6bc>
818012a4:	e3a0c000 	mov	ip, #0
818012a8:	e5921000 	ldr	r1, [r2]
818012ac:	e2822001 	add	r2, r2, #1
818012b0:	e1510000 	cmp	r1, r0
818012b4:	028cc001 	addeq	ip, ip, #1
818012b8:	e1530002 	cmp	r3, r2
818012bc:	1afffff9 	bne	818012a8 <sys_dram_init+0x3b0>
818012c0:	e35c0020 	cmp	ip, #32
818012c4:	0a00002a 	beq	81801374 <sys_dram_init+0x47c>
818012c8:	e3a0300d 	mov	r3, #13
818012cc:	e354000a 	cmp	r4, #10
818012d0:	e58d3024 	str	r3, [sp, #36]	; 0x24
818012d4:	13a03020 	movne	r3, #32
818012d8:	e58d4020 	str	r4, [sp, #32]
818012dc:	158d3004 	strne	r3, [sp, #4]
818012e0:	0a0000a0 	beq	81801568 <sys_dram_init+0x670>
818012e4:	e59f22a0 	ldr	r2, [pc, #672]	; 8180158c <sys_dram_init+0x694>
818012e8:	e59d3008 	ldr	r3, [sp, #8]
818012ec:	e5922000 	ldr	r2, [r2]
818012f0:	e1a022a2 	lsr	r2, r2, #5
818012f4:	e202200f 	and	r2, r2, #15
818012f8:	e352000c 	cmp	r2, #12
818012fc:	0a000030 	beq	818013c4 <sys_dram_init+0x4cc>
81801300:	e352000b 	cmp	r2, #11
81801304:	0a00006b 	beq	818014b8 <sys_dram_init+0x5c0>
81801308:	e3a03000 	mov	r3, #0
8180130c:	e59f2278 	ldr	r2, [pc, #632]	; 8180158c <sys_dram_init+0x694>
81801310:	e3a04000 	mov	r4, #0
81801314:	e5823010 	str	r3, [r2, #16]
81801318:	e1a0000d 	mov	r0, sp
8180131c:	e58d400c 	str	r4, [sp, #12]
81801320:	ebfffe53 	bl	81800c74 <dram_para_setup>
81801324:	e1a03004 	mov	r3, r4
81801328:	e59d2000 	ldr	r2, [sp]
8180132c:	e0831002 	add	r1, r3, r2
81801330:	e7831002 	str	r1, [r3, r2]
81801334:	e2833004 	add	r3, r3, #4
81801338:	e3530c02 	cmp	r3, #512	; 0x200
8180133c:	1afffff9 	bne	81801328 <sys_dram_init+0x430>
81801340:	e59d3000 	ldr	r3, [sp]
81801344:	e2831c02 	add	r1, r3, #512	; 0x200
81801348:	e5932000 	ldr	r2, [r3]
8180134c:	e1520003 	cmp	r2, r3
81801350:	e2833004 	add	r3, r3, #4
81801354:	1affff01 	bne	81800f60 <sys_dram_init+0x68>
81801358:	e1530001 	cmp	r3, r1
8180135c:	1afffff9 	bne	81801348 <sys_dram_init+0x450>
81801360:	e59d3004 	ldr	r3, [sp, #4]
81801364:	e3a02000 	mov	r2, #0
81801368:	e3833316 	orr	r3, r3, #1476395008	; 0x58000000
8180136c:	e582305c 	str	r3, [r2, #92]	; 0x5c
81801370:	eafffefa 	b	81800f60 <sys_dram_init+0x68>
81801374:	e3a0200c 	mov	r2, #12
81801378:	e3a03010 	mov	r3, #16
8180137c:	e58d4020 	str	r4, [sp, #32]
81801380:	e58d2024 	str	r2, [sp, #36]	; 0x24
81801384:	e58d3004 	str	r3, [sp, #4]
81801388:	eaffffd5 	b	818012e4 <sys_dram_init+0x3ec>
8180138c:	e3120020 	tst	r2, #32
81801390:	1a000006 	bne	818013b0 <sys_dram_init+0x4b8>
81801394:	e3120040 	tst	r2, #64	; 0x40
81801398:	0a000067 	beq	8180153c <sys_dram_init+0x644>
8180139c:	e59f21d0 	ldr	r2, [pc, #464]	; 81801574 <sys_dram_init+0x67c>
818013a0:	e59f1210 	ldr	r1, [pc, #528]	; 818015b8 <sys_dram_init+0x6c0>
818013a4:	e5821290 	str	r1, [r2, #656]	; 0x290
818013a8:	e59d202c 	ldr	r2, [sp, #44]	; 0x2c
818013ac:	eaffff18 	b	81801014 <sys_dram_init+0x11c>
818013b0:	e59f21bc 	ldr	r2, [pc, #444]	; 81801574 <sys_dram_init+0x67c>
818013b4:	e59f1200 	ldr	r1, [pc, #512]	; 818015bc <sys_dram_init+0x6c4>
818013b8:	e5821290 	str	r1, [r2, #656]	; 0x290
818013bc:	e59d202c 	ldr	r2, [sp, #44]	; 0x2c
818013c0:	eaffff13 	b	81801014 <sys_dram_init+0x11c>
818013c4:	e59f21f4 	ldr	r2, [pc, #500]	; 818015c0 <sys_dram_init+0x6c8>
818013c8:	e1530002 	cmp	r3, r2
818013cc:	9a000050 	bls	81801514 <sys_dram_init+0x61c>
818013d0:	e1a02223 	lsr	r2, r3, #4
818013d4:	e08221a3 	add	r2, r2, r3, lsr #3
818013d8:	e59f11e4 	ldr	r1, [pc, #484]	; 818015c4 <sys_dram_init+0x6cc>
818013dc:	e0822003 	add	r2, r2, r3
818013e0:	e08222a3 	add	r2, r2, r3, lsr #5
818013e4:	e1520001 	cmp	r2, r1
818013e8:	9affffc6 	bls	81801308 <sys_dram_init+0x410>
818013ec:	e59f01d4 	ldr	r0, [pc, #468]	; 818015c8 <sys_dram_init+0x6d0>
818013f0:	e3a03000 	mov	r3, #0
818013f4:	e0822000 	add	r2, r2, r0
818013f8:	e1520001 	cmp	r2, r1
818013fc:	e2833001 	add	r3, r3, #1
81801400:	8afffffb 	bhi	818013f4 <sys_dram_init+0x4fc>
81801404:	eaffffc0 	b	8180130c <sys_dram_init+0x414>
81801408:	e3a0300d 	mov	r3, #13
8180140c:	e3a04009 	mov	r4, #9
81801410:	e1a0000d 	mov	r0, sp
81801414:	e58d4020 	str	r4, [sp, #32]
81801418:	e58d3024 	str	r3, [sp, #36]	; 0x24
8180141c:	ebfffe14 	bl	81800c74 <dram_para_setup>
81801420:	e59f11a4 	ldr	r1, [pc, #420]	; 818015cc <sys_dram_init+0x6d4>
81801424:	e59f21a4 	ldr	r2, [pc, #420]	; 818015d0 <sys_dram_init+0x6d8>
81801428:	eaffff92 	b	81801278 <sys_dram_init+0x380>
8180142c:	e59f218c 	ldr	r2, [pc, #396]	; 818015c0 <sys_dram_init+0x6c8>
81801430:	e1530002 	cmp	r3, r2
81801434:	9a000031 	bls	81801500 <sys_dram_init+0x608>
81801438:	e1a02223 	lsr	r2, r3, #4
8180143c:	e08221a3 	add	r2, r2, r3, lsr #3
81801440:	e59f117c 	ldr	r1, [pc, #380]	; 818015c4 <sys_dram_init+0x6cc>
81801444:	e0822003 	add	r2, r2, r3
81801448:	e08222a3 	add	r2, r2, r3, lsr #5
8180144c:	e1520001 	cmp	r2, r1
81801450:	9affff3a 	bls	81801140 <sys_dram_init+0x248>
81801454:	e59fc16c 	ldr	ip, [pc, #364]	; 818015c8 <sys_dram_init+0x6d0>
81801458:	e3a03000 	mov	r3, #0
8180145c:	e082200c 	add	r2, r2, ip
81801460:	e1520001 	cmp	r2, r1
81801464:	e2833001 	add	r3, r3, #1
81801468:	8afffffb 	bhi	8180145c <sys_dram_init+0x564>
8180146c:	eaffff34 	b	81801144 <sys_dram_init+0x24c>
81801470:	e282293d 	add	r2, r2, #999424	; 0xf4000
81801474:	e2822f8d 	add	r2, r2, #564	; 0x234
81801478:	e1530002 	cmp	r3, r2
8180147c:	9a000034 	bls	81801554 <sys_dram_init+0x65c>
81801480:	e1a02223 	lsr	r2, r3, #4
81801484:	e08221a3 	add	r2, r2, r3, lsr #3
81801488:	e59f1144 	ldr	r1, [pc, #324]	; 818015d4 <sys_dram_init+0x6dc>
8180148c:	e0822003 	add	r2, r2, r3
81801490:	e08222a3 	add	r2, r2, r3, lsr #5
81801494:	e1520001 	cmp	r2, r1
81801498:	9affff28 	bls	81801140 <sys_dram_init+0x248>
8180149c:	e59fc134 	ldr	ip, [pc, #308]	; 818015d8 <sys_dram_init+0x6e0>
818014a0:	e3a03000 	mov	r3, #0
818014a4:	e082200c 	add	r2, r2, ip
818014a8:	e1520001 	cmp	r2, r1
818014ac:	e2833001 	add	r3, r3, #1
818014b0:	8afffffb 	bhi	818014a4 <sys_dram_init+0x5ac>
818014b4:	eaffff22 	b	81801144 <sys_dram_init+0x24c>
818014b8:	e282293d 	add	r2, r2, #999424	; 0xf4000
818014bc:	e2822f8d 	add	r2, r2, #564	; 0x234
818014c0:	e1530002 	cmp	r3, r2
818014c4:	9a000017 	bls	81801528 <sys_dram_init+0x630>
818014c8:	e1a02223 	lsr	r2, r3, #4
818014cc:	e08221a3 	add	r2, r2, r3, lsr #3
818014d0:	e59f10fc 	ldr	r1, [pc, #252]	; 818015d4 <sys_dram_init+0x6dc>
818014d4:	e0822003 	add	r2, r2, r3
818014d8:	e08222a3 	add	r2, r2, r3, lsr #5
818014dc:	e1520001 	cmp	r2, r1
818014e0:	9affff88 	bls	81801308 <sys_dram_init+0x410>
818014e4:	e59f00ec 	ldr	r0, [pc, #236]	; 818015d8 <sys_dram_init+0x6e0>
818014e8:	e3a03000 	mov	r3, #0
818014ec:	e0822000 	add	r2, r2, r0
818014f0:	e1520001 	cmp	r2, r1
818014f4:	e2833001 	add	r3, r3, #1
818014f8:	8afffffb 	bhi	818014ec <sys_dram_init+0x5f4>
818014fc:	eaffff82 	b	8180130c <sys_dram_init+0x414>
81801500:	e0632283 	rsb	r2, r3, r3, lsl #5
81801504:	e0832182 	add	r2, r3, r2, lsl #3
81801508:	e0833082 	add	r3, r3, r2, lsl #1
8180150c:	e1a03323 	lsr	r3, r3, #6
81801510:	eaffff0b 	b	81801144 <sys_dram_init+0x24c>
81801514:	e0632283 	rsb	r2, r3, r3, lsl #5
81801518:	e0832182 	add	r2, r3, r2, lsl #3
8180151c:	e0833082 	add	r3, r3, r2, lsl #1
81801520:	e1a03323 	lsr	r3, r3, #6
81801524:	eaffff78 	b	8180130c <sys_dram_init+0x414>
81801528:	e0632283 	rsb	r2, r3, r3, lsl #5
8180152c:	e0832182 	add	r2, r3, r2, lsl #3
81801530:	e0833082 	add	r3, r3, r2, lsl #1
81801534:	e1a032a3 	lsr	r3, r3, #5
81801538:	eaffff73 	b	8180130c <sys_dram_init+0x414>
8180153c:	e3120080 	tst	r2, #128	; 0x80
81801540:	159f202c 	ldrne	r2, [pc, #44]	; 81801574 <sys_dram_init+0x67c>
81801544:	159f1090 	ldrne	r1, [pc, #144]	; 818015dc <sys_dram_init+0x6e4>
81801548:	15821290 	strne	r1, [r2, #656]	; 0x290
8180154c:	159d202c 	ldrne	r2, [sp, #44]	; 0x2c
81801550:	eafffeaf 	b	81801014 <sys_dram_init+0x11c>
81801554:	e0632283 	rsb	r2, r3, r3, lsl #5
81801558:	e0832182 	add	r2, r3, r2, lsl #3
8180155c:	e0833082 	add	r3, r3, r2, lsl #1
81801560:	e1a032a3 	lsr	r3, r3, #5
81801564:	eafffef6 	b	81801144 <sys_dram_init+0x24c>
81801568:	e3a03040 	mov	r3, #64	; 0x40
8180156c:	e58d3004 	str	r3, [sp, #4]
81801570:	eaffff5b 	b	818012e4 <sys_dram_init+0x3ec>
81801574:	01c20000 	biceq	r0, r2, r0
81801578:	00002710 	andeq	r2, r0, r0, lsl r7
8180157c:	00000aaa 	andeq	r0, r0, sl, lsr #21
81801580:	00000fff 	strdeq	r0, [r0], -pc	; <UNPREDICTABLE>
81801584:	aaaaaaab 	bge	802ac038 <STACK_SRV_SIZE+0x8026c038>
81801588:	d1303333 	teqle	r0, r3, lsr r3
8180158c:	01c01000 	biceq	r1, r0, r0
81801590:	b7ceedc2 	strblt	lr, [lr, r2, asr #27]
81801594:	00a70008 	adceq	r0, r7, r8
81801598:	80000200 	andhi	r0, r0, r0, lsl #4
8180159c:	11111111 	tstne	r1, r1, lsl r1
818015a0:	22222222 	eorcs	r2, r2, #536870914	; 0x20000002
818015a4:	80000220 	andhi	r0, r0, r0, lsr #4
818015a8:	80c00000 	sbchi	r0, r0, r0
818015ac:	80400000 	subhi	r0, r0, r0
818015b0:	33333333 	teqcc	r3, #-872415232	; 0xcc000000
818015b4:	44444444 	strbmi	r4, [r4], #-1092	; 0xfffffbbc
818015b8:	c8909999 	ldmgt	r0, {r0, r3, r4, r7, r8, fp, ip, pc}
818015bc:	cce06666 	stclgt	6, cr6, [r0], #408	; 0x198
818015c0:	000f423f 	andeq	r4, pc, pc, lsr r2	; <UNPREDICTABLE>
818015c4:	00026259 	andeq	r6, r2, r9, asr r2
818015c8:	fffd9da6 			; <UNDEFINED> instruction: 0xfffd9da6
818015cc:	80600000 	rsbhi	r0, r0, r0
818015d0:	80200000 	eorhi	r0, r0, r0
818015d4:	0001312c 	andeq	r3, r1, ip, lsr #2
818015d8:	fffeced3 			; <UNDEFINED> instruction: 0xfffeced3
818015dc:	c440cccc 	strbgt	ip, [r0], #-3276	; 0xfffff334

818015e0 <sys_spinor_init>:
818015e0:	e59f30a4 	ldr	r3, [pc, #164]	; 8180168c <sys_spinor_init+0xac>
818015e4:	e59f00a4 	ldr	r0, [pc, #164]	; 81801690 <sys_spinor_init+0xb0>
818015e8:	e5932848 	ldr	r2, [r3, #2120]	; 0x848
818015ec:	e59fc0a0 	ldr	ip, [pc, #160]	; 81801694 <sys_spinor_init+0xb4>
818015f0:	e3c2200f 	bic	r2, r2, #15
818015f4:	e3822002 	orr	r2, r2, #2
818015f8:	e5832848 	str	r2, [r3, #2120]	; 0x848
818015fc:	e5931848 	ldr	r1, [r3, #2120]	; 0x848
81801600:	e1a02000 	mov	r2, r0
81801604:	e3c110f0 	bic	r1, r1, #240	; 0xf0
81801608:	e3811020 	orr	r1, r1, #32
8180160c:	e5831848 	str	r1, [r3, #2120]	; 0x848
81801610:	e5931848 	ldr	r1, [r3, #2120]	; 0x848
81801614:	e3c11c0f 	bic	r1, r1, #3840	; 0xf00
81801618:	e3811c02 	orr	r1, r1, #512	; 0x200
8180161c:	e5831848 	str	r1, [r3, #2120]	; 0x848
81801620:	e5931848 	ldr	r1, [r3, #2120]	; 0x848
81801624:	e3c11a0f 	bic	r1, r1, #61440	; 0xf000
81801628:	e3811a02 	orr	r1, r1, #8192	; 0x2000
8180162c:	e5831848 	str	r1, [r3, #2120]	; 0x848
81801630:	e59312c0 	ldr	r1, [r3, #704]	; 0x2c0
81801634:	e3811601 	orr	r1, r1, #1048576	; 0x100000
81801638:	e58312c0 	str	r1, [r3, #704]	; 0x2c0
8180163c:	e5931060 	ldr	r1, [r3, #96]	; 0x60
81801640:	e3811601 	orr	r1, r1, #1048576	; 0x100000
81801644:	e5831060 	str	r1, [r3, #96]	; 0x60
81801648:	e580c024 	str	ip, [r0, #36]	; 0x24
8180164c:	e5903004 	ldr	r3, [r0, #4]
81801650:	e3833102 	orr	r3, r3, #-2147483648	; 0x80000000
81801654:	e3833083 	orr	r3, r3, #131	; 0x83
81801658:	e5803004 	str	r3, [r0, #4]
8180165c:	e5923004 	ldr	r3, [r2, #4]
81801660:	e3530000 	cmp	r3, #0
81801664:	bafffffc 	blt	8180165c <sys_spinor_init+0x7c>
81801668:	e5923008 	ldr	r3, [r2, #8]
8180166c:	e3c33003 	bic	r3, r3, #3
81801670:	e3833044 	orr	r3, r3, #68	; 0x44
81801674:	e5823008 	str	r3, [r2, #8]
81801678:	e5923018 	ldr	r3, [r2, #24]
8180167c:	e3833102 	orr	r3, r3, #-2147483648	; 0x80000000
81801680:	e3833902 	orr	r3, r3, #32768	; 0x8000
81801684:	e5823018 	str	r3, [r2, #24]
81801688:	e12fff1e 	bx	lr
8180168c:	01c20000 	biceq	r0, r2, r0
81801690:	01c05000 	biceq	r5, r0, r0
81801694:	00001001 	andeq	r1, r0, r1

81801698 <sys_spinor_exit>:
81801698:	e59f200c 	ldr	r2, [pc, #12]	; 818016ac <sys_spinor_exit+0x14>
8180169c:	e5923004 	ldr	r3, [r2, #4]
818016a0:	e3c33003 	bic	r3, r3, #3
818016a4:	e5823004 	str	r3, [r2, #4]
818016a8:	e12fff1e 	bx	lr
818016ac:	01c05000 	biceq	r5, r0, r0

818016b0 <sys_spinor_read>:
818016b0:	e59f3184 	ldr	r3, [pc, #388]	; 8180183c <sys_spinor_read+0x18c>
818016b4:	e92d4070 	push	{r4, r5, r6, lr}
818016b8:	e24dd008 	sub	sp, sp, #8
818016bc:	e5cd0007 	strb	r0, [sp, #7]
818016c0:	e1a0e840 	asr	lr, r0, #16
818016c4:	e1a0c440 	asr	ip, r0, #8
818016c8:	e3a00003 	mov	r0, #3
818016cc:	e5cde005 	strb	lr, [sp, #5]
818016d0:	e5cd0004 	strb	r0, [sp, #4]
818016d4:	e5cdc006 	strb	ip, [sp, #6]
818016d8:	e593c008 	ldr	ip, [r3, #8]
818016dc:	e3a00004 	mov	r0, #4
818016e0:	e3ccc0b0 	bic	ip, ip, #176	; 0xb0
818016e4:	e583c008 	str	ip, [r3, #8]
818016e8:	e5830030 	str	r0, [r3, #48]	; 0x30
818016ec:	e59fc14c 	ldr	ip, [pc, #332]	; 81801840 <sys_spinor_read+0x190>
818016f0:	e5830034 	str	r0, [r3, #52]	; 0x34
818016f4:	e5830038 	str	r0, [r3, #56]	; 0x38
818016f8:	e5dd0004 	ldrb	r0, [sp, #4]
818016fc:	e5cc0000 	strb	r0, [ip]
81801700:	e5dd0005 	ldrb	r0, [sp, #5]
81801704:	e5cc0000 	strb	r0, [ip]
81801708:	e5dde006 	ldrb	lr, [sp, #6]
8180170c:	e1a00003 	mov	r0, r3
81801710:	e5cce000 	strb	lr, [ip]
81801714:	e5dde007 	ldrb	lr, [sp, #7]
81801718:	e5cce000 	strb	lr, [ip]
8180171c:	e593c008 	ldr	ip, [r3, #8]
81801720:	e38cc102 	orr	ip, ip, #-2147483648	; 0x80000000
81801724:	e583c008 	str	ip, [r3, #8]
81801728:	e590301c 	ldr	r3, [r0, #28]
8180172c:	e20330ff 	and	r3, r3, #255	; 0xff
81801730:	e3530003 	cmp	r3, #3
81801734:	9afffffb 	bls	81801728 <sys_spinor_read+0x78>
81801738:	e59fe104 	ldr	lr, [pc, #260]	; 81801844 <sys_spinor_read+0x194>
8180173c:	e3520000 	cmp	r2, #0
81801740:	e5de3000 	ldrb	r3, [lr]
81801744:	e5de3000 	ldrb	r3, [lr]
81801748:	e5de3000 	ldrb	r3, [lr]
8180174c:	e5de3000 	ldrb	r3, [lr]
81801750:	da000023 	ble	818017e4 <sys_spinor_read+0x134>
81801754:	e59f40e0 	ldr	r4, [pc, #224]	; 8180183c <sys_spinor_read+0x18c>
81801758:	e59f50e0 	ldr	r5, [pc, #224]	; 81801840 <sys_spinor_read+0x190>
8180175c:	e3e06000 	mvn	r6, #0
81801760:	e3520040 	cmp	r2, #64	; 0x40
81801764:	b1a0c002 	movlt	ip, r2
81801768:	a3a0c040 	movge	ip, #64	; 0x40
8180176c:	e3a00000 	mov	r0, #0
81801770:	e1a03006 	mov	r3, r6
81801774:	e584c030 	str	ip, [r4, #48]	; 0x30
81801778:	e584c034 	str	ip, [r4, #52]	; 0x34
8180177c:	e584c038 	str	ip, [r4, #56]	; 0x38
81801780:	e2800001 	add	r0, r0, #1
81801784:	e15c0000 	cmp	ip, r0
81801788:	e5c53000 	strb	r3, [r5]
8180178c:	1afffffb 	bne	81801780 <sys_spinor_read+0xd0>
81801790:	e5943008 	ldr	r3, [r4, #8]
81801794:	e3833102 	orr	r3, r3, #-2147483648	; 0x80000000
81801798:	e5843008 	str	r3, [r4, #8]
8180179c:	e594301c 	ldr	r3, [r4, #28]
818017a0:	e20330ff 	and	r3, r3, #255	; 0xff
818017a4:	e15c0003 	cmp	ip, r3
818017a8:	8afffffb 	bhi	8180179c <sys_spinor_read+0xec>
818017ac:	e3a03000 	mov	r3, #0
818017b0:	e5dec000 	ldrb	ip, [lr]
818017b4:	e3510000 	cmp	r1, #0
818017b8:	e2833001 	add	r3, r3, #1
818017bc:	e20cc0ff 	and	ip, ip, #255	; 0xff
818017c0:	0a00000e 	beq	81801800 <sys_spinor_read+0x150>
818017c4:	e5c1c000 	strb	ip, [r1]
818017c8:	e1530000 	cmp	r3, r0
818017cc:	e281c001 	add	ip, r1, #1
818017d0:	e1a0100c 	mov	r1, ip
818017d4:	bafffff5 	blt	818017b0 <sys_spinor_read+0x100>
818017d8:	e0422000 	sub	r2, r2, r0
818017dc:	e3520000 	cmp	r2, #0
818017e0:	caffffde 	bgt	81801760 <sys_spinor_read+0xb0>
818017e4:	e59f2050 	ldr	r2, [pc, #80]	; 8180183c <sys_spinor_read+0x18c>
818017e8:	e5923008 	ldr	r3, [r2, #8]
818017ec:	e3c330b0 	bic	r3, r3, #176	; 0xb0
818017f0:	e3833080 	orr	r3, r3, #128	; 0x80
818017f4:	e5823008 	str	r3, [r2, #8]
818017f8:	e28dd008 	add	sp, sp, #8
818017fc:	e8bd8070 	pop	{r4, r5, r6, pc}
81801800:	e1500003 	cmp	r0, r3
81801804:	e283c001 	add	ip, r3, #1
81801808:	dafffff2 	ble	818017d8 <sys_spinor_read+0x128>
8180180c:	e15c0000 	cmp	ip, r0
81801810:	e5dec000 	ldrb	ip, [lr]
81801814:	aaffffef 	bge	818017d8 <sys_spinor_read+0x128>
81801818:	e2833002 	add	r3, r3, #2
8180181c:	e1500003 	cmp	r0, r3
81801820:	e5dec000 	ldrb	ip, [lr]
81801824:	e283c001 	add	ip, r3, #1
81801828:	cafffff7 	bgt	8180180c <sys_spinor_read+0x15c>
8180182c:	e0422000 	sub	r2, r2, r0
81801830:	e3520000 	cmp	r2, #0
81801834:	caffffc9 	bgt	81801760 <sys_spinor_read+0xb0>
81801838:	eaffffe9 	b	818017e4 <sys_spinor_read+0x134>
8180183c:	01c05000 	biceq	r5, r0, r0
81801840:	01c05200 	biceq	r5, r0, r0, lsl #4
81801844:	01c05300 	biceq	r5, r0, r0, lsl #6

81801848 <sys_copyself>:
81801848:	e92d4070 	push	{r4, r5, r6, lr}
8180184c:	e59f5048 	ldr	r5, [pc, #72]	; 8180189c <sys_copyself+0x54>
81801850:	e3a00053 	mov	r0, #83	; 0x53
81801854:	ebfffb6c 	bl	8180060c <sys_uart_putc>
81801858:	e59f4040 	ldr	r4, [pc, #64]	; 818018a0 <sys_copyself+0x58>
8180185c:	e3a00050 	mov	r0, #80	; 0x50
81801860:	ebfffb69 	bl	8180060c <sys_uart_putc>
81801864:	e3a00049 	mov	r0, #73	; 0x49
81801868:	ebfffb67 	bl	8180060c <sys_uart_putc>
8180186c:	e3a0000d 	mov	r0, #13
81801870:	ebfffb65 	bl	8180060c <sys_uart_putc>
81801874:	e0444005 	sub	r4, r4, r5
81801878:	e3a0000a 	mov	r0, #10
8180187c:	ebfffb62 	bl	8180060c <sys_uart_putc>
81801880:	ebffff56 	bl	818015e0 <sys_spinor_init>
81801884:	e1a02004 	mov	r2, r4
81801888:	e1a01005 	mov	r1, r5
8180188c:	e3a00000 	mov	r0, #0
81801890:	ebffff86 	bl	818016b0 <sys_spinor_read>
81801894:	e8bd4070 	pop	{r4, r5, r6, lr}
81801898:	eaffff7e 	b	81801698 <sys_spinor_exit>
8180189c:	81800000 	orrhi	r0, r0, r0
818018a0:	81801c08 	orrhi	r1, r0, r8, lsl #24

818018a4 <mmu_setup>:
818018a4:	e12fff1e 	bx	lr

818018a8 <mmu_enable>:
818018a8:	e12fff1e 	bx	lr

818018ac <arm32_do_undefined_instruction>:
818018ac:	e92d41f0 	push	{r4, r5, r6, r7, r8, lr}
818018b0:	e5903004 	ldr	r3, [r0, #4]
818018b4:	e1a07000 	mov	r7, r0
818018b8:	e5902040 	ldr	r2, [r0, #64]	; 0x40
818018bc:	e5901044 	ldr	r1, [r0, #68]	; 0x44
818018c0:	e1a05007 	mov	r5, r7
818018c4:	e59f006c 	ldr	r0, [pc, #108]	; 81801938 <arm32_do_undefined_instruction+0x8c>
818018c8:	ebfffb63 	bl	8180065c <printf>
818018cc:	e5b5103c 	ldr	r1, [r5, #60]!	; 0x3c
818018d0:	e5972000 	ldr	r2, [r7]
818018d4:	e59f0060 	ldr	r0, [pc, #96]	; 8180193c <arm32_do_undefined_instruction+0x90>
818018d8:	ebfffb5f 	bl	8180065c <printf>
818018dc:	e59f605c 	ldr	r6, [pc, #92]	; 81801940 <arm32_do_undefined_instruction+0x94>
818018e0:	e59f805c 	ldr	r8, [pc, #92]	; 81801944 <arm32_do_undefined_instruction+0x98>
818018e4:	e3a0400c 	mov	r4, #12
818018e8:	ea000001 	b	818018f4 <arm32_do_undefined_instruction+0x48>
818018ec:	e3740001 	cmn	r4, #1
818018f0:	0a00000a 	beq	81801920 <arm32_do_undefined_instruction+0x74>
818018f4:	e1a01004 	mov	r1, r4
818018f8:	e5352004 	ldr	r2, [r5, #-4]!
818018fc:	e1a00006 	mov	r0, r6
81801900:	ebfffb55 	bl	8180065c <printf>
81801904:	e3140001 	tst	r4, #1
81801908:	e2444001 	sub	r4, r4, #1
8180190c:	1afffff6 	bne	818018ec <arm32_do_undefined_instruction+0x40>
81801910:	e1a00008 	mov	r0, r8
81801914:	ebfffb50 	bl	8180065c <printf>
81801918:	e3740001 	cmn	r4, #1
8180191c:	1afffff4 	bne	818018f4 <arm32_do_undefined_instruction+0x48>
81801920:	e59f001c 	ldr	r0, [pc, #28]	; 81801944 <arm32_do_undefined_instruction+0x98>
81801924:	ebfffb4c 	bl	8180065c <printf>
81801928:	e5973044 	ldr	r3, [r7, #68]	; 0x44
8180192c:	e2833004 	add	r3, r3, #4
81801930:	e5873044 	str	r3, [r7, #68]	; 0x44
81801934:	e8bd81f0 	pop	{r4, r5, r6, r7, r8, pc}
81801938:	81801b90 			; <UNDEFINED> instruction: 0x81801b90
8180193c:	81801bbc 			; <UNDEFINED> instruction: 0x81801bbc
81801940:	81801bd8 	ldrdhi	r1, [r0, r8]
81801944:	81801c04 	orrhi	r1, r0, r4, lsl #24

81801948 <arm32_do_software_interrupt>:
81801948:	e92d41f0 	push	{r4, r5, r6, r7, r8, lr}
8180194c:	e5903004 	ldr	r3, [r0, #4]
81801950:	e1a07000 	mov	r7, r0
81801954:	e5902040 	ldr	r2, [r0, #64]	; 0x40
81801958:	e5901044 	ldr	r1, [r0, #68]	; 0x44
8180195c:	e1a05007 	mov	r5, r7
81801960:	e59f006c 	ldr	r0, [pc, #108]	; 818019d4 <arm32_do_software_interrupt+0x8c>
81801964:	ebfffb3c 	bl	8180065c <printf>
81801968:	e5b5103c 	ldr	r1, [r5, #60]!	; 0x3c
8180196c:	e5972000 	ldr	r2, [r7]
81801970:	e59f0060 	ldr	r0, [pc, #96]	; 818019d8 <arm32_do_software_interrupt+0x90>
81801974:	ebfffb38 	bl	8180065c <printf>
81801978:	e59f605c 	ldr	r6, [pc, #92]	; 818019dc <arm32_do_software_interrupt+0x94>
8180197c:	e59f805c 	ldr	r8, [pc, #92]	; 818019e0 <arm32_do_software_interrupt+0x98>
81801980:	e3a0400c 	mov	r4, #12
81801984:	ea000001 	b	81801990 <arm32_do_software_interrupt+0x48>
81801988:	e3740001 	cmn	r4, #1
8180198c:	0a00000a 	beq	818019bc <arm32_do_software_interrupt+0x74>
81801990:	e1a01004 	mov	r1, r4
81801994:	e5352004 	ldr	r2, [r5, #-4]!
81801998:	e1a00006 	mov	r0, r6
8180199c:	ebfffb2e 	bl	8180065c <printf>
818019a0:	e3140001 	tst	r4, #1
818019a4:	e2444001 	sub	r4, r4, #1
818019a8:	1afffff6 	bne	81801988 <arm32_do_software_interrupt+0x40>
818019ac:	e1a00008 	mov	r0, r8
818019b0:	ebfffb29 	bl	8180065c <printf>
818019b4:	e3740001 	cmn	r4, #1
818019b8:	1afffff4 	bne	81801990 <arm32_do_software_interrupt+0x48>
818019bc:	e59f001c 	ldr	r0, [pc, #28]	; 818019e0 <arm32_do_software_interrupt+0x98>
818019c0:	ebfffb25 	bl	8180065c <printf>
818019c4:	e5973044 	ldr	r3, [r7, #68]	; 0x44
818019c8:	e2833004 	add	r3, r3, #4
818019cc:	e5873044 	str	r3, [r7, #68]	; 0x44
818019d0:	e8bd81f0 	pop	{r4, r5, r6, r7, r8, pc}
818019d4:	81801b90 			; <UNDEFINED> instruction: 0x81801b90
818019d8:	81801bbc 			; <UNDEFINED> instruction: 0x81801bbc
818019dc:	81801bd8 	ldrdhi	r1, [r0, r8]
818019e0:	81801c04 	orrhi	r1, r0, r4, lsl #24

818019e4 <arm32_do_prefetch_abort>:
818019e4:	e92d41f0 	push	{r4, r5, r6, r7, r8, lr}
818019e8:	e5903004 	ldr	r3, [r0, #4]
818019ec:	e1a07000 	mov	r7, r0
818019f0:	e5902040 	ldr	r2, [r0, #64]	; 0x40
818019f4:	e5901044 	ldr	r1, [r0, #68]	; 0x44
818019f8:	e1a05007 	mov	r5, r7
818019fc:	e59f006c 	ldr	r0, [pc, #108]	; 81801a70 <arm32_do_prefetch_abort+0x8c>
81801a00:	ebfffb15 	bl	8180065c <printf>
81801a04:	e5b5103c 	ldr	r1, [r5, #60]!	; 0x3c
81801a08:	e5972000 	ldr	r2, [r7]
81801a0c:	e59f0060 	ldr	r0, [pc, #96]	; 81801a74 <arm32_do_prefetch_abort+0x90>
81801a10:	ebfffb11 	bl	8180065c <printf>
81801a14:	e59f605c 	ldr	r6, [pc, #92]	; 81801a78 <arm32_do_prefetch_abort+0x94>
81801a18:	e59f805c 	ldr	r8, [pc, #92]	; 81801a7c <arm32_do_prefetch_abort+0x98>
81801a1c:	e3a0400c 	mov	r4, #12
81801a20:	ea000001 	b	81801a2c <arm32_do_prefetch_abort+0x48>
81801a24:	e3740001 	cmn	r4, #1
81801a28:	0a00000a 	beq	81801a58 <arm32_do_prefetch_abort+0x74>
81801a2c:	e1a01004 	mov	r1, r4
81801a30:	e5352004 	ldr	r2, [r5, #-4]!
81801a34:	e1a00006 	mov	r0, r6
81801a38:	ebfffb07 	bl	8180065c <printf>
81801a3c:	e3140001 	tst	r4, #1
81801a40:	e2444001 	sub	r4, r4, #1
81801a44:	1afffff6 	bne	81801a24 <arm32_do_prefetch_abort+0x40>
81801a48:	e1a00008 	mov	r0, r8
81801a4c:	ebfffb02 	bl	8180065c <printf>
81801a50:	e3740001 	cmn	r4, #1
81801a54:	1afffff4 	bne	81801a2c <arm32_do_prefetch_abort+0x48>
81801a58:	e59f001c 	ldr	r0, [pc, #28]	; 81801a7c <arm32_do_prefetch_abort+0x98>
81801a5c:	ebfffafe 	bl	8180065c <printf>
81801a60:	e5973044 	ldr	r3, [r7, #68]	; 0x44
81801a64:	e2833004 	add	r3, r3, #4
81801a68:	e5873044 	str	r3, [r7, #68]	; 0x44
81801a6c:	e8bd81f0 	pop	{r4, r5, r6, r7, r8, pc}
81801a70:	81801b90 			; <UNDEFINED> instruction: 0x81801b90
81801a74:	81801bbc 			; <UNDEFINED> instruction: 0x81801bbc
81801a78:	81801bd8 	ldrdhi	r1, [r0, r8]
81801a7c:	81801c04 	orrhi	r1, r0, r4, lsl #24

81801a80 <arm32_do_data_abort>:
81801a80:	e92d41f0 	push	{r4, r5, r6, r7, r8, lr}
81801a84:	e5903004 	ldr	r3, [r0, #4]
81801a88:	e1a07000 	mov	r7, r0
81801a8c:	e5902040 	ldr	r2, [r0, #64]	; 0x40
81801a90:	e5901044 	ldr	r1, [r0, #68]	; 0x44
81801a94:	e1a05007 	mov	r5, r7
81801a98:	e59f006c 	ldr	r0, [pc, #108]	; 81801b0c <arm32_do_data_abort+0x8c>
81801a9c:	ebfffaee 	bl	8180065c <printf>
81801aa0:	e5b5103c 	ldr	r1, [r5, #60]!	; 0x3c
81801aa4:	e5972000 	ldr	r2, [r7]
81801aa8:	e59f0060 	ldr	r0, [pc, #96]	; 81801b10 <arm32_do_data_abort+0x90>
81801aac:	ebfffaea 	bl	8180065c <printf>
81801ab0:	e59f605c 	ldr	r6, [pc, #92]	; 81801b14 <arm32_do_data_abort+0x94>
81801ab4:	e59f805c 	ldr	r8, [pc, #92]	; 81801b18 <arm32_do_data_abort+0x98>
81801ab8:	e3a0400c 	mov	r4, #12
81801abc:	ea000001 	b	81801ac8 <arm32_do_data_abort+0x48>
81801ac0:	e3740001 	cmn	r4, #1
81801ac4:	0a00000a 	beq	81801af4 <arm32_do_data_abort+0x74>
81801ac8:	e1a01004 	mov	r1, r4
81801acc:	e5352004 	ldr	r2, [r5, #-4]!
81801ad0:	e1a00006 	mov	r0, r6
81801ad4:	ebfffae0 	bl	8180065c <printf>
81801ad8:	e3140001 	tst	r4, #1
81801adc:	e2444001 	sub	r4, r4, #1
81801ae0:	1afffff6 	bne	81801ac0 <arm32_do_data_abort+0x40>
81801ae4:	e1a00008 	mov	r0, r8
81801ae8:	ebfffadb 	bl	8180065c <printf>
81801aec:	e3740001 	cmn	r4, #1
81801af0:	1afffff4 	bne	81801ac8 <arm32_do_data_abort+0x48>
81801af4:	e59f001c 	ldr	r0, [pc, #28]	; 81801b18 <arm32_do_data_abort+0x98>
81801af8:	ebfffad7 	bl	8180065c <printf>
81801afc:	e5973044 	ldr	r3, [r7, #68]	; 0x44
81801b00:	e2833004 	add	r3, r3, #4
81801b04:	e5873044 	str	r3, [r7, #68]	; 0x44
81801b08:	e8bd81f0 	pop	{r4, r5, r6, r7, r8, pc}
81801b0c:	81801b90 			; <UNDEFINED> instruction: 0x81801b90
81801b10:	81801bbc 			; <UNDEFINED> instruction: 0x81801bbc
81801b14:	81801bd8 	ldrdhi	r1, [r0, r8]
81801b18:	81801c04 	orrhi	r1, r0, r4, lsl #24

81801b1c <arm32_do_irq>:
81801b1c:	ea000017 	b	81801b80 <interrupt_handle_exception>

81801b20 <arm32_do_fiq>:
81801b20:	ea000016 	b	81801b80 <interrupt_handle_exception>

81801b24 <boot_main>:
81801b24:	e92d4010 	push	{r4, lr}
81801b28:	e3a0006d 	mov	r0, #109	; 0x6d
81801b2c:	ebfffab6 	bl	8180060c <sys_uart_putc>
81801b30:	e3a00061 	mov	r0, #97	; 0x61
81801b34:	ebfffab4 	bl	8180060c <sys_uart_putc>
81801b38:	e3a00069 	mov	r0, #105	; 0x69
81801b3c:	ebfffab2 	bl	8180060c <sys_uart_putc>
81801b40:	e3a0006e 	mov	r0, #110	; 0x6e
81801b44:	ebfffab0 	bl	8180060c <sys_uart_putc>
81801b48:	e3a0000d 	mov	r0, #13
81801b4c:	ebfffaae 	bl	8180060c <sys_uart_putc>
81801b50:	e3a0000a 	mov	r0, #10
81801b54:	ebfffaac 	bl	8180060c <sys_uart_putc>
81801b58:	e59f000c 	ldr	r0, [pc, #12]	; 81801b6c <boot_main+0x48>
81801b5c:	ebfffabe 	bl	8180065c <printf>
81801b60:	e59f0008 	ldr	r0, [pc, #8]	; 81801b70 <boot_main+0x4c>
81801b64:	ebfffabc 	bl	8180065c <printf>
81801b68:	eafffffe 	b	81801b68 <boot_main+0x44>
81801b6c:	81801be8 	orrhi	r1, r0, r8, ror #23
81801b70:	81801bf8 	strdhi	r1, [r0, r8]

81801b74 <__fatal_error>:
81801b74:	eafffffe 	b	81801b74 <__fatal_error>

81801b78 <__cxa_pure_virtual>:
81801b78:	eafffffe 	b	81801b78 <__cxa_pure_virtual>

81801b7c <__assert_func>:
81801b7c:	eafffffe 	b	81801b7c <__assert_func>

81801b80 <interrupt_handle_exception>:
81801b80:	e12fff1e 	bx	lr

Disassembly of section .rodata:

81801b90 <__fini_array_end+0xc>:
81801b90:	3a206370 	bcc	8201a958 <__stack_srv_end+0x798d50>
81801b94:	253c5b20 	ldrcs	r5, [ip, #-2848]!	; 0xfffff4e0
81801b98:	786c3830 	stmdavc	ip!, {r4, r5, fp, ip, sp}^
81801b9c:	6c205d3e 	stcvs	13, cr5, [r0], #-248	; 0xffffff08
81801ba0:	203a2072 	eorscs	r2, sl, r2, ror r0
81801ba4:	30253c5b 	eorcc	r3, r5, fp, asr ip
81801ba8:	3e786c38 	mrccc	12, 3, r6, cr8, cr8, {1}
81801bac:	7063205d 	rsbvc	r2, r3, sp, asr r0
81801bb0:	203a7273 	eorscs	r7, sl, r3, ror r2
81801bb4:	6c383025 	ldcvs	0, cr3, [r8], #-148	; 0xffffff6c
81801bb8:	000a0d78 	andeq	r0, sl, r8, ror sp
81801bbc:	3a207073 	bcc	8201dd90 <__stack_srv_end+0x79c188>
81801bc0:	38302520 	ldmdacc	r0!, {r5, r8, sl, sp}
81801bc4:	6520786c 	strvs	r7, [r0, #-2156]!	; 0xfffff794
81801bc8:	3a207073 	bcc	8201dd9c <__stack_srv_end+0x79c194>
81801bcc:	38302520 	ldmdacc	r0!, {r5, r8, sl, sp}
81801bd0:	0a0d786c 	beq	81b5fd88 <__stack_srv_end+0x2de180>
81801bd4:	00000000 	andeq	r0, r0, r0
81801bd8:	322d2572 	eorcc	r2, sp, #478150656	; 0x1c800000
81801bdc:	25203a64 	strcs	r3, [r0, #-2660]!	; 0xfffff59c
81801be0:	786c3830 	stmdavc	ip!, {r4, r5, fp, ip, sp}^
81801be4:	00000020 	andeq	r0, r0, r0, lsr #32
81801be8:	746f6f62 	strbtvc	r6, [pc], #-3938	; 81801bf0 <__fini_array_end+0x6c>
81801bec:	69616d5f 	stmdbvs	r1!, {r0, r1, r2, r3, r4, r6, r8, sl, fp, sp, lr}^
81801bf0:	0a0d3a6e 	beq	81b505b0 <__stack_srv_end+0x2ce9a8>
81801bf4:	00000000 	andeq	r0, r0, r0
81801bf8:	73616c46 	cmnvc	r1, #17920	; 0x4600
81801bfc:	69662068 	stmdbvs	r6!, {r3, r5, r6, sp}^
81801c00:	6873696e 	ldmdavs	r3!, {r1, r2, r3, r5, r6, r8, fp, sp, lr}^
81801c04:	00000a0d 	andeq	r0, r0, sp, lsl #20

Disassembly of section .stack:

81801c08 <__stack_und_end-0x10000>:
	...

81811c08 <__stack_und_end>:
	...

81821c08 <__stack_abt_end>:
	...

81831c08 <__stack_irq_end>:
	...

81841c08 <__stack_fiq_end>:
	...

Disassembly of section .comment:

00000000 <.comment>:
   0:	3a434347 	bcc	10d0d24 <STACK_SRV_SIZE+0x1090d24>
   4:	4e472820 	cdpmi	8, 4, cr2, cr7, cr0, {1}
   8:	6f542055 	svcvs	0x00542055
   c:	20736c6f 	rsbscs	r6, r3, pc, ror #24
  10:	20726f66 	rsbscs	r6, r2, r6, ror #30
  14:	206d7241 	rsbcs	r7, sp, r1, asr #4
  18:	65626d45 	strbvs	r6, [r2, #-3397]!	; 0xfffff2bb
  1c:	64656464 	strbtvs	r6, [r5], #-1124	; 0xfffffb9c
  20:	6f725020 	svcvs	0x00725020
  24:	73736563 	cmnvc	r3, #415236096	; 0x18c00000
  28:	2073726f 	rsbscs	r7, r3, pc, ror #4
  2c:	30322d37 	eorscc	r2, r2, r7, lsr sp
  30:	712d3731 			; <UNDEFINED> instruction: 0x712d3731
  34:	616d2d34 	cmnvs	sp, r4, lsr sp
  38:	29726f6a 	ldmdbcs	r2!, {r1, r3, r5, r6, r8, r9, sl, fp, sp, lr}^
  3c:	322e3720 	eorcc	r3, lr, #32, 14	; 0x800000
  40:	3220312e 	eorcc	r3, r0, #-2147483637	; 0x8000000b
  44:	30373130 	eorscc	r3, r7, r0, lsr r1
  48:	20343039 	eorscs	r3, r4, r9, lsr r0
  4c:	6c657228 	sfmvs	f7, 2, [r5], #-160	; 0xffffff60
  50:	65736165 	ldrbvs	r6, [r3, #-357]!	; 0xfffffe9b
  54:	415b2029 	cmpmi	fp, r9, lsr #32
  58:	652f4d52 	strvs	r4, [pc, #-3410]!	; fffff30e <__stack_srv_end+0x7e77d706>
  5c:	6465626d 	strbtvs	r6, [r5], #-621	; 0xfffffd93
  60:	2d646564 	cfstr64cs	mvdx6, [r4, #-400]!	; 0xfffffe70
  64:	72622d37 	rsbvc	r2, r2, #3520	; 0xdc0
  68:	68636e61 	stmdavs	r3!, {r0, r5, r6, r9, sl, fp, sp, lr}^
  6c:	76657220 	strbtvc	r7, [r5], -r0, lsr #4
  70:	6f697369 	svcvs	0x00697369
  74:	3532206e 	ldrcc	r2, [r2, #-110]!	; 0xffffff92
  78:	34303235 	ldrtcc	r3, [r0], #-565	; 0xfffffdcb
  7c:	Address 0x000000000000007c is out of bounds.


Disassembly of section .ARM.attributes:

00000000 <.ARM.attributes>:
   0:	00002641 	andeq	r2, r0, r1, asr #12
   4:	61656100 	cmnvs	r5, r0, lsl #2
   8:	01006962 	tsteq	r0, r2, ror #18
   c:	0000001c 	andeq	r0, r0, ip, lsl r0
  10:	45543505 	ldrbmi	r3, [r4, #-1285]	; 0xfffffafb
  14:	08040600 	stmdaeq	r4, {r9, sl}
  18:	12010901 	andne	r0, r1, #16384	; 0x4000
  1c:	15011404 	strne	r1, [r1, #-1028]	; 0xfffffbfc
  20:	18031701 	stmdane	r3, {r0, r8, r9, sl, ip}
  24:	Address 0x0000000000000024 is out of bounds.


Disassembly of section .debug_abbrev:

00000000 <.debug_abbrev>:
   0:	10001101 	andne	r1, r0, r1, lsl #2
   4:	12011106 	andne	r1, r1, #-2147483647	; 0x80000001
   8:	1b0e0301 	blne	380c14 <STACK_SRV_SIZE+0x340c14>
   c:	130e250e 	movwne	r2, #58638	; 0xe50e
  10:	00000005 	andeq	r0, r0, r5
  14:	10001101 	andne	r1, r0, r1, lsl #2
  18:	12011106 	andne	r1, r1, #-2147483647	; 0x80000001
  1c:	1b0e0301 	blne	380c28 <STACK_SRV_SIZE+0x340c28>
  20:	130e250e 	movwne	r2, #58638	; 0xe50e
  24:	00000005 	andeq	r0, r0, r5
  28:	25011101 	strcs	r1, [r1, #-257]	; 0xfffffeff
  2c:	030b130e 	movweq	r1, #45838	; 0xb30e
  30:	110e1b0e 	tstne	lr, lr, lsl #22
  34:	10061201 	andne	r1, r6, r1, lsl #4
  38:	02000017 	andeq	r0, r0, #23
  3c:	0b0b0024 	bleq	2c00d4 <STACK_SRV_SIZE+0x2800d4>
  40:	0e030b3e 	vmoveq.16	d3[0], r0
  44:	24030000 	strcs	r0, [r3], #-0
  48:	3e0b0b00 	vmlacc.f64	d0, d11, d0
  4c:	0008030b 	andeq	r0, r8, fp, lsl #6
  50:	00160400 	andseq	r0, r6, r0, lsl #8
  54:	0b3a0e03 	bleq	e83868 <STACK_SRV_SIZE+0xe43868>
  58:	13490b3b 	movtne	r0, #39739	; 0x9b3b
  5c:	2e050000 	cdpcs	0, 0, cr0, cr5, cr0, {0}
  60:	03193f01 	tsteq	r9, #1, 30
  64:	3b0b3a0e 	blcc	2ce8a4 <STACK_SRV_SIZE+0x28e8a4>
  68:	1119270b 	tstne	r9, fp, lsl #14
  6c:	40061201 	andmi	r1, r6, r1, lsl #4
  70:	19429718 	stmdbne	r2, {r3, r4, r8, r9, sl, ip, pc}^
  74:	00001301 	andeq	r1, r0, r1, lsl #6
  78:	03003406 	movweq	r3, #1030	; 0x406
  7c:	3b0b3a08 	blcc	2ce8a4 <STACK_SRV_SIZE+0x28e8a4>
  80:	0213490b 	andseq	r4, r3, #180224	; 0x2c000
  84:	07000017 	smladeq	r0, r7, r0, r0
  88:	1331011d 	teqne	r1, #1073741831	; 0x40000007
  8c:	17550152 			; <UNDEFINED> instruction: 0x17550152
  90:	0b590b58 	bleq	1642df8 <STACK_SRV_SIZE+0x1602df8>
  94:	00001301 	andeq	r1, r0, r1, lsl #6
  98:	31000508 	tstcc	r0, r8, lsl #10
  9c:	00170213 	andseq	r0, r7, r3, lsl r2
  a0:	011d0900 	tsteq	sp, r0, lsl #18
  a4:	01111331 	tsteq	r1, r1, lsr r3
  a8:	0b580612 	bleq	16018f8 <STACK_SRV_SIZE+0x15c18f8>
  ac:	13010b59 	movwne	r0, #7001	; 0x1b59
  b0:	0b0a0000 	bleq	2800b8 <STACK_SRV_SIZE+0x2400b8>
  b4:	12011101 	andne	r1, r1, #1073741824	; 0x40000000
  b8:	0b000006 	bleq	d8 <__spl_size-0x17cc>
  bc:	13310034 	teqne	r1, #52	; 0x34
  c0:	00001702 	andeq	r1, r0, r2, lsl #14
  c4:	3100340c 	tstcc	r0, ip, lsl #8
  c8:	000b1c13 	andeq	r1, fp, r3, lsl ip
  cc:	00050d00 	andeq	r0, r5, r0, lsl #26
  d0:	00001331 	andeq	r1, r0, r1, lsr r3
  d4:	55010b0e 	strpl	r0, [r1, #-2830]	; 0xfffff4f2
  d8:	0f000017 	svceq	0x00000017
  dc:	13310034 	teqne	r1, #52	; 0x34
  e0:	1d100000 	ldcne	0, cr0, [r0, #-0]
  e4:	52133101 	andspl	r3, r3, #1073741824	; 0x40000000
  e8:	58175501 	ldmdapl	r7, {r0, r8, sl, ip, lr}
  ec:	000b590b 	andeq	r5, fp, fp, lsl #18
  f0:	011d1100 	tsteq	sp, r0, lsl #2
  f4:	01111331 	tsteq	r1, r1, lsr r3
  f8:	0b580612 	bleq	1601948 <STACK_SRV_SIZE+0x15c1948>
  fc:	00000b59 	andeq	r0, r0, r9, asr fp
 100:	31000512 	tstcc	r0, r2, lsl r5
 104:	00061c13 	andeq	r1, r6, r3, lsl ip
 108:	012e1300 			; <UNDEFINED> instruction: 0x012e1300
 10c:	0b3a0e03 	bleq	e83920 <STACK_SRV_SIZE+0xe43920>
 110:	19270b3b 	stmdbne	r7!, {r0, r1, r3, r4, r5, r8, r9, fp}
 114:	13010b20 	movwne	r0, #6944	; 0x1b20
 118:	05140000 	ldreq	r0, [r4, #-0]
 11c:	3a080300 	bcc	200d24 <STACK_SRV_SIZE+0x1c0d24>
 120:	490b3b0b 	stmdbmi	fp, {r0, r1, r3, r8, r9, fp, ip, sp}
 124:	15000013 	strne	r0, [r0, #-19]	; 0xffffffed
 128:	08030034 	stmdaeq	r3, {r2, r4, r5}
 12c:	0b3b0b3a 	bleq	ec2e1c <STACK_SRV_SIZE+0xe82e1c>
 130:	00001349 	andeq	r1, r0, r9, asr #6
 134:	03003416 	movweq	r3, #1046	; 0x416
 138:	3b0b3a0e 	blcc	2ce978 <STACK_SRV_SIZE+0x28e978>
 13c:	0013490b 	andseq	r4, r3, fp, lsl #18
 140:	00051700 	andeq	r1, r5, r0, lsl #14
 144:	0b3a0e03 	bleq	e83958 <STACK_SRV_SIZE+0xe43958>
 148:	13490b3b 	movtne	r0, #39739	; 0x9b3b
 14c:	2e180000 	cdpcs	0, 1, cr0, cr8, cr0, {0}
 150:	3a0e0301 	bcc	380d5c <STACK_SRV_SIZE+0x340d5c>
 154:	270b3b0b 	strcs	r3, [fp, -fp, lsl #22]
 158:	20134919 	andscs	r4, r3, r9, lsl r9
 15c:	0000000b 	andeq	r0, r0, fp
 160:	25011101 	strcs	r1, [r1, #-257]	; 0xfffffeff
 164:	030b130e 	movweq	r1, #45838	; 0xb30e
 168:	110e1b0e 	tstne	lr, lr, lsl #22
 16c:	10061201 	andne	r1, r6, r1, lsl #4
 170:	02000017 	andeq	r0, r0, #23
 174:	0b0b0024 	bleq	2c020c <STACK_SRV_SIZE+0x28020c>
 178:	0e030b3e 	vmoveq.16	d3[0], r0
 17c:	24030000 	strcs	r0, [r3], #-0
 180:	3e0b0b00 	vmlacc.f64	d0, d11, d0
 184:	0008030b 	andeq	r0, r8, fp, lsl #6
 188:	00160400 	andseq	r0, r6, r0, lsl #8
 18c:	0b3a0e03 	bleq	e839a0 <STACK_SRV_SIZE+0xe439a0>
 190:	13490b3b 	movtne	r0, #39739	; 0x9b3b
 194:	01050000 	mrseq	r0, (UNDEF: 5)
 198:	01134901 	tsteq	r3, r1, lsl #18
 19c:	06000013 			; <UNDEFINED> instruction: 0x06000013
 1a0:	13490021 	movtne	r0, #36897	; 0x9021
 1a4:	0000052f 	andeq	r0, r0, pc, lsr #10
 1a8:	03003407 	movweq	r3, #1031	; 0x407
 1ac:	3b0b3a0e 	blcc	2ce9ec <STACK_SRV_SIZE+0x28e9ec>
 1b0:	8813490b 	ldmdahi	r3, {r0, r1, r3, r8, fp, lr}
 1b4:	00000501 	andeq	r0, r0, r1, lsl #10
 1b8:	3f002e08 	svccc	0x00002e08
 1bc:	3a0e0319 	bcc	380e28 <STACK_SRV_SIZE+0x340e28>
 1c0:	270b3b0b 	strcs	r3, [fp, -fp, lsl #22]
 1c4:	09000019 	stmdbeq	r0, {r0, r3, r4}
 1c8:	193f002e 	ldmdbne	pc!, {r1, r2, r3, r5}	; <UNPREDICTABLE>
 1cc:	0b3a0e03 	bleq	e839e0 <STACK_SRV_SIZE+0xe439e0>
 1d0:	19270b3b 	stmdbne	r7!, {r0, r1, r3, r4, r5, r8, r9, fp}
 1d4:	00000b20 	andeq	r0, r0, r0, lsr #22
 1d8:	31002e0a 	tstcc	r0, sl, lsl #28
 1dc:	12011113 	andne	r1, r1, #-1073741820	; 0xc0000004
 1e0:	97184006 	ldrls	r4, [r8, -r6]
 1e4:	00001942 	andeq	r1, r0, r2, asr #18
 1e8:	01110100 	tsteq	r1, r0, lsl #2
 1ec:	0b130e25 	bleq	4c3a88 <STACK_SRV_SIZE+0x483a88>
 1f0:	0e1b0e03 	cdpeq	14, 1, cr0, cr11, cr3, {0}
 1f4:	06120111 			; <UNDEFINED> instruction: 0x06120111
 1f8:	00001710 	andeq	r1, r0, r0, lsl r7
 1fc:	0b002402 	bleq	920c <__spl_size+0x7968>
 200:	030b3e0b 	movweq	r3, #48651	; 0xbe0b
 204:	0300000e 	movweq	r0, #14
 208:	0b0b0024 	bleq	2c02a0 <STACK_SRV_SIZE+0x2802a0>
 20c:	08030b3e 	stmdaeq	r3, {r1, r2, r3, r4, r5, r8, r9, fp}
 210:	16040000 	strne	r0, [r4], -r0
 214:	3a0e0300 	bcc	380e1c <STACK_SRV_SIZE+0x340e1c>
 218:	490b3b0b 	stmdbmi	fp, {r0, r1, r3, r8, r9, fp, ip, sp}
 21c:	05000013 	streq	r0, [r0, #-19]	; 0xffffffed
 220:	0e030104 	adfeqs	f0, f3, f4
 224:	0b0b0b3e 	bleq	2c2f24 <STACK_SRV_SIZE+0x282f24>
 228:	0b3a1349 	bleq	e84f54 <STACK_SRV_SIZE+0xe44f54>
 22c:	13010b3b 	movwne	r0, #6971	; 0x1b3b
 230:	28060000 	stmdacs	r6, {}	; <UNPREDICTABLE>
 234:	1c0e0300 	stcne	3, cr0, [lr], {-0}
 238:	0700000b 	streq	r0, [r0, -fp]
 23c:	0e030113 	mcreq	1, 0, r0, cr3, cr3, {0}
 240:	0b3a0b0b 	bleq	e82e74 <STACK_SRV_SIZE+0xe42e74>
 244:	13010b3b 	movwne	r0, #6971	; 0x1b3b
 248:	0d080000 	stceq	0, cr0, [r8, #-0]
 24c:	3a0e0300 	bcc	380e54 <STACK_SRV_SIZE+0x340e54>
 250:	490b3b0b 	stmdbmi	fp, {r0, r1, r3, r8, r9, fp, ip, sp}
 254:	000b3813 	andeq	r3, fp, r3, lsl r8
 258:	000d0900 	andeq	r0, sp, r0, lsl #18
 25c:	0b3a0803 	bleq	e82270 <STACK_SRV_SIZE+0xe42270>
 260:	13490b3b 	movtne	r0, #39739	; 0x9b3b
 264:	00000b38 	andeq	r0, r0, r8, lsr fp
 268:	3f012e0a 	svccc	0x00012e0a
 26c:	3a0e0319 	bcc	380ed8 <STACK_SRV_SIZE+0x340ed8>
 270:	27053b0b 	strcs	r3, [r5, -fp, lsl #22]
 274:	12011119 	andne	r1, r1, #1073741830	; 0x40000006
 278:	97184006 	ldrls	r4, [r8, -r6]
 27c:	13011942 	movwne	r1, #6466	; 0x1942
 280:	340b0000 	strcc	r0, [fp], #-0
 284:	3a0e0300 	bcc	380e8c <STACK_SRV_SIZE+0x340e8c>
 288:	49053b0b 	stmdbmi	r5, {r0, r1, r3, r8, r9, fp, ip, sp}
 28c:	00180213 	andseq	r0, r8, r3, lsl r2
 290:	00340c00 	eorseq	r0, r4, r0, lsl #24
 294:	0b3a0803 	bleq	e822a8 <STACK_SRV_SIZE+0xe422a8>
 298:	1349053b 	movtne	r0, #38203	; 0x953b
 29c:	00000b1c 	andeq	r0, r0, ip, lsl fp
 2a0:	31011d0d 	tstcc	r1, sp, lsl #26
 2a4:	55015213 	strpl	r5, [r1, #-531]	; 0xfffffded
 2a8:	590b5817 	stmdbpl	fp, {r0, r1, r2, r4, fp, ip, lr}
 2ac:	0e000005 	cdpeq	0, 0, cr0, cr0, cr5, {0}
 2b0:	13310005 	teqne	r1, #5
 2b4:	00001702 	andeq	r1, r0, r2, lsl #14
 2b8:	55010b0f 	strpl	r0, [r1, #-2831]	; 0xfffff4f1
 2bc:	10000017 	andne	r0, r0, r7, lsl r0
 2c0:	13310034 	teqne	r1, #52	; 0x34
 2c4:	00001702 	andeq	r1, r0, r2, lsl #14
 2c8:	31011d11 	tstcc	r1, r1, lsl sp
 2cc:	55015213 	strpl	r5, [r1, #-531]	; 0xfffffded
 2d0:	590b5817 	stmdbpl	fp, {r0, r1, r2, r4, fp, ip, lr}
 2d4:	00130105 	andseq	r0, r3, r5, lsl #2
 2d8:	011d1200 	tsteq	sp, r0, lsl #4
 2dc:	01521331 	cmpeq	r2, r1, lsr r3
 2e0:	0b581755 	bleq	160603c <STACK_SRV_SIZE+0x15c603c>
 2e4:	00000b59 	andeq	r0, r0, r9, asr fp
 2e8:	31011d13 	tstcc	r1, r3, lsl sp
 2ec:	12011113 	andne	r1, r1, #-1073741820	; 0xc0000004
 2f0:	590b5806 	stmdbpl	fp, {r1, r2, fp, ip, lr}
 2f4:	00130105 	andseq	r0, r3, r5, lsl #2
 2f8:	00051400 	andeq	r1, r5, r0, lsl #8
 2fc:	061c1331 			; <UNDEFINED> instruction: 0x061c1331
 300:	05150000 	ldreq	r0, [r5, #-0]
 304:	1c133100 	ldfnes	f3, [r3], {-0}
 308:	16000005 	strne	r0, [r0], -r5
 30c:	1331011d 	teqne	r1, #1073741831	; 0x40000007
 310:	06120111 			; <UNDEFINED> instruction: 0x06120111
 314:	0b590b58 	bleq	164307c <STACK_SRV_SIZE+0x160307c>
 318:	1d170000 	ldcne	0, cr0, [r7, #-0]
 31c:	52133101 	andspl	r3, r3, #1073741824	; 0x40000000
 320:	58175501 	ldmdapl	r7, {r0, r8, sl, ip, lr}
 324:	010b590b 	tsteq	fp, fp, lsl #18
 328:	18000013 	stmdane	r0, {r0, r1, r4}
 32c:	1331011d 	teqne	r1, #1073741831	; 0x40000007
 330:	06120111 			; <UNDEFINED> instruction: 0x06120111
 334:	0b590b58 	bleq	164309c <STACK_SRV_SIZE+0x160309c>
 338:	00001301 	andeq	r1, r0, r1, lsl #6
 33c:	31000519 	tstcc	r0, r9, lsl r5
 340:	1a000013 	bne	394 <__spl_size-0x1510>
 344:	13310034 	teqne	r1, #52	; 0x34
 348:	891b0000 	ldmdbhi	fp, {}	; <UNPREDICTABLE>
 34c:	11010182 	smlabbne	r1, r2, r1, r0
 350:	01133101 	tsteq	r3, r1, lsl #2
 354:	1c000013 	stcne	0, cr0, [r0], {19}
 358:	0001828a 	andeq	r8, r1, sl, lsl #5
 35c:	42911802 	addsmi	r1, r1, #131072	; 0x20000
 360:	1d000018 	stcne	0, cr0, [r0, #-96]	; 0xffffffa0
 364:	0001828a 	andeq	r8, r1, sl, lsl #5
 368:	42911331 	addsmi	r1, r1, #-1006632960	; 0xc4000000
 36c:	1e000018 	mcrne	0, 0, r0, cr0, cr8, {0}
 370:	01018289 	smlabbeq	r1, r9, r2, r8
 374:	13310111 	teqne	r1, #1073741828	; 0x40000004
 378:	0f1f0000 	svceq	0x001f0000
 37c:	490b0b00 	stmdbmi	fp, {r8, r9, fp}
 380:	20000013 	andcs	r0, r0, r3, lsl r0
 384:	0e03012e 	adfeqsp	f0, f3, #0.5
 388:	053b0b3a 	ldreq	r0, [fp, #-2874]!	; 0xfffff4c6
 38c:	13491927 	movtne	r1, #39207	; 0x9927
 390:	13010b20 	movwne	r0, #6944	; 0x1b20
 394:	05210000 	streq	r0, [r1, #-0]!
 398:	3a0e0300 	bcc	380fa0 <STACK_SRV_SIZE+0x340fa0>
 39c:	49053b0b 	stmdbmi	r5, {r0, r1, r3, r8, r9, fp, ip, sp}
 3a0:	22000013 	andcs	r0, r0, #19
 3a4:	08030034 	stmdaeq	r3, {r2, r4, r5}
 3a8:	053b0b3a 	ldreq	r0, [fp, #-2874]!	; 0xfffff4c6
 3ac:	00001349 	andeq	r1, r0, r9, asr #6
 3b0:	03003423 	movweq	r3, #1059	; 0x423
 3b4:	3b0b3a0e 	blcc	2cebf4 <STACK_SRV_SIZE+0x28ebf4>
 3b8:	00134905 	andseq	r4, r3, r5, lsl #18
 3bc:	01012400 	tsteq	r1, r0, lsl #8
 3c0:	13011349 	movwne	r1, #4937	; 0x1349
 3c4:	21250000 			; <UNDEFINED> instruction: 0x21250000
 3c8:	2f134900 	svccs	0x00134900
 3cc:	2600000b 	strcs	r0, [r0], -fp
 3d0:	0e03012e 	adfeqsp	f0, f3, #0.5
 3d4:	0b3b0b3a 	bleq	ec30c4 <STACK_SRV_SIZE+0xe830c4>
 3d8:	13491927 	movtne	r1, #39207	; 0x9927
 3dc:	13010b20 	movwne	r0, #6944	; 0x1b20
 3e0:	05270000 	streq	r0, [r7, #-0]!
 3e4:	3a0e0300 	bcc	380fec <STACK_SRV_SIZE+0x340fec>
 3e8:	490b3b0b 	stmdbmi	fp, {r0, r1, r3, r8, r9, fp, ip, sp}
 3ec:	28000013 	stmdacs	r0, {r0, r1, r4}
 3f0:	08030034 	stmdaeq	r3, {r2, r4, r5}
 3f4:	0b3b0b3a 	bleq	ec30e4 <STACK_SRV_SIZE+0xe830e4>
 3f8:	00001349 	andeq	r1, r0, r9, asr #6
 3fc:	03003429 	movweq	r3, #1065	; 0x429
 400:	3b0b3a0e 	blcc	2cec40 <STACK_SRV_SIZE+0x28ec40>
 404:	0013490b 	andseq	r4, r3, fp, lsl #18
 408:	012e2a00 			; <UNDEFINED> instruction: 0x012e2a00
 40c:	0b3a0e03 	bleq	e83c20 <STACK_SRV_SIZE+0xe43c20>
 410:	19270b3b 	stmdbne	r7!, {r0, r1, r3, r4, r5, r8, r9, fp}
 414:	13010b20 	movwne	r0, #6944	; 0x1b20
 418:	052b0000 	streq	r0, [fp, #-0]!
 41c:	3a080300 	bcc	201024 <STACK_SRV_SIZE+0x1c1024>
 420:	490b3b0b 	stmdbmi	fp, {r0, r1, r3, r8, r9, fp, ip, sp}
 424:	2c000013 	stccs	0, cr0, [r0], {19}
 428:	1331012e 	teqne	r1, #-2147483637	; 0x8000000b
 42c:	06120111 			; <UNDEFINED> instruction: 0x06120111
 430:	42971840 	addsmi	r1, r7, #64, 16	; 0x400000
 434:	00130119 	andseq	r0, r3, r9, lsl r1
 438:	012e2d00 			; <UNDEFINED> instruction: 0x012e2d00
 43c:	01111331 	tsteq	r1, r1, lsr r3
 440:	18400612 	stmdane	r0, {r1, r4, r9, sl}^
 444:	00194297 	mulseq	r9, r7, r2
 448:	00342e00 	eorseq	r2, r4, r0, lsl #28
 44c:	0b1c1331 	bleq	705118 <STACK_SRV_SIZE+0x6c5118>
 450:	0b2f0000 	bleq	bc0458 <STACK_SRV_SIZE+0xb80458>
 454:	55133101 	ldrpl	r3, [r3, #-257]	; 0xfffffeff
 458:	00130117 	andseq	r0, r3, r7, lsl r1
 45c:	011d3000 	tsteq	sp, r0
 460:	01111331 	tsteq	r1, r1, lsr r3
 464:	0b580612 	bleq	1601cb4 <STACK_SRV_SIZE+0x15c1cb4>
 468:	00000559 	andeq	r0, r0, r9, asr r5
 46c:	11010b31 	tstne	r1, r1, lsr fp
 470:	00061201 	andeq	r1, r6, r1, lsl #4
 474:	11010000 	mrsne	r0, (UNDEF: 1)
 478:	130e2501 	movwne	r2, #58625	; 0xe501
 47c:	1b0e030b 	blne	3810b0 <STACK_SRV_SIZE+0x3410b0>
 480:	1201110e 	andne	r1, r1, #-2147483645	; 0x80000003
 484:	00171006 	andseq	r1, r7, r6
 488:	00240200 	eoreq	r0, r4, r0, lsl #4
 48c:	0b3e0b0b 	bleq	f830c0 <STACK_SRV_SIZE+0xf430c0>
 490:	00000e03 	andeq	r0, r0, r3, lsl #28
 494:	0b002403 	bleq	94a8 <__spl_size+0x7c04>
 498:	030b3e0b 	movweq	r3, #48651	; 0xbe0b
 49c:	04000008 	streq	r0, [r0], #-8
 4a0:	0e030016 	mcreq	0, 0, r0, cr3, cr6, {0}
 4a4:	0b3b0b3a 	bleq	ec3194 <STACK_SRV_SIZE+0xe83194>
 4a8:	00001349 	andeq	r1, r0, r9, asr #6
 4ac:	03011305 	movweq	r1, #4869	; 0x1305
 4b0:	3a0b0b0e 	bcc	2c30f0 <STACK_SRV_SIZE+0x2830f0>
 4b4:	010b3b0b 	tsteq	fp, fp, lsl #22
 4b8:	06000013 			; <UNDEFINED> instruction: 0x06000013
 4bc:	0803000d 	stmdaeq	r3, {r0, r2, r3}
 4c0:	0b3b0b3a 	bleq	ec31b0 <STACK_SRV_SIZE+0xe831b0>
 4c4:	0b381349 	bleq	e051f0 <STACK_SRV_SIZE+0xdc51f0>
 4c8:	0d070000 	stceq	0, cr0, [r7, #-0]
 4cc:	3a0e0300 	bcc	3810d4 <STACK_SRV_SIZE+0x3410d4>
 4d0:	490b3b0b 	stmdbmi	fp, {r0, r1, r3, r8, r9, fp, ip, sp}
 4d4:	000b3813 	andeq	r3, fp, r3, lsl r8
 4d8:	01010800 	tsteq	r1, r0, lsl #16
 4dc:	13011349 	movwne	r1, #4937	; 0x1349
 4e0:	21090000 	mrscs	r0, (UNDEF: 9)
 4e4:	2f134900 	svccs	0x00134900
 4e8:	0a00000b 	beq	51c <__spl_size-0x1388>
 4ec:	193f012e 	ldmdbne	pc!, {r1, r2, r3, r5, r8}	; <UNPREDICTABLE>
 4f0:	0b3a0e03 	bleq	e83d04 <STACK_SRV_SIZE+0xe43d04>
 4f4:	19270b3b 	stmdbne	r7!, {r0, r1, r3, r4, r5, r8, r9, fp}
 4f8:	00001301 	andeq	r1, r0, r1, lsl #6
 4fc:	0300050b 	movweq	r0, #1291	; 0x50b
 500:	3b0b3a0e 	blcc	2ced40 <STACK_SRV_SIZE+0x28ed40>
 504:	0013490b 	andseq	r4, r3, fp, lsl #18
 508:	012e0c00 			; <UNDEFINED> instruction: 0x012e0c00
 50c:	0e03193f 			; <UNDEFINED> instruction: 0x0e03193f
 510:	0b3b0b3a 	bleq	ec3200 <STACK_SRV_SIZE+0xe83200>
 514:	193c1349 	ldmdbne	ip!, {r0, r3, r6, r8, r9, ip}
 518:	180d0000 	stmdane	sp, {}	; <UNPREDICTABLE>
 51c:	0e000000 	cdpeq	0, 0, cr0, cr0, cr0, {0}
 520:	0b0b000f 	bleq	2c0564 <STACK_SRV_SIZE+0x280564>
 524:	00001349 	andeq	r1, r0, r9, asr #6
 528:	3f012e0f 	svccc	0x00012e0f
 52c:	3a0e0319 	bcc	381198 <STACK_SRV_SIZE+0x341198>
 530:	270b3b0b 	strcs	r3, [fp, -fp, lsl #22]
 534:	010b2019 	tsteq	fp, r9, lsl r0
 538:	10000013 	andne	r0, r0, r3, lsl r0
 53c:	0e03012e 	adfeqsp	f0, f3, #0.5
 540:	0b3b0b3a 	bleq	ec3230 <STACK_SRV_SIZE+0xe83230>
 544:	0b201927 	bleq	8069e8 <STACK_SRV_SIZE+0x7c69e8>
 548:	00001301 	andeq	r1, r0, r1, lsl #6
 54c:	03003411 	movweq	r3, #1041	; 0x411
 550:	3b0b3a08 	blcc	2ced78 <STACK_SRV_SIZE+0x28ed78>
 554:	0013490b 	andseq	r4, r3, fp, lsl #18
 558:	012e1200 			; <UNDEFINED> instruction: 0x012e1200
 55c:	01111331 	tsteq	r1, r1, lsr r3
 560:	18400612 	stmdane	r0, {r1, r4, r9, sl}^
 564:	01194297 			; <UNDEFINED> instruction: 0x01194297
 568:	13000013 	movwne	r0, #19
 56c:	13310005 	teqne	r1, #5
 570:	00001702 	andeq	r1, r0, r2, lsl #14
 574:	31011d14 	tstcc	r1, r4, lsl sp
 578:	55015213 	strpl	r5, [r1, #-531]	; 0xfffffded
 57c:	590b5817 	stmdbpl	fp, {r0, r1, r2, r4, fp, ip, lr}
 580:	1500000b 	strne	r0, [r0, #-11]
 584:	1755010b 	ldrbne	r0, [r5, -fp, lsl #2]
 588:	34160000 	ldrcc	r0, [r6], #-0
 58c:	02133100 	andseq	r3, r3, #0, 2
 590:	17000017 	smladne	r0, r7, r0, r0
 594:	01018289 	smlabbeq	r1, r9, r2, r8
 598:	13310111 	teqne	r1, #1073741828	; 0x40000004
 59c:	00001301 	andeq	r1, r0, r1, lsl #6
 5a0:	01828a18 	orreq	r8, r2, r8, lsl sl
 5a4:	91180200 	tstls	r8, r0, lsl #4
 5a8:	00001842 	andeq	r1, r0, r2, asr #16
 5ac:	01828919 	orreq	r8, r2, r9, lsl r9
 5b0:	31011101 	tstcc	r1, r1, lsl #2
 5b4:	1a000013 	bne	608 <__spl_size-0x129c>
 5b8:	01018289 	smlabbeq	r1, r9, r2, r8
 5bc:	42950111 	addsmi	r0, r5, #1073741828	; 0x40000004
 5c0:	00133119 	andseq	r3, r3, r9, lsl r1
 5c4:	002e1b00 	eoreq	r1, lr, r0, lsl #22
 5c8:	193c193f 	ldmdbne	ip!, {r0, r1, r2, r3, r4, r5, r8, fp, ip}
 5cc:	0e030e6e 	cdpeq	14, 0, cr0, cr3, cr14, {3}
 5d0:	0b3b0b3a 	bleq	ec32c0 <STACK_SRV_SIZE+0xe832c0>
 5d4:	01000000 	mrseq	r0, (UNDEF: 0)
 5d8:	0e250111 	mcreq	1, 1, r0, cr5, cr1, {0}
 5dc:	0e030b13 	vmoveq.32	d3[0], r0
 5e0:	01110e1b 	tsteq	r1, fp, lsl lr
 5e4:	17100612 			; <UNDEFINED> instruction: 0x17100612
 5e8:	24020000 	strcs	r0, [r2], #-0
 5ec:	3e0b0b00 	vmlacc.f64	d0, d11, d0
 5f0:	000e030b 	andeq	r0, lr, fp, lsl #6
 5f4:	00240300 	eoreq	r0, r4, r0, lsl #6
 5f8:	0b3e0b0b 	bleq	f8322c <STACK_SRV_SIZE+0xf4322c>
 5fc:	00000803 	andeq	r0, r0, r3, lsl #16
 600:	03001604 	movweq	r1, #1540	; 0x604
 604:	3b0b3a0e 	blcc	2cee44 <STACK_SRV_SIZE+0x28ee44>
 608:	0013490b 	andseq	r4, r3, fp, lsl #18
 60c:	000f0500 	andeq	r0, pc, r0, lsl #10
 610:	13490b0b 	movtne	r0, #39691	; 0x9b0b
 614:	16060000 	strne	r0, [r6], -r0
 618:	3a080300 	bcc	201220 <STACK_SRV_SIZE+0x1c1220>
 61c:	490b3b0b 	stmdbmi	fp, {r0, r1, r3, r8, r9, fp, ip, sp}
 620:	07000013 	smladeq	r0, r3, r0, r0
 624:	0b3e0104 	bleq	f80a3c <STACK_SRV_SIZE+0xf40a3c>
 628:	13490b0b 	movtne	r0, #39691	; 0x9b0b
 62c:	0b3b0b3a 	bleq	ec331c <STACK_SRV_SIZE+0xe8331c>
 630:	00001301 	andeq	r1, r0, r1, lsl #6
 634:	03002808 	movweq	r2, #2056	; 0x808
 638:	000b1c0e 	andeq	r1, fp, lr, lsl #24
 63c:	012e0900 			; <UNDEFINED> instruction: 0x012e0900
 640:	0e03193f 			; <UNDEFINED> instruction: 0x0e03193f
 644:	053b0b3a 	ldreq	r0, [fp, #-2874]!	; 0xfffff4c6
 648:	01111927 	tsteq	r1, r7, lsr #18
 64c:	18400612 	stmdane	r0, {r1, r4, r9, sl}^
 650:	01194297 			; <UNDEFINED> instruction: 0x01194297
 654:	0a000013 	beq	6a8 <__spl_size-0x11fc>
 658:	0e030005 	cdpeq	0, 0, cr0, cr3, cr5, {0}
 65c:	053b0b3a 	ldreq	r0, [fp, #-2874]!	; 0xfffff4c6
 660:	17021349 	strne	r1, [r2, -r9, asr #6]
 664:	180b0000 	stmdane	fp, {}	; <UNPREDICTABLE>
 668:	0c000000 	stceq	0, cr0, [r0], {-0}
 66c:	0e030034 	mcreq	0, 0, r0, cr3, cr4, {1}
 670:	053b0b3a 	ldreq	r0, [fp, #-2874]!	; 0xfffff4c6
 674:	17021349 	strne	r1, [r2, -r9, asr #6]
 678:	1d0d0000 	stcne	0, cr0, [sp, #-0]
 67c:	52133101 	andspl	r3, r3, #1073741824	; 0x40000000
 680:	58175501 	ldmdapl	r7, {r0, r8, sl, ip, lr}
 684:	0105590b 	tsteq	r5, fp, lsl #18
 688:	0e000013 	mcreq	0, 0, r0, cr0, cr3, {0}
 68c:	13310005 	teqne	r1, #5
 690:	0b0f0000 	bleq	3c0698 <STACK_SRV_SIZE+0x380698>
 694:	00175501 	andseq	r5, r7, r1, lsl #10
 698:	00341000 	eorseq	r1, r4, r0
 69c:	00001331 	andeq	r1, r0, r1, lsr r3
 6a0:	31011d11 	tstcc	r1, r1, lsl sp
 6a4:	55015213 	strpl	r5, [r1, #-531]	; 0xfffffded
 6a8:	590b5817 	stmdbpl	fp, {r0, r1, r2, r4, fp, ip, lr}
 6ac:	0013010b 	andseq	r0, r3, fp, lsl #2
 6b0:	00051200 	andeq	r1, r5, r0, lsl #4
 6b4:	17021331 	smladxne	r2, r1, r3, r1
 6b8:	1d130000 	ldcne	0, cr0, [r3, #-0]
 6bc:	11133101 	tstne	r3, r1, lsl #2
 6c0:	58061201 	stmdapl	r6, {r0, r9, ip}
 6c4:	000b590b 	andeq	r5, fp, fp, lsl #18
 6c8:	011d1400 	tsteq	sp, r0, lsl #8
 6cc:	01521331 	cmpeq	r2, r1, lsr r3
 6d0:	0b581755 	bleq	160642c <STACK_SRV_SIZE+0x15c642c>
 6d4:	00000559 	andeq	r0, r0, r9, asr r5
 6d8:	31003415 	tstcc	r0, r5, lsl r4
 6dc:	00170213 	andseq	r0, r7, r3, lsl r2
 6e0:	00341600 	eorseq	r1, r4, r0, lsl #12
 6e4:	18021331 	stmdane	r2, {r0, r4, r5, r8, r9, ip}
 6e8:	1d170000 	ldcne	0, cr0, [r7, #-0]
 6ec:	11133101 	tstne	r3, r1, lsl #2
 6f0:	58061201 	stmdapl	r6, {r0, r9, ip}
 6f4:	010b590b 	tsteq	fp, fp, lsl #18
 6f8:	18000013 	stmdane	r0, {r0, r1, r4}
 6fc:	1331011d 	teqne	r1, #1073741831	; 0x40000007
 700:	17550152 			; <UNDEFINED> instruction: 0x17550152
 704:	0b590b58 	bleq	164346c <STACK_SRV_SIZE+0x160346c>
 708:	0b190000 	bleq	640710 <STACK_SRV_SIZE+0x600710>
 70c:	12011101 	andne	r1, r1, #1073741824	; 0x40000000
 710:	1a000006 	bne	730 <__spl_size-0x1174>
 714:	1331010b 	teqne	r1, #-1073741822	; 0xc0000002
 718:	13011755 	movwne	r1, #5973	; 0x1755
 71c:	891b0000 	ldmdbhi	fp, {}	; <UNPREDICTABLE>
 720:	11010182 	smlabbne	r1, r2, r1, r0
 724:	01133101 	tsteq	r3, r1, lsl #2
 728:	1c000013 	stcne	0, cr0, [r0], {19}
 72c:	0001828a 	andeq	r8, r1, sl, lsl #5
 730:	42911802 	addsmi	r1, r1, #131072	; 0x20000
 734:	1d000018 	stcne	0, cr0, [r0, #-96]	; 0xffffffa0
 738:	01018289 	smlabbeq	r1, r9, r2, r8
 73c:	13310111 	teqne	r1, #1073741828	; 0x40000004
 740:	2e1e0000 	cdpcs	0, 1, cr0, cr14, cr0, {0}
 744:	3a0e0301 	bcc	381350 <STACK_SRV_SIZE+0x341350>
 748:	270b3b0b 	strcs	r3, [fp, -fp, lsl #22]
 74c:	20134919 	andscs	r4, r3, r9, lsl r9
 750:	0013010b 	andseq	r0, r3, fp, lsl #2
 754:	00051f00 	andeq	r1, r5, r0, lsl #30
 758:	0b3a0803 	bleq	e8276c <STACK_SRV_SIZE+0xe4276c>
 75c:	13490b3b 	movtne	r0, #39739	; 0x9b3b
 760:	34200000 	strtcc	r0, [r0], #-0
 764:	3a080300 	bcc	20136c <STACK_SRV_SIZE+0x1c136c>
 768:	490b3b0b 	stmdbmi	fp, {r0, r1, r3, r8, r9, fp, ip, sp}
 76c:	21000013 	tstcs	r0, r3, lsl r0
 770:	0e030034 	mcreq	0, 0, r0, cr3, cr4, {1}
 774:	0b3b0b3a 	bleq	ec3464 <STACK_SRV_SIZE+0xe83464>
 778:	00001349 	andeq	r1, r0, r9, asr #6
 77c:	00010b22 	andeq	r0, r1, r2, lsr #22
 780:	012e2300 			; <UNDEFINED> instruction: 0x012e2300
 784:	0e03193f 			; <UNDEFINED> instruction: 0x0e03193f
 788:	0b3b0b3a 	bleq	ec3478 <STACK_SRV_SIZE+0xe83478>
 78c:	193c1349 	ldmdbne	ip!, {r0, r3, r6, r8, r9, ip}
 790:	2e240000 	cdpcs	0, 2, cr0, cr4, cr0, {0}
 794:	3a0e0301 	bcc	3813a0 <STACK_SRV_SIZE+0x3413a0>
 798:	270b3b0b 	strcs	r3, [fp, -fp, lsl #22]
 79c:	010b2019 	tsteq	fp, r9, lsl r0
 7a0:	25000013 	strcs	r0, [r0, #-19]	; 0xffffffed
 7a4:	0e030005 	cdpeq	0, 0, cr0, cr3, cr5, {0}
 7a8:	0b3b0b3a 	bleq	ec3498 <STACK_SRV_SIZE+0xe83498>
 7ac:	00001349 	andeq	r1, r0, r9, asr #6
 7b0:	49010126 	stmdbmi	r1, {r1, r2, r5, r8}
 7b4:	00130113 	andseq	r0, r3, r3, lsl r1
 7b8:	00212700 	eoreq	r2, r1, r0, lsl #14
 7bc:	0b2f1349 	bleq	bc54e8 <STACK_SRV_SIZE+0xb854e8>
 7c0:	2e280000 	cdpcs	0, 2, cr0, cr8, cr0, {0}
 7c4:	03193f01 	tsteq	r9, #1, 30
 7c8:	3b0b3a0e 	blcc	2cf008 <STACK_SRV_SIZE+0x28f008>
 7cc:	2019270b 	andscs	r2, r9, fp, lsl #14
 7d0:	0013010b 	andseq	r0, r3, fp, lsl #2
 7d4:	012e2900 			; <UNDEFINED> instruction: 0x012e2900
 7d8:	0e03193f 			; <UNDEFINED> instruction: 0x0e03193f
 7dc:	0b3b0b3a 	bleq	ec34cc <STACK_SRV_SIZE+0xe834cc>
 7e0:	01111927 	tsteq	r1, r7, lsr #18
 7e4:	18400612 	stmdane	r0, {r1, r4, r9, sl}^
 7e8:	01194297 			; <UNDEFINED> instruction: 0x01194297
 7ec:	2a000013 	bcs	840 <__spl_size-0x1064>
 7f0:	0e030034 	mcreq	0, 0, r0, cr3, cr4, {1}
 7f4:	0b3b0b3a 	bleq	ec34e4 <STACK_SRV_SIZE+0xe834e4>
 7f8:	17021349 	strne	r1, [r2, -r9, asr #6]
 7fc:	342b0000 	strtcc	r0, [fp], #-0
 800:	3a080300 	bcc	201408 <STACK_SRV_SIZE+0x1c1408>
 804:	490b3b0b 	stmdbmi	fp, {r0, r1, r3, r8, r9, fp, ip, sp}
 808:	00170213 	andseq	r0, r7, r3, lsl r2
 80c:	012e2c00 			; <UNDEFINED> instruction: 0x012e2c00
 810:	01111331 	tsteq	r1, r1, lsr r3
 814:	18400612 	stmdane	r0, {r1, r4, r9, sl}^
 818:	01194297 			; <UNDEFINED> instruction: 0x01194297
 81c:	2d000013 	stccs	0, cr0, [r0, #-76]	; 0xffffffb4
 820:	13310005 	teqne	r1, #5
 824:	00001802 	andeq	r1, r0, r2, lsl #16
 828:	3100342e 	tstcc	r0, lr, lsr #8
 82c:	00061c13 	andeq	r1, r6, r3, lsl ip
 830:	002e2f00 	eoreq	r2, lr, r0, lsl #30
 834:	193c193f 	ldmdbne	ip!, {r0, r1, r2, r3, r4, r5, r8, fp, ip}
 838:	0e030e6e 	cdpeq	14, 0, cr0, cr3, cr14, {3}
 83c:	0b3b0b3a 	bleq	ec352c <STACK_SRV_SIZE+0xe8352c>
 840:	01000000 	mrseq	r0, (UNDEF: 0)
 844:	0e250111 	mcreq	1, 1, r0, cr5, cr1, {0}
 848:	0e030b13 	vmoveq.32	d3[0], r0
 84c:	01110e1b 	tsteq	r1, fp, lsl lr
 850:	17100612 			; <UNDEFINED> instruction: 0x17100612
 854:	24020000 	strcs	r0, [r2], #-0
 858:	3e0b0b00 	vmlacc.f64	d0, d11, d0
 85c:	000e030b 	andeq	r0, lr, fp, lsl #6
 860:	00160300 	andseq	r0, r6, r0, lsl #6
 864:	0b3a0e03 	bleq	e84078 <STACK_SRV_SIZE+0xe44078>
 868:	13490b3b 	movtne	r0, #39739	; 0x9b3b
 86c:	24040000 	strcs	r0, [r4], #-0
 870:	3e0b0b00 	vmlacc.f64	d0, d11, d0
 874:	0008030b 	andeq	r0, r8, fp, lsl #6
 878:	000f0500 	andeq	r0, pc, r0, lsl #10
 87c:	00000b0b 	andeq	r0, r0, fp, lsl #22
 880:	3e010406 	cdpcc	4, 0, cr0, cr1, cr6, {0}
 884:	490b0b0b 	stmdbmi	fp, {r0, r1, r3, r8, r9, fp}
 888:	3b0b3a13 	blcc	2cf0dc <STACK_SRV_SIZE+0x28f0dc>
 88c:	0013010b 	andseq	r0, r3, fp, lsl #2
 890:	00280700 	eoreq	r0, r8, r0, lsl #14
 894:	0b1c0e03 	bleq	7040a8 <STACK_SRV_SIZE+0x6c40a8>
 898:	28080000 	stmdacs	r8, {}	; <UNPREDICTABLE>
 89c:	1c0e0300 	stcne	3, cr0, [lr], {-0}
 8a0:	09000005 	stmdbeq	r0, {r0, r2}
 8a4:	193f012e 	ldmdbne	pc!, {r1, r2, r3, r5, r8}	; <UNPREDICTABLE>
 8a8:	0b3a0e03 	bleq	e840bc <STACK_SRV_SIZE+0xe440bc>
 8ac:	19270b3b 	stmdbne	r7!, {r0, r1, r3, r4, r5, r8, r9, fp}
 8b0:	06120111 			; <UNDEFINED> instruction: 0x06120111
 8b4:	42971840 	addsmi	r1, r7, #64, 16	; 0x400000
 8b8:	00130119 	andseq	r0, r3, r9, lsl r1
 8bc:	00050a00 	andeq	r0, r5, r0, lsl #20
 8c0:	0b3a0e03 	bleq	e840d4 <STACK_SRV_SIZE+0xe440d4>
 8c4:	13490b3b 	movtne	r0, #39739	; 0x9b3b
 8c8:	00001702 	andeq	r1, r0, r2, lsl #14
 8cc:	0300050b 	movweq	r0, #1291	; 0x50b
 8d0:	3b0b3a08 	blcc	2cf0f8 <STACK_SRV_SIZE+0x28f0f8>
 8d4:	0213490b 	andseq	r4, r3, #180224	; 0x2c000
 8d8:	0c000017 	stceq	0, cr0, [r0], {23}
 8dc:	08030034 	stmdaeq	r3, {r2, r4, r5}
 8e0:	0b3b0b3a 	bleq	ec35d0 <STACK_SRV_SIZE+0xe835d0>
 8e4:	18021349 	stmdane	r2, {r0, r3, r6, r8, r9, ip}
 8e8:	1d0d0000 	stcne	0, cr0, [sp, #-0]
 8ec:	52133101 	andspl	r3, r3, #1073741824	; 0x40000000
 8f0:	58175501 	ldmdapl	r7, {r0, r8, sl, ip, lr}
 8f4:	010b590b 	tsteq	fp, fp, lsl #18
 8f8:	0e000013 	mcreq	0, 0, r0, cr0, cr3, {0}
 8fc:	1755010b 	ldrbne	r0, [r5, -fp, lsl #2]
 900:	340f0000 	strcc	r0, [pc], #-0	; 908 <__spl_size-0xf9c>
 904:	1c133100 	ldfnes	f3, [r3], {-0}
 908:	10000006 	andne	r0, r0, r6
 90c:	13310034 	teqne	r1, #52	; 0x34
 910:	00001702 	andeq	r1, r0, r2, lsl #14
 914:	31000511 	tstcc	r0, r1, lsl r5
 918:	00170213 	andseq	r0, r7, r3, lsl r2
 91c:	011d1200 	tsteq	sp, r0, lsl #4
 920:	01111331 	tsteq	r1, r1, lsr r3
 924:	0b580612 	bleq	1602174 <STACK_SRV_SIZE+0x15c2174>
 928:	00000b59 	andeq	r0, r0, r9, asr fp
 92c:	31000513 	tstcc	r0, r3, lsl r5
 930:	14000013 	strne	r0, [r0], #-19	; 0xffffffed
 934:	13310034 	teqne	r1, #52	; 0x34
 938:	34150000 	ldrcc	r0, [r5], #-0
 93c:	1c133100 	ldfnes	f3, [r3], {-0}
 940:	1600000b 	strne	r0, [r0], -fp
 944:	1331011d 	teqne	r1, #1073741831	; 0x40000007
 948:	06120111 			; <UNDEFINED> instruction: 0x06120111
 94c:	0b590b58 	bleq	16436b4 <STACK_SRV_SIZE+0x16036b4>
 950:	00001301 	andeq	r1, r0, r1, lsl #6
 954:	31000517 	tstcc	r0, r7, lsl r5
 958:	00061c13 	andeq	r1, r6, r3, lsl ip
 95c:	011d1800 	tsteq	sp, r0, lsl #16
 960:	01521331 	cmpeq	r2, r1, lsr r3
 964:	0b581755 	bleq	16066c0 <STACK_SRV_SIZE+0x15c66c0>
 968:	00000b59 	andeq	r0, r0, r9, asr fp
 96c:	11010b19 	tstne	r1, r9, lsl fp
 970:	00061201 	andeq	r1, r6, r1, lsl #4
 974:	01011a00 	tsteq	r1, r0, lsl #20
 978:	13011349 	movwne	r1, #4937	; 0x1349
 97c:	211b0000 	tstcs	fp, r0
 980:	2f134900 	svccs	0x00134900
 984:	1c00000b 	stcne	0, cr0, [r0], {11}
 988:	0e03012e 	adfeqsp	f0, f3, #0.5
 98c:	0b3b0b3a 	bleq	ec367c <STACK_SRV_SIZE+0xe8367c>
 990:	13491927 	movtne	r1, #39207	; 0x9927
 994:	13010b20 	movwne	r0, #6944	; 0x1b20
 998:	051d0000 	ldreq	r0, [sp, #-0]
 99c:	3a0e0300 	bcc	3815a4 <STACK_SRV_SIZE+0x3415a4>
 9a0:	490b3b0b 	stmdbmi	fp, {r0, r1, r3, r8, r9, fp, ip, sp}
 9a4:	1e000013 	mcrne	0, 0, r0, cr0, cr3, {0}
 9a8:	08030005 	stmdaeq	r3, {r0, r2}
 9ac:	0b3b0b3a 	bleq	ec369c <STACK_SRV_SIZE+0xe8369c>
 9b0:	00001349 	andeq	r1, r0, r9, asr #6
 9b4:	0300341f 	movweq	r3, #1055	; 0x41f
 9b8:	3b0b3a0e 	blcc	2cf1f8 <STACK_SRV_SIZE+0x28f1f8>
 9bc:	0013490b 	andseq	r4, r3, fp, lsl #18
 9c0:	00342000 	eorseq	r2, r4, r0
 9c4:	0b3a0803 	bleq	e829d8 <STACK_SRV_SIZE+0xe429d8>
 9c8:	13490b3b 	movtne	r0, #39739	; 0x9b3b
 9cc:	0f210000 	svceq	0x00210000
 9d0:	490b0b00 	stmdbmi	fp, {r8, r9, fp}
 9d4:	22000013 	andcs	r0, r0, #19
 9d8:	0e03012e 	adfeqsp	f0, f3, #0.5
 9dc:	0b3b0b3a 	bleq	ec36cc <STACK_SRV_SIZE+0xe836cc>
 9e0:	0b201927 	bleq	806e84 <STACK_SRV_SIZE+0x7c6e84>
 9e4:	00001301 	andeq	r1, r0, r1, lsl #6
 9e8:	03003423 	movweq	r3, #1059	; 0x423
 9ec:	3b0b3a0e 	blcc	2cf22c <STACK_SRV_SIZE+0x28f22c>
 9f0:	1c13490b 			; <UNDEFINED> instruction: 0x1c13490b
 9f4:	24000006 	strcs	r0, [r0], #-6
 9f8:	0e030034 	mcreq	0, 0, r0, cr3, cr4, {1}
 9fc:	0b3b0b3a 	bleq	ec36ec <STACK_SRV_SIZE+0xe836ec>
 a00:	17021349 	strne	r1, [r2, -r9, asr #6]
 a04:	34250000 	strtcc	r0, [r5], #-0
 a08:	3a080300 	bcc	201610 <STACK_SRV_SIZE+0x1c1610>
 a0c:	490b3b0b 	stmdbmi	fp, {r0, r1, r3, r8, r9, fp, ip, sp}
 a10:	00170213 	andseq	r0, r7, r3, lsl r2
 a14:	012e2600 			; <UNDEFINED> instruction: 0x012e2600
 a18:	0b3a0e03 	bleq	e8422c <STACK_SRV_SIZE+0xe4422c>
 a1c:	19270b3b 	stmdbne	r7!, {r0, r1, r3, r4, r5, r8, r9, fp}
 a20:	0b201349 	bleq	80574c <STACK_SRV_SIZE+0x7c574c>
 a24:	01000000 	mrseq	r0, (UNDEF: 0)
 a28:	0e250111 	mcreq	1, 1, r0, cr5, cr1, {0}
 a2c:	0e030b13 	vmoveq.32	d3[0], r0
 a30:	01110e1b 	tsteq	r1, fp, lsl lr
 a34:	17100612 			; <UNDEFINED> instruction: 0x17100612
 a38:	24020000 	strcs	r0, [r2], #-0
 a3c:	3e0b0b00 	vmlacc.f64	d0, d11, d0
 a40:	000e030b 	andeq	r0, lr, fp, lsl #6
 a44:	00240300 	eoreq	r0, r4, r0, lsl #6
 a48:	0b3e0b0b 	bleq	f8367c <STACK_SRV_SIZE+0xf4367c>
 a4c:	00000803 	andeq	r0, r0, r3, lsl #16
 a50:	0b000f04 	bleq	4668 <__spl_size+0x2dc4>
 a54:	0500000b 	streq	r0, [r0, #-11]
 a58:	13490026 	movtne	r0, #36902	; 0x9026
 a5c:	0f060000 	svceq	0x00060000
 a60:	490b0b00 	stmdbmi	fp, {r8, r9, fp}
 a64:	07000013 	smladeq	r0, r3, r0, r0
 a68:	193f012e 	ldmdbne	pc!, {r1, r2, r3, r5, r8}	; <UNPREDICTABLE>
 a6c:	0b3a0e03 	bleq	e84280 <STACK_SRV_SIZE+0xe44280>
 a70:	19270b3b 	stmdbne	r7!, {r0, r1, r3, r4, r5, r8, r9, fp}
 a74:	06120111 			; <UNDEFINED> instruction: 0x06120111
 a78:	42971840 	addsmi	r1, r7, #64, 16	; 0x400000
 a7c:	00130119 	andseq	r0, r3, r9, lsl r1
 a80:	00050800 	andeq	r0, r5, r0, lsl #16
 a84:	0b3a0e03 	bleq	e84298 <STACK_SRV_SIZE+0xe44298>
 a88:	13490b3b 	movtne	r0, #39739	; 0x9b3b
 a8c:	00001802 	andeq	r1, r0, r2, lsl #16
 a90:	3f002e09 	svccc	0x00002e09
 a94:	3a0e0319 	bcc	381700 <STACK_SRV_SIZE+0x341700>
 a98:	110b3b0b 	tstne	fp, fp, lsl #22
 a9c:	40061201 	andmi	r1, r6, r1, lsl #4
 aa0:	19429718 	stmdbne	r2, {r3, r4, r8, r9, sl, ip, pc}^
 aa4:	2e0a0000 	cdpcs	0, 0, cr0, cr10, cr0, {0}
 aa8:	03193f01 	tsteq	r9, #1, 30
 aac:	3b0b3a0e 	blcc	2cf2ec <STACK_SRV_SIZE+0x28f2ec>
 ab0:	2019270b 	andscs	r2, r9, fp, lsl #14
 ab4:	0013010b 	andseq	r0, r3, fp, lsl #2
 ab8:	00050b00 	andeq	r0, r5, r0, lsl #22
 abc:	0b3a0803 	bleq	e82ad0 <STACK_SRV_SIZE+0xe42ad0>
 ac0:	13490b3b 	movtne	r0, #39739	; 0x9b3b
 ac4:	2e0c0000 	cdpcs	0, 0, cr0, cr12, cr0, {0}
 ac8:	03193f01 	tsteq	r9, #1, 30
 acc:	3b0b3a0e 	blcc	2cf30c <STACK_SRV_SIZE+0x28f30c>
 ad0:	4919270b 	ldmdbmi	r9, {r0, r1, r3, r8, r9, sl, sp}
 ad4:	12011113 	andne	r1, r1, #-1073741820	; 0xc0000004
 ad8:	97184006 	ldrls	r4, [r8, -r6]
 adc:	13011942 	movwne	r1, #6466	; 0x1942
 ae0:	050d0000 	streq	r0, [sp, #-0]
 ae4:	3a0e0300 	bcc	3816ec <STACK_SRV_SIZE+0x3416ec>
 ae8:	490b3b0b 	stmdbmi	fp, {r0, r1, r3, r8, r9, fp, ip, sp}
 aec:	00170213 	andseq	r0, r7, r3, lsl r2
 af0:	012e0e00 			; <UNDEFINED> instruction: 0x012e0e00
 af4:	0e03193f 			; <UNDEFINED> instruction: 0x0e03193f
 af8:	0b3b0b3a 	bleq	ec37e8 <STACK_SRV_SIZE+0xe837e8>
 afc:	193c1349 	ldmdbne	ip!, {r0, r3, r6, r8, r9, ip}
 b00:	00001301 	andeq	r1, r0, r1, lsl #6
 b04:	0000180f 	andeq	r1, r0, pc, lsl #16
 b08:	82891000 	addhi	r1, r9, #0
 b0c:	01110101 	tsteq	r1, r1, lsl #2
 b10:	13011331 	movwne	r1, #4913	; 0x1331
 b14:	8a110000 	bhi	440b1c <STACK_SRV_SIZE+0x400b1c>
 b18:	02000182 	andeq	r0, r0, #-2147483616	; 0x80000020
 b1c:	18429118 	stmdane	r2, {r3, r4, r8, ip, pc}^
 b20:	89120000 	ldmdbhi	r2, {}	; <UNPREDICTABLE>
 b24:	11010182 	smlabbne	r1, r2, r1, r0
 b28:	00133101 	andseq	r3, r3, r1, lsl #2
 b2c:	012e1300 			; <UNDEFINED> instruction: 0x012e1300
 b30:	01111331 	tsteq	r1, r1, lsr r3
 b34:	18400612 	stmdane	r0, {r1, r4, r9, sl}^
 b38:	01194297 			; <UNDEFINED> instruction: 0x01194297
 b3c:	14000013 	strne	r0, [r0], #-19	; 0xffffffed
 b40:	13310005 	teqne	r1, #5
 b44:	00001802 	andeq	r1, r0, r2, lsl #16
 b48:	3f002e15 	svccc	0x00002e15
 b4c:	6e193c19 	mrcvs	12, 0, r3, cr9, cr9, {0}
 b50:	3a0e030e 	bcc	381790 <STACK_SRV_SIZE+0x341790>
 b54:	000b3b0b 	andeq	r3, fp, fp, lsl #22
 b58:	11010000 	mrsne	r0, (UNDEF: 1)
 b5c:	130e2501 	movwne	r2, #58625	; 0xe501
 b60:	1b0e030b 	blne	381794 <STACK_SRV_SIZE+0x341794>
 b64:	1201110e 	andne	r1, r1, #-2147483645	; 0x80000003
 b68:	00171006 	andseq	r1, r7, r6
 b6c:	00240200 	eoreq	r0, r4, r0, lsl #4
 b70:	0b3e0b0b 	bleq	f837a4 <STACK_SRV_SIZE+0xf437a4>
 b74:	00000e03 	andeq	r0, r0, r3, lsl #28
 b78:	03001603 	movweq	r1, #1539	; 0x603
 b7c:	3b0b3a0e 	blcc	2cf3bc <STACK_SRV_SIZE+0x28f3bc>
 b80:	0013490b 	andseq	r4, r3, fp, lsl #18
 b84:	00240400 	eoreq	r0, r4, r0, lsl #8
 b88:	0b3e0b0b 	bleq	f837bc <STACK_SRV_SIZE+0xf437bc>
 b8c:	00000803 	andeq	r0, r0, r3, lsl #16
 b90:	0b000f05 	bleq	47ac <__spl_size+0x2f08>
 b94:	0600000b 	streq	r0, [r0], -fp
 b98:	13490101 	movtne	r0, #37121	; 0x9101
 b9c:	00001301 	andeq	r1, r0, r1, lsl #6
 ba0:	00002107 	andeq	r2, r0, r7, lsl #2
 ba4:	00340800 	eorseq	r0, r4, r0, lsl #16
 ba8:	0b3a0e03 	bleq	e843bc <STACK_SRV_SIZE+0xe443bc>
 bac:	13490b3b 	movtne	r0, #39739	; 0x9b3b
 bb0:	193c193f 	ldmdbne	ip!, {r0, r1, r2, r3, r4, r5, r8, fp, ip}
 bb4:	13090000 	movwne	r0, #36864	; 0x9000
 bb8:	0b0e0301 	bleq	3817c4 <STACK_SRV_SIZE+0x3417c4>
 bbc:	3b0b3a05 	blcc	2cf3d8 <STACK_SRV_SIZE+0x28f3d8>
 bc0:	0013010b 	andseq	r0, r3, fp, lsl #2
 bc4:	000d0a00 	andeq	r0, sp, r0, lsl #20
 bc8:	0b3a0e03 	bleq	e843dc <STACK_SRV_SIZE+0xe443dc>
 bcc:	13490b3b 	movtne	r0, #39739	; 0x9b3b
 bd0:	00000b38 	andeq	r0, r0, r8, lsr fp
 bd4:	03000d0b 	movweq	r0, #3339	; 0xd0b
 bd8:	3b0b3a08 	blcc	2cf400 <STACK_SRV_SIZE+0x28f400>
 bdc:	3813490b 	ldmdacc	r3, {r0, r1, r3, r8, fp, lr}
 be0:	0c00000b 	stceq	0, cr0, [r0], {11}
 be4:	13490021 	movtne	r0, #36897	; 0x9021
 be8:	00000b2f 	andeq	r0, r0, pc, lsr #22
 bec:	3f012e0d 	svccc	0x00012e0d
 bf0:	3a0e0319 	bcc	38185c <STACK_SRV_SIZE+0x34185c>
 bf4:	270b3b0b 	strcs	r3, [fp, -fp, lsl #22]
 bf8:	12011119 	andne	r1, r1, #1073741830	; 0x40000006
 bfc:	97184006 	ldrls	r4, [r8, -r6]
 c00:	13011942 	movwne	r1, #6466	; 0x1942
 c04:	340e0000 	strcc	r0, [lr], #-0
 c08:	3a080300 	bcc	201810 <STACK_SRV_SIZE+0x1c1810>
 c0c:	490b3b0b 	stmdbmi	fp, {r0, r1, r3, r8, r9, fp, ip, sp}
 c10:	0f000013 	svceq	0x00000013
 c14:	0e030034 	mcreq	0, 0, r0, cr3, cr4, {1}
 c18:	0b3b0b3a 	bleq	ec3908 <STACK_SRV_SIZE+0xe83908>
 c1c:	00001349 	andeq	r1, r0, r9, asr #6
 c20:	03003410 	movweq	r3, #1040	; 0x410
 c24:	3b0b3a0e 	blcc	2cf464 <STACK_SRV_SIZE+0x28f464>
 c28:	0213490b 	andseq	r4, r3, #180224	; 0x2c000
 c2c:	11000017 	tstne	r0, r7, lsl r0
 c30:	01018289 	smlabbeq	r1, r9, r2, r8
 c34:	13310111 	teqne	r1, #1073741828	; 0x40000004
 c38:	00001301 	andeq	r1, r0, r1, lsl #6
 c3c:	01828a12 	orreq	r8, r2, r2, lsl sl
 c40:	91180200 	tstls	r8, r0, lsl #4
 c44:	00001842 	andeq	r1, r0, r2, asr #16
 c48:	01828913 	orreq	r8, r2, r3, lsl r9
 c4c:	31011100 	mrscc	r1, (UNDEF: 17)
 c50:	14000013 	strne	r0, [r0], #-19	; 0xffffffed
 c54:	00018289 	andeq	r8, r1, r9, lsl #5
 c58:	42950111 	addsmi	r0, r5, #1073741828	; 0x40000004
 c5c:	00133119 	andseq	r3, r3, r9, lsl r1
 c60:	000f1500 	andeq	r1, pc, r0, lsl #10
 c64:	13490b0b 	movtne	r0, #39691	; 0x9b0b
 c68:	2e160000 	cdpcs	0, 1, cr0, cr6, cr0, {0}
 c6c:	3c193f00 	ldccc	15, cr3, [r9], {-0}
 c70:	030e6e19 	movweq	r6, #60953	; 0xee19
 c74:	3b0b3a0e 	blcc	2cf4b4 <STACK_SRV_SIZE+0x28f4b4>
 c78:	0000000b 	andeq	r0, r0, fp
 c7c:	25011101 	strcs	r1, [r1, #-257]	; 0xfffffeff
 c80:	030b130e 	movweq	r1, #45838	; 0xb30e
 c84:	110e1b0e 	tstne	lr, lr, lsl #22
 c88:	10061201 	andne	r1, r6, r1, lsl #4
 c8c:	02000017 	andeq	r0, r0, #23
 c90:	0b0b0024 	bleq	2c0d28 <STACK_SRV_SIZE+0x280d28>
 c94:	0e030b3e 	vmoveq.16	d3[0], r0
 c98:	24030000 	strcs	r0, [r3], #-0
 c9c:	3e0b0b00 	vmlacc.f64	d0, d11, d0
 ca0:	0008030b 	andeq	r0, r8, fp, lsl #6
 ca4:	00260400 	eoreq	r0, r6, r0, lsl #8
 ca8:	00001349 	andeq	r1, r0, r9, asr #6
 cac:	0b000f05 	bleq	48c8 <__spl_size+0x3024>
 cb0:	0013490b 	andseq	r4, r3, fp, lsl #18
 cb4:	00160600 	andseq	r0, r6, r0, lsl #12
 cb8:	0b3a0e03 	bleq	e844cc <STACK_SRV_SIZE+0xe444cc>
 cbc:	13490b3b 	movtne	r0, #39739	; 0x9b3b
 cc0:	2e070000 	cdpcs	0, 0, cr0, cr7, cr0, {0}
 cc4:	03193f01 	tsteq	r9, #1, 30
 cc8:	3b0b3a0e 	blcc	2cf508 <STACK_SRV_SIZE+0x28f508>
 ccc:	4919270b 	ldmdbmi	r9, {r0, r1, r3, r8, r9, sl, sp}
 cd0:	12011113 	andne	r1, r1, #-1073741820	; 0xc0000004
 cd4:	97184006 	ldrls	r4, [r8, -r6]
 cd8:	00001942 	andeq	r1, r0, r2, asr #18
 cdc:	03000508 	movweq	r0, #1288	; 0x508
 ce0:	3b0b3a08 	blcc	2cf508 <STACK_SRV_SIZE+0x28f508>
 ce4:	0213490b 	andseq	r4, r3, #180224	; 0x2c000
 ce8:	09000017 	stmdbeq	r0, {r0, r1, r2, r4}
 cec:	08030034 	stmdaeq	r3, {r2, r4, r5}
 cf0:	0b3b0b3a 	bleq	ec39e0 <STACK_SRV_SIZE+0xe839e0>
 cf4:	17021349 	strne	r1, [r2, -r9, asr #6]
 cf8:	Address 0x0000000000000cf8 is out of bounds.


Disassembly of section .debug_info:

00000000 <.debug_info>:
       0:	00000022 	andeq	r0, r0, r2, lsr #32
       4:	00000002 	andeq	r0, r0, r2
       8:	01040000 	mrseq	r0, (UNDEF: 4)
       c:	00000000 	andeq	r0, r0, r0
      10:	81800000 	orrhi	r0, r0, r0
      14:	8180049c 			; <UNDEFINED> instruction: 0x8180049c
      18:	00000000 	andeq	r0, r0, r0
      1c:	0000000d 	andeq	r0, r0, sp
      20:	0000003d 	andeq	r0, r0, sp, lsr r0
      24:	00228001 	eoreq	r8, r2, r1
      28:	00020000 	andeq	r0, r2, r0
      2c:	00000014 	andeq	r0, r0, r4, lsl r0
      30:	00ce0104 	sbceq	r0, lr, r4, lsl #2
      34:	04a00000 	strteq	r0, [r0], #0
      38:	05488180 	strbeq	r8, [r8, #-384]	; 0xfffffe80
      3c:	004c8180 	subeq	r8, ip, r0, lsl #3
      40:	000d0000 	andeq	r0, sp, r0
      44:	003d0000 	eorseq	r0, sp, r0
      48:	80010000 	andhi	r0, r1, r0
      4c:	0000049b 	muleq	r0, fp, r4
      50:	00280004 	eoreq	r0, r8, r4
      54:	01040000 	mrseq	r0, (UNDEF: 4)
      58:	000000cb 	andeq	r0, r0, fp, asr #1
      5c:	00019f0c 	andeq	r9, r1, ip, lsl #30
      60:	00000d00 	andeq	r0, r0, r0, lsl #26
      64:	800b7800 	andhi	r7, fp, r0, lsl #16
      68:	0000fc81 	andeq	pc, r0, r1, lsl #25
      6c:	00013300 	andeq	r3, r1, r0, lsl #6
      70:	06010200 	streq	r0, [r1], -r0, lsl #4
      74:	000000bf 	strheq	r0, [r0], -pc	; <UNPREDICTABLE>
      78:	bd080102 	stflts	f0, [r8, #-8]
      7c:	02000000 	andeq	r0, r0, #0
      80:	00590502 	subseq	r0, r9, r2, lsl #10
      84:	02020000 	andeq	r0, r2, #0
      88:	0001c707 	andeq	ip, r1, r7, lsl #14
      8c:	05040300 	streq	r0, [r4, #-768]	; 0xfffffd00
      90:	00746e69 	rsbseq	r6, r4, r9, ror #28
      94:	0001e804 	andeq	lr, r1, r4, lsl #16
      98:	53130300 	tstpl	r3, #0, 6
      9c:	02000000 	andeq	r0, r0, #0
      a0:	01920704 	orrseq	r0, r2, r4, lsl #14
      a4:	08020000 	stmdaeq	r2, {}	; <UNPREDICTABLE>
      a8:	00009605 	andeq	r9, r0, r5, lsl #12
      ac:	07080200 	streq	r0, [r8, -r0, lsl #4]
      b0:	00000188 	andeq	r0, r0, r8, lsl #3
      b4:	9b050402 	blls	1410c4 <STACK_SRV_SIZE+0x1010c4>
      b8:	02000000 	andeq	r0, r0, #0
      bc:	018d0704 	orreq	r0, sp, r4, lsl #14
      c0:	69040000 	stmdbvs	r4, {}	; <UNPREDICTABLE>
      c4:	03000000 	movweq	r0, #0
      c8:	00006127 	andeq	r6, r0, r7, lsr #2
      cc:	08010200 	stmdaeq	r1, {r9}
      d0:	000000c6 	andeq	r0, r0, r6, asr #1
      d4:	90040402 	andls	r0, r4, r2, lsl #8
      d8:	02000000 	andeq	r0, r0, #0
      dc:	01e10408 	mvneq	r0, r8, lsl #8
      e0:	ae050000 	cdpge	0, 0, cr0, cr5, cr0, {0}
      e4:	01000000 	mrseq	r0, (UNDEF: 0)
      e8:	800b7861 	andhi	r7, fp, r1, ror #16
      ec:	0000fc81 	andeq	pc, r0, r1, lsl #25
      f0:	cb9c0100 	blgt	fe7004f8 <__stack_srv_end+0x7ce7e8f0>
      f4:	06000003 	streq	r0, [r0], -r3
      f8:	006c6176 	rsbeq	r6, ip, r6, ror r1
      fc:	00486301 	subeq	r6, r8, r1, lsl #6
     100:	00000000 	andeq	r0, r0, r0
     104:	63070000 	movwvs	r0, #28672	; 0x7000
     108:	78000004 	stmdavc	r0, {r2}
     10c:	0081800b 	addeq	r8, r1, fp
     110:	01000000 	mrseq	r0, (UNDEF: 0)
     114:	0000e065 	andeq	lr, r0, r5, rrx
     118:	047a0800 	ldrbteq	r0, [sl], #-2048	; 0xfffff800
     11c:	00430000 	subeq	r0, r3, r0
     120:	6f080000 	svcvs	0x00080000
     124:	59000004 	stmdbpl	r0, {r2}
     128:	00000000 	andeq	r0, r0, r0
     12c:	00044b07 	andeq	r4, r4, r7, lsl #22
     130:	800b8000 	andhi	r8, fp, r0
     134:	00001881 	andeq	r1, r0, r1, lsl #17
     138:	fd6c0100 	stc2l	1, cr0, [ip, #-0]
     13c:	08000000 	stmdaeq	r0, {}	; <UNPREDICTABLE>
     140:	00000457 	andeq	r0, r0, r7, asr r4
     144:	00000075 	andeq	r0, r0, r5, ror r0
     148:	04630900 	strbteq	r0, [r3], #-2304	; 0xfffff700
     14c:	0b880000 	bleq	fe200154 <__stack_srv_end+0x7c97e54c>
     150:	00048180 	andeq	r8, r4, r0, lsl #3
     154:	66010000 	strvs	r0, [r1], -r0
     158:	00000123 	andeq	r0, r0, r3, lsr #2
     15c:	00047a08 	andeq	r7, r4, r8, lsl #20
     160:	00008a00 	andeq	r8, r0, r0, lsl #20
     164:	046f0800 	strbteq	r0, [pc], #-2048	; 16c <__spl_size-0x1738>
     168:	00a00000 	adceq	r0, r0, r0
     16c:	09000000 	stmdbeq	r0, {}	; <UNPREDICTABLE>
     170:	00000486 	andeq	r0, r0, r6, lsl #9
     174:	81800b8c 	orrhi	r0, r0, ip, lsl #23
     178:	00000004 	andeq	r0, r0, r4
     17c:	01406801 	cmpeq	r0, r1, lsl #16
     180:	92080000 	andls	r0, r8, #0
     184:	bc000004 	stclt	0, cr0, [r0], {4}
     188:	00000000 	andeq	r0, r0, r0
     18c:	00046309 	andeq	r6, r4, r9, lsl #6
     190:	800b9c00 	andhi	r9, fp, r0, lsl #24
     194:	00000481 	andeq	r0, r0, r1, lsl #9
     198:	666b0100 	strbtvs	r0, [fp], -r0, lsl #2
     19c:	08000001 	stmdaeq	r0, {r0}
     1a0:	0000047a 	andeq	r0, r0, sl, ror r4
     1a4:	000000d8 	ldrdeq	r0, [r0], -r8
     1a8:	00046f08 	andeq	r6, r4, r8, lsl #30
     1ac:	0000eb00 	andeq	lr, r0, r0, lsl #22
     1b0:	63070000 	movwvs	r0, #28672	; 0x7000
     1b4:	a8000004 	stmdage	r0, {r2}
     1b8:	3881800b 	stmcc	r1, {r0, r1, r3, pc}
     1bc:	01000000 	mrseq	r0, (UNDEF: 0)
     1c0:	00018c6e 	andeq	r8, r1, lr, ror #24
     1c4:	047a0800 	ldrbteq	r0, [sl], #-2048	; 0xfffff800
     1c8:	01070000 	mrseq	r0, (UNDEF: 7)
     1cc:	6f080000 	svcvs	0x00080000
     1d0:	1f000004 	svcne	0x00000004
     1d4:	00000001 	andeq	r0, r0, r1
     1d8:	00044b07 	andeq	r4, r4, r7, lsl #22
     1dc:	800bac00 	andhi	sl, fp, r0, lsl #24
     1e0:	00005081 	andeq	r5, r0, r1, lsl #1
     1e4:	a96f0100 	stmdbge	pc!, {r8}^	; <UNPREDICTABLE>
     1e8:	08000001 	stmdaeq	r0, {r0}
     1ec:	00000457 	andeq	r0, r0, r7, asr r4
     1f0:	0000013b 	andeq	r0, r0, fp, lsr r1
     1f4:	04630700 	strbteq	r0, [r3], #-1792	; 0xfffff900
     1f8:	0bbc0000 	bleq	fef00200 <__stack_srv_end+0x7d67e5f8>
     1fc:	00688180 	rsbeq	r8, r8, r0, lsl #3
     200:	70010000 	andvc	r0, r1, r0
     204:	000001cf 	andeq	r0, r0, pc, asr #3
     208:	00047a08 	andeq	r7, r4, r8, lsl #20
     20c:	00015000 	andeq	r5, r1, r0
     210:	046f0800 	strbteq	r0, [pc], #-2048	; 218 <__spl_size-0x168c>
     214:	01680000 	cmneq	r8, r0
     218:	07000000 	streq	r0, [r0, -r0]
     21c:	0000044b 	andeq	r0, r0, fp, asr #8
     220:	81800bc0 	orrhi	r0, r0, r0, asr #23
     224:	00000080 	andeq	r0, r0, r0, lsl #1
     228:	01ec7101 	mvneq	r7, r1, lsl #2
     22c:	57080000 	strpl	r0, [r8, -r0]
     230:	84000004 	strhi	r0, [r0], #-4
     234:	00000001 	andeq	r0, r0, r1
     238:	00046309 	andeq	r6, r4, r9, lsl #6
     23c:	800bd000 	andhi	sp, fp, r0
     240:	00000881 	andeq	r0, r0, r1, lsl #17
     244:	12720100 	rsbsne	r0, r2, #0, 2
     248:	08000002 	stmdaeq	r0, {r1}
     24c:	0000047a 	andeq	r0, r0, sl, ror r4
     250:	00000199 	muleq	r0, r9, r1
     254:	00046f08 	andeq	r6, r4, r8, lsl #30
     258:	0001af00 	andeq	sl, r1, r0, lsl #30
     25c:	4b090000 	blmi	240264 <STACK_SRV_SIZE+0x200264>
     260:	d8000004 	stmdale	r0, {r2}
     264:	0c81800b 	stceq	0, cr8, [r1], {11}
     268:	01000000 	mrseq	r0, (UNDEF: 0)
     26c:	00022f73 	andeq	r2, r2, r3, ror pc
     270:	04570800 	ldrbeq	r0, [r7], #-2048	; 0xfffff800
     274:	01cb0000 	biceq	r0, fp, r0
     278:	09000000 	stmdbeq	r0, {}	; <UNPREDICTABLE>
     27c:	00000486 	andeq	r0, r0, r6, lsl #9
     280:	81800be4 	orrhi	r0, r0, r4, ror #23
     284:	00000004 	andeq	r0, r0, r4
     288:	024c7501 	subeq	r7, ip, #4194304	; 0x400000
     28c:	92080000 	andls	r0, r8, #0
     290:	e0000004 	and	r0, r0, r4
     294:	00000001 	andeq	r0, r0, r1
     298:	00046309 	andeq	r6, r4, r9, lsl #6
     29c:	800bf000 	andhi	pc, fp, r0
     2a0:	00000481 	andeq	r0, r0, r1, lsl #9
     2a4:	72770100 	rsbsvc	r0, r7, #0, 2
     2a8:	08000002 	stmdaeq	r0, {r1}
     2ac:	0000047a 	andeq	r0, r0, sl, ror r4
     2b0:	000001fc 	strdeq	r0, [r0], -ip
     2b4:	00046f08 	andeq	r6, r4, r8, lsl #30
     2b8:	00020f00 	andeq	r0, r2, r0, lsl #30
     2bc:	4b090000 	blmi	2402c4 <STACK_SRV_SIZE+0x2002c4>
     2c0:	f4000004 	vst4.8	{d0-d3}, [r0], r4
     2c4:	0881800b 	stmeq	r1, {r0, r1, r3, pc}
     2c8:	01000000 	mrseq	r0, (UNDEF: 0)
     2cc:	00028f78 	andeq	r8, r2, r8, ror pc
     2d0:	04570800 	ldrbeq	r0, [r7], #-2048	; 0xfffff800
     2d4:	022b0000 	eoreq	r0, fp, #0
     2d8:	09000000 	stmdbeq	r0, {}	; <UNPREDICTABLE>
     2dc:	000003cb 	andeq	r0, r0, fp, asr #7
     2e0:	81800bfc 	strdhi	r0, [r0, ip]
     2e4:	0000003c 	andeq	r0, r0, ip, lsr r0
     2e8:	036e7a01 	cmneq	lr, #4096	; 0x1000
     2ec:	d7080000 	strle	r0, [r8, -r0]
     2f0:	40000003 	andmi	r0, r0, r3
     2f4:	0a000002 	beq	304 <__spl_size-0x15a0>
     2f8:	81800bfc 	strdhi	r0, [r0, ip]
     2fc:	0000003c 	andeq	r0, r0, ip, lsr r0
     300:	0003e20b 	andeq	lr, r3, fp, lsl #4
     304:	00025800 	andeq	r5, r2, r0, lsl #16
     308:	03eb0b00 	mvneq	r0, #0, 22
     30c:	026c0000 	rsbeq	r0, ip, #0
     310:	f40b0000 	vst4.8	{d0-d3}, [fp], r0
     314:	6c000003 	stcvs	0, cr0, [r0], {3}
     318:	0c000002 	stceq	0, cr0, [r0], {2}
     31c:	000003fd 	strdeq	r0, [r0], -sp
     320:	04060b00 	streq	r0, [r6], #-2816	; 0xfffff500
     324:	02800000 	addeq	r0, r0, #0
     328:	110b0000 	mrsne	r0, (UNDEF: 11)
     32c:	d4000004 	strle	r0, [r0], #-4
     330:	09000002 	stmdbeq	r0, {r1}
     334:	00000486 	andeq	r0, r0, r6, lsl #9
     338:	81800c00 	orrhi	r0, r0, r0, lsl #24
     33c:	00000004 	andeq	r0, r0, r4
     340:	03045a01 	movweq	r5, #18945	; 0x4a01
     344:	92080000 	andls	r0, r8, #0
     348:	e8000004 	stmda	r0, {r2}
     34c:	00000002 	andeq	r0, r0, r2
     350:	00041d07 	andeq	r1, r4, r7, lsl #26
     354:	800c0400 	andhi	r0, ip, r0, lsl #8
     358:	00009881 	andeq	r9, r0, r1, lsl #17
     35c:	4a5e0100 	bmi	1780764 <STACK_SRV_SIZE+0x1740764>
     360:	0d000003 	stceq	0, cr0, [r0, #-12]
     364:	00000429 	andeq	r0, r0, r9, lsr #8
     368:	0000980e 	andeq	r9, r0, lr, lsl #16
     36c:	04340f00 	ldrteq	r0, [r4], #-3840	; 0xfffff100
     370:	3f0b0000 	svccc	0x000b0000
     374:	04000004 	streq	r0, [r0], #-4
     378:	10000003 	andne	r0, r0, r3
     37c:	00000486 	andeq	r0, r0, r6, lsl #9
     380:	81800c04 	orrhi	r0, r0, r4, lsl #24
     384:	000000b0 	strheq	r0, [r0], -r0	; <UNPREDICTABLE>
     388:	92082e01 	andls	r2, r8, #1, 28
     38c:	28000004 	stmdacs	r0, {r2}
     390:	00000003 	andeq	r0, r0, r3
     394:	63110000 	tstvs	r1, #0
     398:	14000004 	strne	r0, [r0], #-4
     39c:	0481800c 	streq	r8, [r1], #12
     3a0:	01000000 	mrseq	r0, (UNDEF: 0)
     3a4:	047a085d 	ldrbteq	r0, [sl], #-2141	; 0xfffff7a3
     3a8:	03440000 	movteq	r0, #16384	; 0x4000
     3ac:	6f120000 	svcvs	0x00120000
     3b0:	00000004 	andeq	r0, r0, r4
     3b4:	0001c200 	andeq	ip, r1, r0, lsl #4
     3b8:	86070000 	strhi	r0, [r7], -r0
     3bc:	38000004 	stmdacc	r0, {r2}
     3c0:	d081800c 	addle	r8, r1, ip
     3c4:	01000000 	mrseq	r0, (UNDEF: 0)
     3c8:	00038b7b 	andeq	r8, r3, fp, ror fp
     3cc:	04920800 	ldreq	r0, [r2], #2048	; 0x800
     3d0:	03890000 	orreq	r0, r9, #0
     3d4:	07000000 	streq	r0, [r0, -r0]
     3d8:	0000044b 	andeq	r0, r0, fp, asr #8
     3dc:	81800c3c 	orrhi	r0, r0, ip, lsr ip
     3e0:	000000e8 	andeq	r0, r0, r8, ror #1
     3e4:	03a87f01 			; <UNDEFINED> instruction: 0x03a87f01
     3e8:	57080000 	strpl	r0, [r8, -r0]
     3ec:	a5000004 	strge	r0, [r0, #-4]
     3f0:	00000003 	andeq	r0, r0, r3
     3f4:	00046311 	andeq	r6, r4, r1, lsl r3
     3f8:	800c4c00 	andhi	r4, ip, r0, lsl #24
     3fc:	00000481 	andeq	r0, r0, r1, lsl #9
     400:	087e0100 	ldmdaeq	lr!, {r8}^
     404:	0000047a 	andeq	r0, r0, sl, ror r4
     408:	000003ba 			; <UNDEFINED> instruction: 0x000003ba
     40c:	00046f08 	andeq	r6, r4, r8, lsl #30
     410:	0003cd00 	andeq	ip, r3, r0, lsl #26
     414:	13000000 	movwne	r0, #0
     418:	000001b5 			; <UNDEFINED> instruction: 0x000001b5
     41c:	1d013301 	stcne	3, cr3, [r1, #-4]
     420:	14000004 	strne	r0, [r0], #-4
     424:	006b6c63 	rsbeq	r6, fp, r3, ror #24
     428:	00483301 	subeq	r3, r8, r1, lsl #6
     42c:	6e150000 	cdpvs	0, 1, cr0, cr5, cr0, {0}
     430:	48350100 	ldmdami	r5!, {r8}
     434:	15000000 	strne	r0, [r0, #-0]
     438:	3501006b 	strcc	r0, [r1, #-107]	; 0xffffff95
     43c:	00000048 	andeq	r0, r0, r8, asr #32
     440:	01006d15 	tsteq	r0, r5, lsl sp
     444:	00004835 	andeq	r4, r0, r5, lsr r8
     448:	00701500 	rsbseq	r1, r0, r0, lsl #10
     44c:	00483501 	subeq	r3, r8, r1, lsl #10
     450:	a9160000 	ldmdbge	r6, {}	; <UNPREDICTABLE>
     454:	01000000 	mrseq	r0, (UNDEF: 0)
     458:	00004836 	andeq	r4, r0, r6, lsr r8
     45c:	69641500 	stmdbvs	r4!, {r8, sl, ip}^
     460:	37010076 	smlsdxcc	r1, r6, r0, r0
     464:	00000048 	andeq	r0, r0, r8, asr #32
     468:	00781300 	rsbseq	r1, r8, r0, lsl #6
     46c:	28010000 	stmdacs	r1, {}	; <UNPREDICTABLE>
     470:	00044b01 	andeq	r4, r4, r1, lsl #22
     474:	01f51700 	mvnseq	r1, r0, lsl #14
     478:	28010000 	stmdacs	r1, {}	; <UNPREDICTABLE>
     47c:	00000048 	andeq	r0, r0, r8, asr #32
     480:	0000a916 	andeq	sl, r0, r6, lsl r9
     484:	482a0100 	stmdami	sl!, {r8}
     488:	16000000 	strne	r0, [r0], -r0
     48c:	000001b0 			; <UNDEFINED> instruction: 0x000001b0
     490:	00482b01 	subeq	r2, r8, r1, lsl #22
     494:	13000000 	movwne	r0, #0
     498:	000001da 	ldrdeq	r0, [r0], -sl
     49c:	63032201 	movwvs	r2, #12801	; 0x3201
     4a0:	17000004 	strne	r0, [r0, -r4]
     4a4:	00000063 	andeq	r0, r0, r3, rrx
     4a8:	00412201 	subeq	r2, r1, r1, lsl #4
     4ac:	13000000 	movwne	r0, #0
     4b0:	00000088 	andeq	r0, r0, r8, lsl #1
     4b4:	86032802 	strhi	r2, [r3], -r2, lsl #16
     4b8:	17000004 	strne	r0, [r0, -r4]
     4bc:	000000a4 	andeq	r0, r0, r4, lsr #1
     4c0:	00762802 	rsbseq	r2, r6, r2, lsl #16
     4c4:	56170000 	ldrpl	r0, [r7], -r0
     4c8:	02000005 	andeq	r0, r0, #5
     4cc:	00004828 	andeq	r4, r0, r8, lsr #16
     4d0:	ee180000 	cdp	0, 1, cr0, cr8, cr0, {0}
     4d4:	02000001 	andeq	r0, r0, #1
     4d8:	00004814 	andeq	r4, r0, r4, lsl r8
     4dc:	a4170300 	ldrge	r0, [r7], #-768	; 0xfffffd00
     4e0:	02000000 	andeq	r0, r0, #0
     4e4:	00007614 	andeq	r7, r0, r4, lsl r6
     4e8:	cf000000 	svcgt	0x00000000
     4ec:	04000000 	streq	r0, [r0], #-0
     4f0:	00016000 	andeq	r6, r1, r0
     4f4:	cb010400 	blgt	414fc <STACK_SRV_SIZE+0x14fc>
     4f8:	0c000000 	stceq	0, cr0, [r0], {-0}
     4fc:	00000218 	andeq	r0, r0, r8, lsl r2
     500:	0000000d 	andeq	r0, r0, sp
     504:	818018a4 	orrhi	r1, r0, r4, lsr #17
     508:	00000008 	andeq	r0, r0, r8
     50c:	00000250 	andeq	r0, r0, r0, asr r2
     510:	bf060102 	svclt	0x00060102
     514:	02000000 	andeq	r0, r0, #0
     518:	00bd0801 	adcseq	r0, sp, r1, lsl #16
     51c:	02020000 	andeq	r0, r2, #0
     520:	00005905 	andeq	r5, r0, r5, lsl #18
     524:	07020200 	streq	r0, [r2, -r0, lsl #4]
     528:	000001c7 	andeq	r0, r0, r7, asr #3
     52c:	69050403 	stmdbvs	r5, {r0, r1, sl}
     530:	0400746e 	streq	r7, [r0], #-1134	; 0xfffffb92
     534:	000001e8 	andeq	r0, r0, r8, ror #3
     538:	00531302 	subseq	r1, r3, r2, lsl #6
     53c:	04020000 	streq	r0, [r2], #-0
     540:	00019207 	andeq	r9, r1, r7, lsl #4
     544:	05080200 	streq	r0, [r8, #-512]	; 0xfffffe00
     548:	00000096 	muleq	r0, r6, r0
     54c:	88070802 	stmdahi	r7, {r1, fp}
     550:	02000001 	andeq	r0, r0, #1
     554:	009b0504 	addseq	r0, fp, r4, lsl #10
     558:	04020000 	streq	r0, [r2], #-0
     55c:	00018d07 	andeq	r8, r1, r7, lsl #26
     560:	08010200 	stmdaeq	r1, {r9}
     564:	000000c6 	andeq	r0, r0, r6, asr #1
     568:	90040402 	andls	r0, r4, r2, lsl #8
     56c:	02000000 	andeq	r0, r0, #0
     570:	01e10408 	mvneq	r0, r8, lsl #8
     574:	0f040000 	svceq	0x00040000
     578:	03000002 	movweq	r0, #2
     57c:	00004811 	andeq	r4, r0, r1, lsl r8
     580:	008b0500 	addeq	r0, fp, r0, lsl #10
     584:	00a70000 	adceq	r0, r7, r0
     588:	53060000 	movwpl	r0, #24576	; 0x6000
     58c:	ff000000 			; <UNDEFINED> instruction: 0xff000000
     590:	2307000f 	movwcs	r0, #28687	; 0x700f
     594:	01000002 	tsteq	r0, r2
     598:	00009627 	andeq	r9, r0, r7, lsr #12
     59c:	08400000 	stmdaeq	r0, {}^	; <UNPREDICTABLE>
     5a0:	00000204 	andeq	r0, r0, r4, lsl #4
     5a4:	fa095401 	blx	2555b0 <STACK_SRV_SIZE+0x2155b0>
     5a8:	01000001 	tsteq	r0, r1
     5ac:	bb0a0149 	bllt	280ad8 <STACK_SRV_SIZE+0x240ad8>
     5b0:	a4000000 	strge	r0, [r0], #-0
     5b4:	04818018 	streq	r8, [r1], #24
     5b8:	01000000 	mrseq	r0, (UNDEF: 0)
     5bc:	1202009c 	andne	r0, r2, #156	; 0x9c
     5c0:	00040000 	andeq	r0, r4, r0
     5c4:	000001e9 	andeq	r0, r0, r9, ror #3
     5c8:	00cb0104 	sbceq	r0, fp, r4, lsl #2
     5cc:	670c0000 	strvs	r0, [ip, -r0]
     5d0:	0d000003 	stceq	0, cr0, [r0, #-12]
     5d4:	74000000 	strvc	r0, [r0], #-0
     5d8:	6c81800c 	stcvs	0, cr8, [r1], {12}
     5dc:	bd000009 	stclt	0, cr0, [r0, #-36]	; 0xffffffdc
     5e0:	02000002 	andeq	r0, r0, #2
     5e4:	01880708 	orreq	r0, r8, r8, lsl #14
     5e8:	04020000 	streq	r0, [r2], #-0
     5ec:	00019207 	andeq	r9, r1, r7, lsl #4
     5f0:	06010200 	streq	r0, [r1], -r0, lsl #4
     5f4:	000000bf 	strheq	r0, [r0], -pc	; <UNPREDICTABLE>
     5f8:	bd080102 	stflts	f0, [r8, #-8]
     5fc:	02000000 	andeq	r0, r0, #0
     600:	00590502 	subseq	r0, r9, r2, lsl #10
     604:	02020000 	andeq	r0, r2, #0
     608:	0001c707 	andeq	ip, r1, r7, lsl #14
     60c:	05040300 	streq	r0, [r4, #-768]	; 0xfffffd00
     610:	00746e69 	rsbseq	r6, r4, r9, ror #28
     614:	0001e804 	andeq	lr, r1, r4, lsl #16
     618:	2c130300 	ldccs	3, cr0, [r3], {-0}
     61c:	02000000 	andeq	r0, r0, #0
     620:	00960508 	addseq	r0, r6, r8, lsl #10
     624:	04020000 	streq	r0, [r2], #-0
     628:	00009b05 	andeq	r9, r0, r5, lsl #22
     62c:	07040200 	streq	r0, [r4, -r0, lsl #4]
     630:	0000018d 	andeq	r0, r0, sp, lsl #3
     634:	00006904 	andeq	r6, r0, r4, lsl #18
     638:	25270300 	strcs	r0, [r7, #-768]!	; 0xfffffd00
     63c:	02000000 	andeq	r0, r0, #0
     640:	00c60801 	sbceq	r0, r6, r1, lsl #16
     644:	04020000 	streq	r0, [r2], #-0
     648:	00009004 	andeq	r9, r0, r4
     64c:	04080200 	streq	r0, [r8], #-512	; 0xfffffe00
     650:	000001e1 	andeq	r0, r0, r1, ror #3
     654:	00024e05 	andeq	r4, r2, r5, lsl #28
     658:	3a010700 	bcc	42260 <STACK_SRV_SIZE+0x2260>
     65c:	01000000 	mrseq	r0, (UNDEF: 0)
     660:	0000ba32 	andeq	fp, r0, r2, lsr sl
     664:	03350600 	teqeq	r5, #0, 12
     668:	06000000 	streq	r0, [r0], -r0
     66c:	0000028e 	andeq	r0, r0, lr, lsl #5
     670:	03b90601 			; <UNDEFINED> instruction: 0x03b90601
     674:	00020000 	andeq	r0, r2, r0
     678:	00037707 	andeq	r7, r3, r7, lsl #14
     67c:	39013000 	stmdbcc	r1, {ip, sp}
     680:	00000157 	andeq	r0, r0, r7, asr r1
     684:	0001f508 	andeq	pc, r1, r8, lsl #10
     688:	563b0100 	ldrtpl	r0, [fp], -r0, lsl #2
     68c:	00000000 	andeq	r0, r0, r0
     690:	0002fd08 	andeq	pc, r2, r8, lsl #26
     694:	563c0100 	ldrtpl	r0, [ip], -r0, lsl #2
     698:	04000000 	streq	r0, [r0], #-0
     69c:	6b6c6309 	blvs	1b192c8 <STACK_SRV_SIZE+0x1ad92c8>
     6a0:	563d0100 	ldrtpl	r0, [sp], -r0, lsl #2
     6a4:	08000000 	stmdaeq	r0, {}	; <UNPREDICTABLE>
     6a8:	00029c08 	andeq	r9, r2, r8, lsl #24
     6ac:	563e0100 	ldrtpl	r0, [lr], -r0, lsl #2
     6b0:	0c000000 	stceq	0, cr0, [r0], {-0}
     6b4:	00024108 	andeq	r4, r2, r8, lsl #2
     6b8:	563f0100 	ldrtpl	r0, [pc], -r0, lsl #2
     6bc:	10000000 	andne	r0, r0, r0
     6c0:	0002da08 	andeq	sp, r2, r8, lsl #20
     6c4:	56400100 	strbpl	r0, [r0], -r0, lsl #2
     6c8:	14000000 	strne	r0, [r0], #-0
     6cc:	00032208 	andeq	r2, r3, r8, lsl #4
     6d0:	96410100 	strbls	r0, [r1], -r0, lsl #2
     6d4:	18000000 	stmdane	r0, {}	; <UNPREDICTABLE>
     6d8:	00030208 	andeq	r0, r3, r8, lsl #4
     6dc:	56420100 	strbpl	r0, [r2], -r0, lsl #2
     6e0:	1c000000 	stcne	0, cr0, [r0], {-0}
     6e4:	00022d08 	andeq	r2, r2, r8, lsl #26
     6e8:	56430100 	strbpl	r0, [r3], -r0, lsl #2
     6ec:	20000000 	andcs	r0, r0, r0
     6f0:	00023708 	andeq	r3, r2, r8, lsl #14
     6f4:	56440100 	strbpl	r0, [r4], -r0, lsl #2
     6f8:	24000000 	strcs	r0, [r0], #-0
     6fc:	0002f808 	andeq	pc, r2, r8, lsl #16
     700:	56450100 	strbpl	r0, [r5], -r0, lsl #2
     704:	28000000 	stmdacs	r0, {}	; <UNPREDICTABLE>
     708:	73616309 	cmnvc	r1, #603979776	; 0x24000000
     70c:	56460100 	strbpl	r0, [r6], -r0, lsl #2
     710:	2c000000 	stccs	0, cr0, [r0], {-0}
     714:	03c80a00 	biceq	r0, r8, #0, 20
     718:	ea010000 	b	40720 <STACK_SRV_SIZE+0x720>
     71c:	800ef801 	andhi	pc, lr, r1, lsl #16
     720:	0006e881 	andeq	lr, r6, r1, lsl #17
     724:	c99c0100 	ldmibgt	ip, {r8}
     728:	0b000009 	bleq	754 <__spl_size-0x1150>
     72c:	000002d5 	ldrdeq	r0, [r0], -r5
     730:	ba01ec01 	blt	7b73c <STACK_SRV_SIZE+0x3b73c>
     734:	02000000 	andeq	r0, r0, #0
     738:	640c4891 	strvs	r4, [ip], #-2193	; 0xfffff76f
     73c:	01007a73 	tsteq	r0, r3, ror sl
     740:	09c901ed 	stmibeq	r9, {r0, r2, r3, r5, r6, r7, r8}^
     744:	0d5c0000 	ldcleq	0, cr0, [ip, #-0]
     748:	000009cf 	andeq	r0, r0, pc, asr #19
     74c:	81800f68 	orrhi	r0, r0, r8, ror #30
     750:	000002c0 	andeq	r0, r0, r0, asr #5
     754:	0e01fe01 	cdpeq	14, 0, cr15, cr1, cr1, {0}
     758:	000009e0 	andeq	r0, r0, r0, ror #19
     75c:	000003e9 	andeq	r0, r0, r9, ror #7
     760:	0002c00f 	andeq	ip, r2, pc
     764:	09ec1000 	stmibeq	ip!, {ip}^
     768:	04070000 	streq	r0, [r7], #-0
     76c:	f8100000 			; <UNDEFINED> instruction: 0xf8100000
     770:	ec000009 	stc	0, cr0, [r0], {9}
     774:	11000004 	tstne	r0, r4
     778:	00000c94 	muleq	r0, r4, ip
     77c:	81800f68 	orrhi	r0, r0, r8, ror #30
     780:	000002d8 	ldrdeq	r0, [r0], -r8
     784:	d7019501 	strle	r9, [r1, -r1, lsl #10]
     788:	0e000001 	cdpeq	0, 0, cr0, cr0, cr1, {0}
     78c:	00000ca4 	andeq	r0, r0, r4, lsr #25
     790:	00000524 	andeq	r0, r0, r4, lsr #10
     794:	0c421100 	stfeqe	f1, [r2], {-0}
     798:	0f6c0000 	svceq	0x006c0000
     79c:	02f08180 	rscseq	r8, r0, #128, 2
     7a0:	96010000 	strls	r0, [r1], -r0
     7a4:	00020e01 	andeq	r0, r2, r1, lsl #28
     7a8:	0c4e0e00 	mcrreq	14, 0, r0, lr, cr0
     7ac:	05400000 	strbeq	r0, [r0, #-0]
     7b0:	59120000 	ldmdbpl	r2, {}	; <UNPREDICTABLE>
     7b4:	6c00000c 	stcvs	0, cr0, [r0], {12}
     7b8:	f081800f 			; <UNDEFINED> instruction: 0xf081800f
     7bc:	01000002 	tsteq	r0, r2
     7c0:	0c650e51 	stcleq	14, cr0, [r5], #-324	; 0xfffffebc
     7c4:	05540000 	ldrbeq	r0, [r4, #-0]
     7c8:	00000000 	andeq	r0, r0, r0
     7cc:	000c7113 	andeq	r7, ip, r3, lsl r1
     7d0:	800f7800 	andhi	r7, pc, r0, lsl #16
     7d4:	00000481 	andeq	r0, r0, r1, lsl #9
     7d8:	01950100 	orrseq	r0, r5, r0, lsl #2
     7dc:	00000235 	andeq	r0, r0, r5, lsr r2
     7e0:	000c880e 	andeq	r8, ip, lr, lsl #16
     7e4:	00056a00 	andeq	r6, r5, r0, lsl #20
     7e8:	0c7d0e00 	ldcleq	14, cr0, [sp], #-0
     7ec:	057d0000 	ldrbeq	r0, [sp, #-0]!
     7f0:	13000000 	movwne	r0, #0
     7f4:	00000c94 	muleq	r0, r4, ip
     7f8:	81800f8c 	orrhi	r0, r0, ip, lsl #31
     7fc:	00000004 	andeq	r0, r0, r4
     800:	53019901 	movwpl	r9, #6401	; 0x1901
     804:	0e000002 	cdpeq	0, 0, cr0, cr0, cr2, {0}
     808:	00000ca4 	andeq	r0, r0, r4, lsr #25
     80c:	00000599 	muleq	r0, r9, r5
     810:	0c711300 	ldcleq	3, cr1, [r1], #-0
     814:	0f940000 	svceq	0x00940000
     818:	00048180 	andeq	r8, r4, r0, lsl #3
     81c:	99010000 	stmdbls	r1, {}	; <UNPREDICTABLE>
     820:	00027a01 	andeq	r7, r2, r1, lsl #20
     824:	0c880e00 	stceq	14, cr0, [r8], {0}
     828:	05b50000 	ldreq	r0, [r5, #0]!
     82c:	7d140000 	ldcvc	0, cr0, [r4, #-0]
     830:	c400000c 	strgt	r0, [r0], #-12
     834:	0001c20a 	andeq	ip, r1, sl, lsl #4
     838:	000c7113 	andeq	r7, ip, r3, lsl r1
     83c:	800fa400 	andhi	sl, pc, r0, lsl #8
     840:	00001081 	andeq	r1, r0, r1, lsl #1
     844:	019d0100 	orrseq	r0, sp, r0, lsl #2
     848:	0000029f 	muleq	r0, pc, r2	; <UNPREDICTABLE>
     84c:	000c8815 	andeq	r8, ip, r5, lsl r8
     850:	140aaa00 	strne	sl, [sl], #-2560	; 0xfffff600
     854:	00000c7d 	andeq	r0, r0, sp, ror ip
     858:	01c20ac0 	biceq	r0, r2, r0, asr #21
     85c:	0c711300 	ldcleq	3, cr1, [r1], #-0
     860:	0fb80000 	svceq	0x00b80000
     864:	00108180 	andseq	r8, r0, r0, lsl #3
     868:	a1010000 	mrsge	r0, (UNDEF: 1)
     86c:	0002c401 	andeq	ip, r2, r1, lsl #8
     870:	0c881500 	cfstr32eq	mvfx1, [r8], {0}
     874:	0fff0000 	svceq	0x00ff0000
     878:	000c7d14 	andeq	r7, ip, r4, lsl sp
     87c:	c20ac000 	andgt	ip, sl, #0
     880:	71130001 	tstvc	r3, r1
     884:	0400000c 	streq	r0, [r0], #-12
     888:	10818010 	addne	r8, r1, r0, lsl r0
     88c:	01000000 	mrseq	r0, (UNDEF: 0)
     890:	02eb01ae 	rsceq	r0, fp, #-2147483605	; 0x8000002b
     894:	880e0000 	stmdahi	lr, {}	; <UNPREDICTABLE>
     898:	c800000c 	stmdagt	r0, {r2, r3}
     89c:	0e000005 	cdpeq	0, 0, cr0, cr0, cr5, {0}
     8a0:	00000c7d 	andeq	r0, r0, sp, ror ip
     8a4:	000005e0 	andeq	r0, r0, r0, ror #11
     8a8:	0c711100 	ldfeqe	f1, [r1], #-0
     8ac:	10180000 	andsne	r0, r8, r0
     8b0:	03088180 	movweq	r8, #33152	; 0x8180
     8b4:	c0010000 	andgt	r0, r1, r0
     8b8:	00031201 	andeq	r1, r3, r1, lsl #4
     8bc:	0c880e00 	stceq	14, cr0, [r8], {0}
     8c0:	05fc0000 	ldrbeq	r0, [ip, #0]!
     8c4:	7d0e0000 	stcvc	0, cr0, [lr, #-0]
     8c8:	0f00000c 	svceq	0x0000000c
     8cc:	00000006 	andeq	r0, r0, r6
     8d0:	000c9413 	andeq	r9, ip, r3, lsl r4
     8d4:	80102400 	andshi	r2, r0, r0, lsl #8
     8d8:	00000481 	andeq	r0, r0, r1, lsl #9
     8dc:	01c10100 	biceq	r0, r1, r0, lsl #2
     8e0:	00000330 	andeq	r0, r0, r0, lsr r3
     8e4:	000ca40e 	andeq	sl, ip, lr, lsl #8
     8e8:	00062b00 	andeq	r2, r6, r0, lsl #22
     8ec:	94110000 	ldrls	r0, [r1], #-0
     8f0:	2800000c 	stmdacs	r0, {r2, r3}
     8f4:	20818010 	addcs	r8, r1, r0, lsl r0
     8f8:	01000003 	tsteq	r0, r3
     8fc:	034e01c2 	movteq	r0, #57794	; 0xe1c2
     900:	a40e0000 	strge	r0, [lr], #-0
     904:	4700000c 	strmi	r0, [r0, -ip]
     908:	00000006 	andeq	r0, r0, r6
     90c:	000c7113 	andeq	r7, ip, r3, lsl r1
     910:	80103000 	andshi	r3, r0, r0
     914:	00000481 	andeq	r0, r0, r1, lsl #9
     918:	01c10100 	biceq	r0, r1, r0, lsl #2
     91c:	00000375 	andeq	r0, r0, r5, ror r3
     920:	000c880e 	andeq	r8, ip, lr, lsl #16
     924:	00066300 	andeq	r6, r6, r0, lsl #6
     928:	0c7d0e00 	ldcleq	14, cr0, [sp], #-0
     92c:	06760000 	ldrbteq	r0, [r6], -r0
     930:	13000000 	movwne	r0, #0
     934:	00000c42 	andeq	r0, r0, r2, asr #24
     938:	81801040 	orrhi	r1, r0, r0, asr #32
     93c:	0000000c 	andeq	r0, r0, ip
     940:	ac01c301 	stcge	3, cr12, [r1], {1}
     944:	0e000003 	cdpeq	0, 0, cr0, cr0, cr3, {0}
     948:	00000c4e 	andeq	r0, r0, lr, asr #24
     94c:	000006ba 			; <UNDEFINED> instruction: 0x000006ba
     950:	000c5916 	andeq	r5, ip, r6, lsl r9
     954:	80104000 	andshi	r4, r0, r0
     958:	00000c81 	andeq	r0, r0, r1, lsl #25
     95c:	0e510100 	rdfeqs	f0, f1, f0
     960:	00000c65 	andeq	r0, r0, r5, ror #24
     964:	000006ce 	andeq	r0, r0, lr, asr #13
     968:	94130000 	ldrls	r0, [r3], #-0
     96c:	4c00000c 	stcmi	0, cr0, [r0], {12}
     970:	04818010 	streq	r8, [r1], #16
     974:	01000000 	mrseq	r0, (UNDEF: 0)
     978:	03ca01c4 	biceq	r0, sl, #196, 2	; 0x31
     97c:	a40e0000 	strge	r0, [lr], #-0
     980:	e400000c 	str	r0, [r0], #-12
     984:	00000006 	andeq	r0, r0, r6
     988:	000c7111 	andeq	r7, ip, r1, lsl r1
     98c:	80105000 	andshi	r5, r0, r0
     990:	00033881 	andeq	r3, r3, r1, lsl #17
     994:	01cf0100 	biceq	r0, pc, r0, lsl #2
     998:	000003f1 	strdeq	r0, [r0], -r1
     99c:	000c880e 	andeq	r8, ip, lr, lsl #16
     9a0:	00070000 	andeq	r0, r7, r0
     9a4:	0c7d0e00 	ldcleq	14, cr0, [sp], #-0
     9a8:	07180000 	ldreq	r0, [r8, -r0]
     9ac:	13000000 	movwne	r0, #0
     9b0:	00000c71 	andeq	r0, r0, r1, ror ip
     9b4:	81801058 	orrhi	r1, r0, r8, asr r0
     9b8:	00000004 	andeq	r0, r0, r4
     9bc:	1801c401 	stmdane	r1, {r0, sl, lr, pc}
     9c0:	0e000004 	cdpeq	0, 0, cr0, cr0, cr4, {0}
     9c4:	00000c88 	andeq	r0, r0, r8, lsl #25
     9c8:	00000734 	andeq	r0, r0, r4, lsr r7
     9cc:	000c7d0e 	andeq	r7, ip, lr, lsl #26
     9d0:	00074700 	andeq	r4, r7, r0, lsl #14
     9d4:	94130000 	ldrls	r0, [r3], #-0
     9d8:	5c00000c 	stcpl	0, cr0, [r0], {12}
     9dc:	04818010 	streq	r8, [r1], #16
     9e0:	01000000 	mrseq	r0, (UNDEF: 0)
     9e4:	043601c5 	ldrteq	r0, [r6], #-453	; 0xfffffe3b
     9e8:	a40e0000 	strge	r0, [lr], #-0
     9ec:	6300000c 	movwvs	r0, #12
     9f0:	00000007 	andeq	r0, r0, r7
     9f4:	000c7113 	andeq	r7, ip, r3, lsl r1
     9f8:	80106800 	andshi	r6, r0, r0, lsl #16
     9fc:	00000481 	andeq	r0, r0, r1, lsl #9
     a00:	01c50100 	biceq	r0, r5, r0, lsl #2
     a04:	0000045d 	andeq	r0, r0, sp, asr r4
     a08:	000c880e 	andeq	r8, ip, lr, lsl #16
     a0c:	00077f00 	andeq	r7, r7, r0, lsl #30
     a10:	0c7d0e00 	ldcleq	14, cr0, [sp], #-0
     a14:	07920000 	ldreq	r0, [r2, r0]
     a18:	13000000 	movwne	r0, #0
     a1c:	00000c94 	muleq	r0, r4, ip
     a20:	8180106c 	orrhi	r1, r0, ip, rrx
     a24:	00000004 	andeq	r0, r0, r4
     a28:	7b01c801 	blvc	72a34 <STACK_SRV_SIZE+0x32a34>
     a2c:	0e000004 	cdpeq	0, 0, cr0, cr0, cr4, {0}
     a30:	00000ca4 	andeq	r0, r0, r4, lsr #25
     a34:	000007ae 	andeq	r0, r0, lr, lsr #15
     a38:	0c711100 	ldfeqe	f1, [r1], #-0
     a3c:	10700000 	rsbsne	r0, r0, r0
     a40:	03588180 	cmpeq	r8, #128, 2
     a44:	d1010000 	mrsle	r0, (UNDEF: 1)
     a48:	0004a201 	andeq	sl, r4, r1, lsl #4
     a4c:	0c880e00 	stceq	14, cr0, [r8], {0}
     a50:	07ca0000 	strbeq	r0, [sl, r0]
     a54:	7d0e0000 	stcvc	0, cr0, [lr, #-0]
     a58:	e200000c 	and	r0, r0, #12
     a5c:	00000007 	andeq	r0, r0, r7
     a60:	000c7113 	andeq	r7, ip, r3, lsl r1
     a64:	80107800 	andshi	r7, r0, r0, lsl #16
     a68:	00000481 	andeq	r0, r0, r1, lsl #9
     a6c:	01c80100 	biceq	r0, r8, r0, lsl #2
     a70:	000004c9 	andeq	r0, r0, r9, asr #9
     a74:	000c880e 	andeq	r8, ip, lr, lsl #16
     a78:	0007fe00 	andeq	pc, r7, r0, lsl #28
     a7c:	0c7d0e00 	ldcleq	14, cr0, [sp], #-0
     a80:	08110000 	ldmdaeq	r1, {}	; <UNPREDICTABLE>
     a84:	13000000 	movwne	r0, #0
     a88:	00000c94 	muleq	r0, r4, ip
     a8c:	8180107c 	orrhi	r1, r0, ip, ror r0
     a90:	00000004 	andeq	r0, r0, r4
     a94:	e701ca01 	str	ip, [r1, -r1, lsl #20]
     a98:	0e000004 	cdpeq	0, 0, cr0, cr0, cr4, {0}
     a9c:	00000ca4 	andeq	r0, r0, r4, lsr #25
     aa0:	0000082d 	andeq	r0, r0, sp, lsr #16
     aa4:	0c711300 	ldcleq	3, cr1, [r1], #-0
     aa8:	10880000 	addne	r0, r8, r0
     aac:	00048180 	andeq	r8, r4, r0, lsl #3
     ab0:	cc010000 	stcgt	0, cr0, [r1], {-0}
     ab4:	00050e01 	andeq	r0, r5, r1, lsl #28
     ab8:	0c880e00 	stceq	14, cr0, [r8], {0}
     abc:	08490000 	stmdaeq	r9, {}^	; <UNPREDICTABLE>
     ac0:	7d0e0000 	stcvc	0, cr0, [lr, #-0]
     ac4:	5c00000c 	stcpl	0, cr0, [r0], {12}
     ac8:	00000008 	andeq	r0, r0, r8
     acc:	000ae111 	andeq	lr, sl, r1, lsl r1
     ad0:	80109c00 	andshi	r9, r0, r0, lsl #24
     ad4:	00037081 	andeq	r7, r3, r1, lsl #1
     ad8:	01d30100 	bicseq	r0, r3, r0, lsl #2
     adc:	00000628 	andeq	r0, r0, r8, lsr #12
     ae0:	000af10e 	andeq	pc, sl, lr, lsl #2
     ae4:	00087800 	andeq	r7, r8, r0, lsl #16
     ae8:	03700f00 	cmneq	r0, #0, 30
     aec:	fc100000 	ldc2	0, cr0, [r0], {-0}
     af0:	a100000a 	tstge	r0, sl
     af4:	10000008 	andne	r0, r0, r8
     af8:	00000b07 	andeq	r0, r0, r7, lsl #22
     afc:	000008c0 	andeq	r0, r0, r0, asr #17
     b00:	000b1210 	andeq	r1, fp, r0, lsl r2
     b04:	0008df00 	andeq	sp, r8, r0, lsl #30
     b08:	0c941700 	ldceq	7, cr1, [r4], {0}
     b0c:	109c0000 	addsne	r0, ip, r0
     b10:	03908180 	orrseq	r8, r0, #128, 2
     b14:	f3010000 	vhadd.u8	d0, d1, d0
     b18:	00000568 	andeq	r0, r0, r8, ror #10
     b1c:	000ca40e 	andeq	sl, ip, lr, lsl #8
     b20:	0008f300 	andeq	pc, r8, r0, lsl #6
     b24:	0a170000 	beq	5c0b2c <STACK_SRV_SIZE+0x580b2c>
     b28:	a800000c 	stmdage	r0, {r2, r3}
     b2c:	a8818010 	stmge	r1, {r4, pc}
     b30:	01000003 	tsteq	r0, r3
     b34:	0005e7f8 	strdeq	lr, [r5], -r8
     b38:	03a80f00 			; <UNDEFINED> instruction: 0x03a80f00
     b3c:	1a100000 	bne	400b44 <STACK_SRV_SIZE+0x3c0b44>
     b40:	0f00000c 	svceq	0x0000000c
     b44:	17000009 	strne	r0, [r0, -r9]
     b48:	00000c71 	andeq	r0, r0, r1, ror ip
     b4c:	818010a8 	orrhi	r1, r0, r8, lsr #1
     b50:	000003c0 	andeq	r0, r0, r0, asr #7
     b54:	05af6501 	streq	r6, [pc, #1281]!	; 105d <__spl_size-0x847>
     b58:	880e0000 	stmdahi	lr, {}	; <UNPREDICTABLE>
     b5c:	2700000c 	strcs	r0, [r0, -ip]
     b60:	0e000009 	cdpeq	0, 0, cr0, cr0, cr9, {0}
     b64:	00000c7d 	andeq	r0, r0, sp, ror ip
     b68:	00000952 	andeq	r0, r0, r2, asr r9
     b6c:	0c941800 	ldceq	8, cr1, [r4], {0}
     b70:	10b80000 	adcsne	r0, r8, r0
     b74:	00048180 	andeq	r8, r4, r0, lsl #3
     b78:	65010000 	strvs	r0, [r1, #-0]
     b7c:	000005cc 	andeq	r0, r0, ip, asr #11
     b80:	000ca40e 	andeq	sl, ip, lr, lsl #8
     b84:	00099600 	andeq	r9, r9, r0, lsl #12
     b88:	94160000 	ldrls	r0, [r6], #-0
     b8c:	d000000c 	andle	r0, r0, ip
     b90:	04818010 	streq	r8, [r1], #16
     b94:	01000000 	mrseq	r0, (UNDEF: 0)
     b98:	0ca40e66 	stceq	14, cr0, [r4], #408	; 0x198
     b9c:	09b20000 	ldmibeq	r2!, {}	; <UNPREDICTABLE>
     ba0:	00000000 	andeq	r0, r0, r0
     ba4:	0c711800 	ldcleq	8, cr1, [r1], #-0
     ba8:	10b40000 	adcsne	r0, r4, r0
     bac:	00048180 	andeq	r8, r4, r0, lsl #3
     bb0:	f6010000 			; <UNDEFINED> instruction: 0xf6010000
     bb4:	0000060d 	andeq	r0, r0, sp, lsl #12
     bb8:	000c880e 	andeq	r8, ip, lr, lsl #16
     bbc:	0009ce00 	andeq	ip, r9, r0, lsl #28
     bc0:	0c7d0e00 	ldcleq	14, cr0, [sp], #-0
     bc4:	09e10000 	stmibeq	r1!, {}^	; <UNPREDICTABLE>
     bc8:	16000000 	strne	r0, [r0], -r0
     bcc:	00000c94 	muleq	r0, r4, ip
     bd0:	818010dc 	ldrdhi	r1, [r0, ip]
     bd4:	00000008 	andeq	r0, r0, r8
     bd8:	a40ef901 	strge	pc, [lr], #-2305	; 0xfffff6ff
     bdc:	fd00000c 	stc2	0, cr0, [r0, #-48]	; 0xffffffd0
     be0:	00000009 	andeq	r0, r0, r9
     be4:	94110000 	ldrls	r0, [r1], #-0
     be8:	f400000c 	vst4.8	{d0-d3}, [r0], ip
     bec:	d8818010 	stmle	r1, {r4, pc}
     bf0:	01000003 	tsteq	r0, r3
     bf4:	064201d5 			; <UNDEFINED> instruction: 0x064201d5
     bf8:	a4190000 	ldrge	r0, [r9], #-0
     bfc:	0000000c 	andeq	r0, r0, ip
     c00:	000c7111 	andeq	r7, ip, r1, lsl r1
     c04:	8010f800 	andshi	pc, r0, r0, lsl #16
     c08:	0003f081 	andeq	pc, r3, r1, lsl #1
     c0c:	01d70100 	bicseq	r0, r7, r0, lsl #2
     c10:	00000669 	andeq	r0, r0, r9, ror #12
     c14:	000c880e 	andeq	r8, ip, lr, lsl #16
     c18:	000a1900 	andeq	r1, sl, r0, lsl #18
     c1c:	0c7d0e00 	ldcleq	14, cr0, [sp], #-0
     c20:	0a2c0000 	beq	b00c28 <STACK_SRV_SIZE+0xac0c28>
     c24:	11000000 	mrsne	r0, (UNDEF: 0)
     c28:	00000bd1 	ldrdeq	r0, [r0], -r1
     c2c:	81801100 	orrhi	r1, r0, r0, lsl #2
     c30:	00000408 	andeq	r0, r0, r8, lsl #8
     c34:	e301d901 	movw	sp, #6401	; 0x1901
     c38:	0e000006 	cdpeq	0, 0, cr0, cr0, cr6, {0}
     c3c:	00000bdd 	ldrdeq	r0, [r0], -sp
     c40:	00000a48 	andeq	r0, r0, r8, asr #20
     c44:	0004080f 	andeq	r0, r4, pc, lsl #16
     c48:	0be81000 	bleq	ffa04c50 <__stack_srv_end+0x7e183048>
     c4c:	0ac30000 	beq	ff0c0c54 <__stack_srv_end+0x7d83f04c>
     c50:	f3100000 	vhadd.u16	d0, d0, d0
     c54:	3e00000b 	cdpcc	0, 0, cr0, cr0, cr11, {0}
     c58:	1000000b 	andne	r0, r0, fp
     c5c:	00000bfe 	strdeq	r0, [r0], -lr
     c60:	00000ba5 	andeq	r0, r0, r5, lsr #23
     c64:	000c9417 	andeq	r9, ip, r7, lsl r4
     c68:	80110000 	andshi	r0, r1, r0
     c6c:	00044881 	andeq	r4, r4, r1, lsl #17
     c70:	bf740100 	svclt	0x00740100
     c74:	19000006 	stmdbne	r0, {r1, r2}
     c78:	00000ca4 	andeq	r0, r0, r4, lsr #25
     c7c:	0c711200 	lfmeq	f1, 2, [r1], #-0
     c80:	11440000 	mrsne	r0, (UNDEF: 68)
     c84:	04608180 	strbteq	r8, [r0], #-384	; 0xfffffe80
     c88:	98010000 	stmdals	r1, {}	; <UNPREDICTABLE>
     c8c:	000c880e 	andeq	r8, ip, lr, lsl #16
     c90:	000bff00 	andeq	pc, fp, r0, lsl #30
     c94:	0c7d0e00 	ldcleq	14, cr0, [sp], #-0
     c98:	0c120000 	ldceq	0, cr0, [r2], {-0}
     c9c:	00000000 	andeq	r0, r0, r0
     ca0:	0a091100 	beq	2450a8 <STACK_SRV_SIZE+0x2050a8>
     ca4:	11580000 	cmpne	r8, r0
     ca8:	04788180 	ldrbteq	r8, [r8], #-384	; 0xfffffe80
     cac:	db010000 	blle	40cb4 <STACK_SRV_SIZE+0xcb4>
     cb0:	00092501 	andeq	r2, r9, r1, lsl #10
     cb4:	0a1a0e00 	beq	6844bc <STACK_SRV_SIZE+0x6444bc>
     cb8:	0c2e0000 	stceq	0, cr0, [lr], #-0
     cbc:	780f0000 	stmdavc	pc, {}	; <UNPREDICTABLE>
     cc0:	10000004 	andne	r0, r0, r4
     cc4:	00000a26 	andeq	r0, r0, r6, lsr #20
     cc8:	00000c6d 	andeq	r0, r0, sp, ror #24
     ccc:	000a3210 	andeq	r3, sl, r0, lsl r2
     cd0:	000c8d00 	andeq	r8, ip, r0, lsl #26
     cd4:	0a3e1000 	beq	f84cdc <STACK_SRV_SIZE+0xf44cdc>
     cd8:	0cc50000 	stcleq	0, cr0, [r5], {0}
     cdc:	48100000 	ldmdami	r0, {}	; <UNPREDICTABLE>
     ce0:	a400000a 	strge	r0, [r0], #-10
     ce4:	1000000d 	andne	r0, r0, sp
     ce8:	00000a54 	andeq	r0, r0, r4, asr sl
     cec:	00000e28 	andeq	r0, r0, r8, lsr #28
     cf0:	000a6010 	andeq	r6, sl, r0, lsl r0
     cf4:	000ea100 	andeq	sl, lr, r0, lsl #2
     cf8:	0a6c1000 	beq	1b04d00 <STACK_SRV_SIZE+0x1ac4d00>
     cfc:	0eb40000 	cdpeq	0, 11, cr0, cr4, cr0, {0}
     d00:	aa110000 	bge	440d08 <STACK_SRV_SIZE+0x400d08>
     d04:	5800000b 	stmdapl	r0, {r0, r1, r3}
     d08:	b0818011 	addlt	r8, r1, r1, lsl r0
     d0c:	01000004 	tsteq	r0, r4
     d10:	08510143 	ldmdaeq	r1, {r0, r1, r6, r8}^
     d14:	ba0e0000 	blt	380d1c <STACK_SRV_SIZE+0x340d1c>
     d18:	c700000b 	strgt	r0, [r0, -fp]
     d1c:	0f00000e 	svceq	0x0000000e
     d20:	000004b0 			; <UNDEFINED> instruction: 0x000004b0
     d24:	000ccc1a 	andeq	ip, ip, sl, lsl ip
     d28:	0c711700 	ldcleq	7, cr1, [r1], #-0
     d2c:	11ac0000 			; <UNDEFINED> instruction: 0x11ac0000
     d30:	04d88180 	ldrbeq	r8, [r8], #384	; 0x180
     d34:	a9010000 	stmdbge	r1, {}	; <UNPREDICTABLE>
     d38:	00000791 	muleq	r0, r1, r7
     d3c:	000c880e 	andeq	r8, ip, lr, lsl #16
     d40:	000eda00 	andeq	sp, lr, r0, lsl #20
     d44:	0c7d0e00 	ldcleq	14, cr0, [sp], #-0
     d48:	0eed0000 	cdpeq	0, 14, cr0, cr13, cr0, {0}
     d4c:	18000000 	stmdane	r0, {}	; <UNPREDICTABLE>
     d50:	00000c94 	muleq	r0, r4, ip
     d54:	818011c4 	orrhi	r1, r0, r4, asr #3
     d58:	00000004 	andeq	r0, r0, r4
     d5c:	07aeaa01 	streq	sl, [lr, r1, lsl #20]!
     d60:	a40e0000 	strge	r0, [lr], #-0
     d64:	0900000c 	stmdbeq	r0, {r2, r3}
     d68:	0000000f 	andeq	r0, r0, pc
     d6c:	000c2617 	andeq	r2, ip, r7, lsl r6
     d70:	8011c800 	andshi	ip, r1, r0, lsl #16
     d74:	0004f081 	andeq	pc, r4, r1, lsl #1
     d78:	2dab0100 	stfcss	f0, [fp]
     d7c:	0f000008 	svceq	0x00000008
     d80:	000004f0 	strdeq	r0, [r0], -r0	; <UNPREDICTABLE>
     d84:	000c3610 	andeq	r3, ip, r0, lsl r6
     d88:	000f2500 	andeq	r2, pc, r0, lsl #10
     d8c:	0c941700 	ldceq	7, cr1, [r4], {0}
     d90:	11c80000 	bicne	r0, r8, r0
     d94:	05088180 	streq	r8, [r8, #-384]	; 0xfffffe80
     d98:	59010000 	stmdbpl	r1, {}	; <UNPREDICTABLE>
     d9c:	000007ec 	andeq	r0, r0, ip, ror #15
     da0:	000ca40e 	andeq	sl, ip, lr, lsl #8
     da4:	000f3d00 	andeq	r3, pc, r0, lsl #26
     da8:	94180000 	ldrls	r0, [r8], #-0
     dac:	d400000c 	strle	r0, [r0], #-12
     db0:	04818011 	streq	r8, [r1], #17
     db4:	01000000 	mrseq	r0, (UNDEF: 0)
     db8:	00080958 	andeq	r0, r8, r8, asr r9
     dbc:	0ca40e00 	stceq	14, cr0, [r4]
     dc0:	0f590000 	svceq	0x00590000
     dc4:	12000000 	andne	r0, r0, #0
     dc8:	00000c71 	andeq	r0, r0, r1, ror ip
     dcc:	818011d8 	ldrdhi	r1, [r0, r8]
     dd0:	00000520 	andeq	r0, r0, r0, lsr #10
     dd4:	880e5801 	stmdahi	lr, {r0, fp, ip, lr}
     dd8:	7500000c 	strvc	r0, [r0, #-12]
     ddc:	0e00000f 	cdpeq	0, 0, cr0, cr0, cr15, {0}
     de0:	00000c7d 	andeq	r0, r0, sp, ror ip
     de4:	00000f88 	andeq	r0, r0, r8, lsl #31
     de8:	16000000 	strne	r0, [r0], -r0
     dec:	00000c71 	andeq	r0, r0, r1, ror ip
     df0:	818011d0 	ldrdhi	r1, [r0, r0]
     df4:	00000004 	andeq	r0, r0, r4
     df8:	880eaa01 	stmdahi	lr, {r0, r9, fp, sp, pc}
     dfc:	f400000c 	vst4.8	{d0-d3}, [r0], ip
     e00:	0e00000f 	cdpeq	0, 0, cr0, cr0, cr15, {0}
     e04:	00000c7d 	andeq	r0, r0, sp, ror ip
     e08:	00001007 	andeq	r1, r0, r7
     e0c:	11000000 	mrsne	r0, (UNDEF: 0)
     e10:	00000bd1 	ldrdeq	r0, [r0], -r1
     e14:	818012e4 	orrhi	r1, r0, r4, ror #5
     e18:	00000538 	andeq	r0, r0, r8, lsr r5
     e1c:	cf018901 	svcgt	0x00018901
     e20:	0e000008 	cdpeq	0, 0, cr0, cr0, cr8, {0}
     e24:	00000bdd 	ldrdeq	r0, [r0], -sp
     e28:	00001023 	andeq	r1, r0, r3, lsr #32
     e2c:	0005380f 	andeq	r3, r5, pc, lsl #16
     e30:	0be81000 	bleq	ffa04e38 <__stack_srv_end+0x7e183230>
     e34:	109e0000 	addsne	r0, lr, r0
     e38:	f3100000 	vhadd.u16	d0, d0, d0
     e3c:	1900000b 	stmdbne	r0, {r0, r1, r3}
     e40:	10000011 	andne	r0, r0, r1, lsl r0
     e44:	00000bfe 	strdeq	r0, [r0], -lr
     e48:	0000118c 	andeq	r1, r0, ip, lsl #3
     e4c:	000c9417 	andeq	r9, ip, r7, lsl r4
     e50:	8012e400 	andshi	lr, r2, r0, lsl #8
     e54:	00057081 	andeq	r7, r5, r1, lsl #1
     e58:	ab740100 	blge	1d01260 <STACK_SRV_SIZE+0x1cc1260>
     e5c:	0e000008 	cdpeq	0, 0, cr0, cr0, cr8, {0}
     e60:	00000ca4 	andeq	r0, r0, r4, lsr #25
     e64:	000011da 	ldrdeq	r1, [r0], -sl
     e68:	0c711200 	lfmeq	f1, 2, [r1], #-0
     e6c:	130c0000 	movwne	r0, #49152	; 0xc000
     e70:	05888180 	streq	r8, [r8, #384]	; 0x180
     e74:	98010000 	stmdals	r1, {}	; <UNPREDICTABLE>
     e78:	000c880e 	andeq	r8, ip, lr, lsl #16
     e7c:	0011f600 	andseq	pc, r1, r0, lsl #12
     e80:	0c7d0e00 	ldcleq	14, cr0, [sp], #-0
     e84:	12090000 	andne	r0, r9, #0
     e88:	00000000 	andeq	r0, r0, r0
     e8c:	12041b00 	andne	r1, r4, #0, 22
     e90:	0dba8180 	ldfeqd	f0, [sl, #512]!	; 0x200
     e94:	08eb0000 	stmiaeq	fp!, {}^	; <UNPREDICTABLE>
     e98:	011c0000 	tsteq	ip, r0
     e9c:	5c910251 	lfmpl	f0, 4, [r1], {81}	; 0x51
     ea0:	000a8a1d 	andeq	r8, sl, sp, lsl sl
     ea4:	007d0200 	rsbseq	r0, sp, r0, lsl #4
     ea8:	12701b00 	rsbsne	r1, r0, #0, 22
     eac:	0baa8180 	bleq	feaa14b4 <__stack_srv_end+0x7d21f8ac>
     eb0:	08ff0000 	ldmeq	pc!, {}^	; <UNPREDICTABLE>
     eb4:	011c0000 	tsteq	ip, r0
     eb8:	007d0250 	rsbseq	r0, sp, r0, asr r2
     ebc:	13241b00 			; <UNDEFINED> instruction: 0x13241b00
     ec0:	0baa8180 	bleq	feaa14c8 <__stack_srv_end+0x7d21f8c0>
     ec4:	09130000 	ldmdbeq	r3, {}	; <UNPREDICTABLE>
     ec8:	011c0000 	tsteq	ip, r0
     ecc:	007d0250 	rsbseq	r0, sp, r0, asr r2
     ed0:	14201e00 	strtne	r1, [r0], #-3584	; 0xfffff200
     ed4:	0baa8180 	bleq	feaa14dc <__stack_srv_end+0x7d21f8d4>
     ed8:	011c0000 	tsteq	ip, r0
     edc:	007d0250 	rsbseq	r0, sp, r0, asr r2
     ee0:	13000000 	movwne	r0, #0
     ee4:	00000c71 	andeq	r0, r0, r1, ror ip
     ee8:	8180139c 			; <UNDEFINED> instruction: 0x8180139c
     eec:	00000014 	andeq	r0, r0, r4, lsl r0
     ef0:	4c01b601 	stcmi	6, cr11, [r1], {1}
     ef4:	0e000009 	cdpeq	0, 0, cr0, cr0, cr9, {0}
     ef8:	00000c88 	andeq	r0, r0, r8, lsl #25
     efc:	00001225 	andeq	r1, r0, r5, lsr #4
     f00:	000c7d0e 	andeq	r7, ip, lr, lsl #26
     f04:	00123d00 	andseq	r3, r2, r0, lsl #26
     f08:	71130000 	tstvc	r3, r0
     f0c:	b000000c 	andlt	r0, r0, ip
     f10:	14818013 	strne	r8, [r1], #19
     f14:	01000000 	mrseq	r0, (UNDEF: 0)
     f18:	097301b2 	ldmdbeq	r3!, {r1, r4, r5, r7, r8}^
     f1c:	880e0000 	stmdahi	lr, {}	; <UNPREDICTABLE>
     f20:	5900000c 	stmdbpl	r0, {r2, r3}
     f24:	0e000012 	mcreq	0, 0, r0, cr0, cr2, {0}
     f28:	00000c7d 	andeq	r0, r0, sp, ror ip
     f2c:	00001271 	andeq	r1, r0, r1, ror r2
     f30:	0c711300 	ldcleq	3, cr1, [r1], #-0
     f34:	15400000 	strbne	r0, [r0, #-0]
     f38:	00148180 	andseq	r8, r4, r0, lsl #3
     f3c:	ba010000 	blt	40f44 <STACK_SRV_SIZE+0xf44>
     f40:	00099a01 	andeq	r9, r9, r1, lsl #20
     f44:	0c880e00 	stceq	14, cr0, [r8], {0}
     f48:	128d0000 	addne	r0, sp, #0
     f4c:	7d0e0000 	stcvc	0, cr0, [lr, #-0]
     f50:	a500000c 	strge	r0, [r0, #-12]
     f54:	00000012 	andeq	r0, r0, r2, lsl r0
     f58:	8010981b 	andshi	r9, r0, fp, lsl r8
     f5c:	000baa81 	andeq	sl, fp, r1, lsl #21
     f60:	0009ae00 	andeq	sl, r9, r0, lsl #28
     f64:	50011c00 	andpl	r1, r1, r0, lsl #24
     f68:	00007d02 	andeq	r7, r0, r2, lsl #26
     f6c:	8011541e 	andshi	r5, r1, lr, lsl r4
     f70:	000dba81 	andeq	fp, sp, r1, lsl #21
     f74:	51011c00 	tstpl	r1, r0, lsl #24
     f78:	1d5c9102 	ldfnep	f1, [ip, #-8]
     f7c:	00000a8a 	andeq	r0, r0, sl, lsl #21
     f80:	00007d02 	andeq	r7, r0, r2, lsl #26
     f84:	1f000000 	svcne	0x00000000
     f88:	00005604 	andeq	r5, r0, r4, lsl #12
     f8c:	03cc2000 	biceq	r2, ip, #0
     f90:	90010000 	andls	r0, r1, r0
     f94:	00004f01 	andeq	r4, r0, r1, lsl #30
     f98:	0a030100 	beq	c13a0 <STACK_SRV_SIZE+0x813a0>
     f9c:	d5210000 	strle	r0, [r1, #-0]!
     fa0:	01000002 	tsteq	r0, r2
     fa4:	0a030190 	beq	c15ec <STACK_SRV_SIZE+0x815ec>
     fa8:	76220000 	strtvc	r0, [r2], -r0
     fac:	01006c61 	tsteq	r0, r1, ror #24
     fb0:	00560192 			; <UNDEFINED> instruction: 0x00560192
     fb4:	69220000 	stmdbvs	r2!, {}	; <UNPREDICTABLE>
     fb8:	01930100 	orrseq	r0, r3, r0, lsl #2
     fbc:	00000056 	andeq	r0, r0, r6, asr r0
     fc0:	ba041f00 	blt	108bc8 <STACK_SRV_SIZE+0xc8bc8>
     fc4:	20000000 	andcs	r0, r0, r0
     fc8:	000003d6 	ldrdeq	r0, [r0], -r6
     fcc:	56013901 	strpl	r3, [r1], -r1, lsl #18
     fd0:	01000000 	mrseq	r0, (UNDEF: 0)
     fd4:	00000a79 	andeq	r0, r0, r9, ror sl
     fd8:	0002d521 	andeq	sp, r2, r1, lsr #10
     fdc:	01390100 	teqeq	r9, r0, lsl #2
     fe0:	00000a03 	andeq	r0, r0, r3, lsl #20
     fe4:	00025a23 	andeq	r5, r2, r3, lsr #20
     fe8:	013b0100 	teqeq	fp, r0, lsl #2
     fec:	00000056 	andeq	r0, r0, r6, asr r0
     ff0:	00035f23 	andeq	r5, r3, r3, lsr #30
     ff4:	013b0100 	teqeq	fp, r0, lsl #2
     ff8:	00000056 	andeq	r0, r0, r6, asr r0
     ffc:	01006922 	tsteq	r0, r2, lsr #18
    1000:	0056013c 	subseq	r0, r6, ip, lsr r1
    1004:	5a230000 	bpl	8c100c <STACK_SRV_SIZE+0x88100c>
    1008:	01000003 	tsteq	r0, r3
    100c:	0056013d 	subseq	r0, r6, sp, lsr r1
    1010:	b3230000 			; <UNDEFINED> instruction: 0xb3230000
    1014:	01000003 	tsteq	r0, r3
    1018:	0056013e 	subseq	r0, r6, lr, lsr r1
    101c:	83230000 			; <UNDEFINED> instruction: 0x83230000
    1020:	01000003 	tsteq	r0, r3
    1024:	0056013f 	subseq	r0, r6, pc, lsr r1
    1028:	48230000 	stmdami	r3!, {}	; <UNPREDICTABLE>
    102c:	01000002 	tsteq	r0, r2
    1030:	0056013f 	subseq	r0, r6, pc, lsr r1
    1034:	20000000 	andcs	r0, r0, r0
    1038:	000002e5 	andeq	r0, r0, r5, ror #5
    103c:	56010901 	strpl	r0, [r1], -r1, lsl #18
    1040:	01000000 	mrseq	r0, (UNDEF: 0)
    1044:	00000ad1 	ldrdeq	r0, [r0], -r1
    1048:	0002d521 	andeq	sp, r2, r1, lsr #10
    104c:	01090100 	mrseq	r0, (UNDEF: 25)
    1050:	00000a03 	andeq	r0, r0, r3, lsl #20
    1054:	01006922 	tsteq	r0, r2, lsr #18
    1058:	0056010b 	subseq	r0, r6, fp, lsl #2
    105c:	cd230000 	stcgt	0, cr0, [r3, #-0]
    1060:	01000002 	tsteq	r0, r2
    1064:	0056010b 	subseq	r0, r6, fp, lsl #2
    1068:	53230000 			; <UNDEFINED> instruction: 0x53230000
    106c:	01000003 	tsteq	r0, r3
    1070:	0056010b 	subseq	r0, r6, fp, lsl #2
    1074:	76220000 	strtvc	r0, [r2], -r0
    1078:	01006c61 	tsteq	r0, r1, ror #24
    107c:	0056010c 	subseq	r0, r6, ip, lsl #2
    1080:	ef230000 	svc	0x00230000
    1084:	01000002 	tsteq	r0, r2
    1088:	0ad1010d 	beq	ff4414c4 <__stack_srv_end+0x7dbbf8bc>
    108c:	24000000 	strcs	r0, [r0], #-0
    1090:	00000056 	andeq	r0, r0, r6, asr r0
    1094:	00000ae1 	andeq	r0, r0, r1, ror #21
    1098:	00002c25 	andeq	r2, r0, r5, lsr #24
    109c:	26000700 	strcs	r0, [r0], -r0, lsl #14
    10a0:	00000343 	andeq	r0, r0, r3, asr #6
    10a4:	0056eb01 	subseq	lr, r6, r1, lsl #22
    10a8:	1c010000 	stcne	0, cr0, [r1], {-0}
    10ac:	2700000b 	strcs	r0, [r0, -fp]
    10b0:	000002d5 	ldrdeq	r0, [r0], -r5
    10b4:	0a03eb01 	beq	fbcc0 <STACK_SRV_SIZE+0xbbcc0>
    10b8:	76280000 	strtvc	r0, [r8], -r0
    10bc:	01006c61 	tsteq	r0, r1, ror #24
    10c0:	000056ed 	andeq	r5, r0, sp, ror #13
    10c4:	02a82900 	adceq	r2, r8, #0, 18
    10c8:	ee010000 	cdp	0, 0, cr0, cr1, cr0, {0}
    10cc:	00000056 	andeq	r0, r0, r6, asr r0
    10d0:	01006928 	tsteq	r0, r8, lsr #18
    10d4:	000056ef 	andeq	r5, r0, pc, ror #13
    10d8:	89260000 	stmdbhi	r6!, {}	; <UNPREDICTABLE>
    10dc:	01000003 	tsteq	r0, r3
    10e0:	000056db 	ldrdeq	r5, [r0], -fp
    10e4:	0b410100 	bleq	10414ec <STACK_SRV_SIZE+0x10014ec>
    10e8:	56290000 	strtpl	r0, [r9], -r0
    10ec:	01000005 	tsteq	r0, r5
    10f0:	000056dd 	ldrdeq	r5, [r0], -sp
    10f4:	00692800 	rsbeq	r2, r9, r0, lsl #16
    10f8:	0056de01 	subseq	sp, r6, r1, lsl #28
    10fc:	26000000 	strcs	r0, [r0], -r0
    1100:	000002bb 			; <UNDEFINED> instruction: 0x000002bb
    1104:	004fcb01 	subeq	ip, pc, r1, lsl #22
    1108:	5b010000 	blpl	41110 <STACK_SRV_SIZE+0x1110>
    110c:	2800000b 	stmdacs	r0, {r0, r1, r3}
    1110:	cd01006b 	stcgt	0, cr0, [r1, #-428]	; 0xfffffe54
    1114:	00000056 	andeq	r0, r0, r6, asr r0
    1118:	026d2600 	rsbeq	r2, sp, #0, 12
    111c:	ae010000 	cdpge	0, 0, cr0, cr1, cr0, {0}
    1120:	00000056 	andeq	r0, r0, r6, asr r0
    1124:	000baa01 	andeq	sl, fp, r1, lsl #20
    1128:	03022700 	movweq	r2, #9984	; 0x2700
    112c:	ae010000 	cdpge	0, 0, cr0, cr1, cr0, {0}
    1130:	00000056 	andeq	r0, r0, r6, asr r0
    1134:	00039d29 	andeq	r9, r3, r9, lsr #26
    1138:	56b00100 	ldrtpl	r0, [r0], r0, lsl #2
    113c:	28000000 	stmdacs	r0, {}	; <UNPREDICTABLE>
    1140:	b1010069 	tstlt	r1, r9, rrx
    1144:	00000056 	andeq	r0, r0, r6, asr r0
    1148:	01006a28 	tsteq	r0, r8, lsr #20
    114c:	000056b1 			; <UNDEFINED> instruction: 0x000056b1
    1150:	756e2800 	strbvc	r2, [lr, #-2048]!	; 0xfffff800
    1154:	b201006d 	andlt	r0, r1, #109	; 0x6d
    1158:	00000056 	andeq	r0, r0, r6, asr r0
    115c:	00026729 	andeq	r6, r2, r9, lsr #14
    1160:	56b30100 	ldrtpl	r0, [r3], r0, lsl #2
    1164:	00000000 	andeq	r0, r0, r0
    1168:	00027e26 	andeq	r7, r2, r6, lsr #28
    116c:	4f9b0100 	svcmi	0x009b0100
    1170:	01000000 	mrseq	r0, (UNDEF: 0)
    1174:	00000bd1 	ldrdeq	r0, [r0], -r1
    1178:	0002d527 	andeq	sp, r2, r7, lsr #10
    117c:	039b0100 	orrseq	r0, fp, #0, 2
    1180:	2800000a 	stmdacs	r0, {r1, r3}
    1184:	006c6176 	rsbeq	r6, ip, r6, ror r1
    1188:	00569d01 	subseq	r9, r6, r1, lsl #26
    118c:	2a000000 	bcs	1194 <__spl_size-0x710>
    1190:	00000309 	andeq	r0, r0, r9, lsl #6
    1194:	0a016e01 	beq	5c9a0 <STACK_SRV_SIZE+0x1c9a0>
    1198:	2b00000c 	blcs	11d0 <__spl_size-0x6d4>
    119c:	006b6c63 	rsbeq	r6, fp, r3, ror #24
    11a0:	00566e01 	subseq	r6, r6, r1, lsl #28
    11a4:	76280000 	strtvc	r0, [r8], -r0
    11a8:	01006c61 	tsteq	r0, r1, ror #24
    11ac:	00005670 	andeq	r5, r0, r0, ror r6
    11b0:	6f722800 	svcvs	0x00722800
    11b4:	71010077 	tstvc	r1, r7, ror r0
    11b8:	00000056 	andeq	r0, r0, r6, asr r0
    11bc:	00026229 	andeq	r6, r2, r9, lsr #4
    11c0:	56720100 	ldrbtpl	r0, [r2], -r0, lsl #2
    11c4:	00000000 	andeq	r0, r0, r0
    11c8:	0003a326 	andeq	sl, r3, r6, lsr #6
    11cc:	4f610100 	svcmi	0x00610100
    11d0:	01000000 	mrseq	r0, (UNDEF: 0)
    11d4:	00000c26 	andeq	r0, r0, r6, lsr #24
    11d8:	0001b029 	andeq	fp, r1, r9, lsr #32
    11dc:	2c630100 	stfcse	f0, [r3], #-0
    11e0:	00000000 	andeq	r0, r0, r0
    11e4:	0002ae26 	andeq	sl, r2, r6, lsr #28
    11e8:	4f540100 	svcmi	0x00540100
    11ec:	01000000 	mrseq	r0, (UNDEF: 0)
    11f0:	00000c42 	andeq	r0, r0, r2, asr #24
    11f4:	0001b029 	andeq	fp, r1, r9, lsr #32
    11f8:	2c560100 	ldfcse	f0, [r6], {-0}
    11fc:	00000000 	andeq	r0, r0, r0
    1200:	00032a2a 	andeq	r2, r3, sl, lsr #20
    1204:	014f0100 	mrseq	r0, (UNDEF: 95)
    1208:	00000c59 	andeq	r0, r0, r9, asr ip
    120c:	00736d2b 	rsbseq	r6, r3, fp, lsr #26
    1210:	004f4f01 	subeq	r4, pc, r1, lsl #30
    1214:	2a000000 	bcs	121c <__spl_size-0x688>
    1218:	000001da 	ldrdeq	r0, [r0], -sl
    121c:	71034901 	tstvc	r3, r1, lsl #18
    1220:	2700000c 	strcs	r0, [r0, -ip]
    1224:	00000063 	andeq	r0, r0, r3, rrx
    1228:	004f4901 	subeq	r4, pc, r1, lsl #18
    122c:	2a000000 	bcs	1234 <__spl_size-0x670>
    1230:	00000088 	andeq	r0, r0, r8, lsl #1
    1234:	94032802 	strls	r2, [r3], #-2050	; 0xfffff7fe
    1238:	2700000c 	strcs	r0, [r0, -ip]
    123c:	000000a4 	andeq	r0, r0, r4, lsr #1
    1240:	00762802 	rsbseq	r2, r6, r2, lsl #16
    1244:	56270000 	strtpl	r0, [r7], -r0
    1248:	02000005 	andeq	r0, r0, #5
    124c:	00005628 	andeq	r5, r0, r8, lsr #12
    1250:	ee260000 	cdp	0, 2, cr0, cr6, cr0, {0}
    1254:	02000001 	andeq	r0, r0, #1
    1258:	00005614 	andeq	r5, r0, r4, lsl r6
    125c:	0cb00300 	ldceq	3, cr0, [r0]
    1260:	a4270000 	strtge	r0, [r7], #-0
    1264:	02000000 	andeq	r0, r0, #0
    1268:	00007614 	andeq	r7, r0, r4, lsl r6
    126c:	aa2c0000 	bge	b01274 <STACK_SRV_SIZE+0xac1274>
    1270:	7400000b 	strvc	r0, [r0], #-11
    1274:	c081800c 	addgt	r8, r1, ip
    1278:	01000000 	mrseq	r0, (UNDEF: 0)
    127c:	000dba9c 	muleq	sp, ip, sl
    1280:	0bba0e00 	bleq	fee84a88 <__stack_srv_end+0x7d602e80>
    1284:	12c10000 	sbcne	r0, r1, #0
    1288:	c5100000 	ldrgt	r0, [r0, #-0]
    128c:	e200000b 	and	r0, r0, #11
    1290:	17000012 	smladne	r0, r2, r0, r0
    1294:	00000c71 	andeq	r0, r0, r1, ror ip
    1298:	81800cdc 	ldrdhi	r0, [r0, ip]
    129c:	00000100 	andeq	r0, r0, r0, lsl #2
    12a0:	0cfba901 			; <UNDEFINED> instruction: 0x0cfba901
    12a4:	880e0000 	stmdahi	lr, {}	; <UNPREDICTABLE>
    12a8:	0d00000c 	stceq	0, cr0, [r0, #-48]	; 0xffffffd0
    12ac:	0e000013 	mcreq	0, 0, r0, cr0, cr3, {0}
    12b0:	00000c7d 	andeq	r0, r0, sp, ror ip
    12b4:	00001320 	andeq	r1, r0, r0, lsr #6
    12b8:	0c941800 	ldceq	8, cr1, [r4], {0}
    12bc:	0cf00000 	ldcleq	0, cr0, [r0]
    12c0:	00048180 	andeq	r8, r4, r0, lsl #3
    12c4:	aa010000 	bge	412cc <STACK_SRV_SIZE+0x12cc>
    12c8:	00000d18 	andeq	r0, r0, r8, lsl sp
    12cc:	000ca40e 	andeq	sl, ip, lr, lsl #8
    12d0:	00133c00 	andseq	r3, r3, r0, lsl #24
    12d4:	26170000 	ldrcs	r0, [r7], -r0
    12d8:	f400000c 	vst4.8	{d0-d3}, [r0], ip
    12dc:	1881800c 	stmne	r1, {r2, r3, pc}
    12e0:	01000001 	tsteq	r0, r1
    12e4:	000d97ab 	andeq	r9, sp, fp, lsr #15
    12e8:	01180f00 	tsteq	r8, r0, lsl #30
    12ec:	36100000 	ldrcc	r0, [r0], -r0
    12f0:	5800000c 	stmdapl	r0, {r2, r3}
    12f4:	17000013 	smladne	r0, r3, r0, r0
    12f8:	00000c94 	muleq	r0, r4, ip
    12fc:	81800cf4 	strdhi	r0, [r0, r4]
    1300:	00000130 	andeq	r0, r0, r0, lsr r1
    1304:	0d565901 	vldreq.16	s11, [r6, #-2]	; <UNPREDICTABLE>
    1308:	a40e0000 	strge	r0, [lr], #-0
    130c:	7000000c 	andvc	r0, r0, ip
    1310:	00000013 	andeq	r0, r0, r3, lsl r0
    1314:	000c9418 	andeq	r9, ip, r8, lsl r4
    1318:	800d0000 	andhi	r0, sp, r0
    131c:	00000481 	andeq	r0, r0, r1, lsl #9
    1320:	73580100 	cmpvc	r8, #0, 2
    1324:	0e00000d 	cdpeq	0, 0, cr0, cr0, cr13, {0}
    1328:	00000ca4 	andeq	r0, r0, r4, lsr #25
    132c:	0000138c 	andeq	r1, r0, ip, lsl #7
    1330:	0c711200 	lfmeq	f1, 2, [r1], #-0
    1334:	0d040000 	stceq	0, cr0, [r4, #-0]
    1338:	01488180 	smlalbbeq	r8, r8, r0, r1	; <UNPREDICTABLE>
    133c:	58010000 	stmdapl	r1, {}	; <UNPREDICTABLE>
    1340:	000c880e 	andeq	r8, ip, lr, lsl #16
    1344:	0013a800 	andseq	sl, r3, r0, lsl #16
    1348:	0c7d1400 	cfldrdeq	mvd1, [sp], #-0
    134c:	100c0000 	andne	r0, ip, r0
    1350:	000001c0 	andeq	r0, r0, r0, asr #3
    1354:	0c711600 	ldcleq	6, cr1, [r1], #-0
    1358:	0cfc0000 	ldcleq	0, cr0, [ip]
    135c:	00048180 	andeq	r8, r4, r0, lsl #3
    1360:	aa010000 	bge	41368 <STACK_SRV_SIZE+0x1368>
    1364:	000c880e 	andeq	r8, ip, lr, lsl #16
    1368:	0013c700 	andseq	ip, r3, r0, lsl #14
    136c:	0c7d0e00 	ldcleq	14, cr0, [sp], #-0
    1370:	13da0000 	bicsne	r0, sl, #0
    1374:	00000000 	andeq	r0, r0, r0
    1378:	000a792d 	andeq	r7, sl, sp, lsr #18
    137c:	800d3400 	andhi	r3, sp, r0, lsl #8
    1380:	0001c481 	andeq	ip, r1, r1, lsl #9
    1384:	199c0100 	ldmibne	ip, {r8}
    1388:	00000a8a 	andeq	r0, r0, sl, lsl #21
    138c:	000a8a19 	andeq	r8, sl, r9, lsl sl
    1390:	0a961a00 	beq	fe587b98 <__stack_srv_end+0x7cd05f90>
    1394:	a0100000 	andsge	r0, r0, r0
    1398:	f600000a 			; <UNDEFINED> instruction: 0xf600000a
    139c:	2e000013 	mcrcs	0, 0, r0, cr0, cr3, {0}
    13a0:	00000aac 	andeq	r0, r0, ip, lsr #21
    13a4:	0ab81000 	beq	fee053ac <__stack_srv_end+0x7d5837a4>
    13a8:	140a0000 	strne	r0, [sl], #-0
    13ac:	c41a0000 	ldrgt	r0, [sl], #-0
    13b0:	2f00000a 	svccs	0x0000000a
    13b4:	00000a79 	andeq	r0, r0, r9, ror sl
    13b8:	00000160 	andeq	r0, r0, r0, ror #2
    13bc:	000010b7 	strheq	r1, [r0], -r7
    13c0:	000a8a19 	andeq	r8, sl, r9, lsl sl
    13c4:	0a8a1900 	beq	fe2877cc <__stack_srv_end+0x7ca05bc4>
    13c8:	600f0000 	andvs	r0, pc, r0
    13cc:	10000001 	andne	r0, r0, r1
    13d0:	00000a96 	muleq	r0, r6, sl
    13d4:	0000145d 	andeq	r1, r0, sp, asr r4
    13d8:	000aa010 	andeq	sl, sl, r0, lsl r0
    13dc:	00147000 	andseq	r7, r4, r0
    13e0:	0aac1000 	beq	feb053e8 <__stack_srv_end+0x7d2837e0>
    13e4:	148e0000 	strne	r0, [lr], #0
    13e8:	b8100000 	ldmdalt	r0, {}	; <UNPREDICTABLE>
    13ec:	a100000a 	tstge	r0, sl
    13f0:	1a000014 	bne	1448 <__spl_size-0x45c>
    13f4:	00000ac4 	andeq	r0, r0, r4, asr #21
    13f8:	000c9411 	andeq	r9, ip, r1, lsl r4
    13fc:	800d3c00 	andhi	r3, sp, r0, lsl #24
    1400:	00018081 	andeq	r8, r1, r1, lsl #1
    1404:	01130100 	tsteq	r3, r0, lsl #2
    1408:	00000e58 	andeq	r0, r0, r8, asr lr
    140c:	000ca40e 	andeq	sl, ip, lr, lsl #8
    1410:	0014d600 	andseq	sp, r4, r0, lsl #12
    1414:	0a110000 	beq	44141c <STACK_SRV_SIZE+0x40141c>
    1418:	5400000c 	strpl	r0, [r0], #-12
    141c:	9881800d 	stmls	r1, {r0, r2, r3, pc}
    1420:	01000001 	tsteq	r0, r1
    1424:	0ed80117 	mrceq	1, 6, r0, cr8, cr7, {0}
    1428:	980f0000 	stmdals	pc, {}	; <UNPREDICTABLE>
    142c:	10000001 	andne	r0, r0, r1
    1430:	00000c1a 	andeq	r0, r0, sl, lsl ip
    1434:	000014f2 	strdeq	r1, [r0], -r2
    1438:	000c7117 	andeq	r7, ip, r7, lsl r1
    143c:	800d5400 	andhi	r5, sp, r0, lsl #8
    1440:	0001b081 	andeq	fp, r1, r1, lsl #1
    1444:	a0650100 	rsbge	r0, r5, r0, lsl #2
    1448:	0e00000e 	cdpeq	0, 0, cr0, cr0, cr14, {0}
    144c:	00000c88 	andeq	r0, r0, r8, lsl #25
    1450:	0000150a 	andeq	r1, r0, sl, lsl #10
    1454:	000c7d0e 	andeq	r7, ip, lr, lsl #26
    1458:	00153500 	andseq	r3, r5, r0, lsl #10
    145c:	94180000 	ldrls	r0, [r8], #-0
    1460:	6400000c 	strvs	r0, [r0], #-12
    1464:	0481800d 	streq	r8, [r1], #13
    1468:	01000000 	mrseq	r0, (UNDEF: 0)
    146c:	000ebd65 	andeq	fp, lr, r5, ror #26
    1470:	0ca40e00 	stceq	14, cr0, [r4]
    1474:	15510000 	ldrbne	r0, [r1, #-0]
    1478:	16000000 	strne	r0, [r0], -r0
    147c:	00000c94 	muleq	r0, r4, ip
    1480:	81800d7c 	orrhi	r0, r0, ip, ror sp
    1484:	00000004 	andeq	r0, r0, r4
    1488:	a40e6601 	strge	r6, [lr], #-1537	; 0xfffff9ff
    148c:	6d00000c 	stcvs	0, cr0, [r0, #-48]	; 0xffffffd0
    1490:	00000015 	andeq	r0, r0, r5, lsl r0
    1494:	71130000 	tstvc	r3, r0
    1498:	6000000c 	andvs	r0, r0, ip
    149c:	0481800d 	streq	r8, [r1], #13
    14a0:	01000000 	mrseq	r0, (UNDEF: 0)
    14a4:	0eff0116 	mrceq	1, 7, r0, cr15, cr6, {0}
    14a8:	880e0000 	stmdahi	lr, {}	; <UNPREDICTABLE>
    14ac:	8900000c 	stmdbhi	r0, {r2, r3}
    14b0:	0e000015 	mcreq	0, 0, r0, cr0, cr5, {0}
    14b4:	00000c7d 	andeq	r0, r0, sp, ror ip
    14b8:	0000159c 	muleq	r0, ip, r5
    14bc:	0c941300 	ldceq	3, cr1, [r4], {0}
    14c0:	0d880000 	stceq	0, cr0, [r8]
    14c4:	00048180 	andeq	r8, r4, r0, lsl #3
    14c8:	19010000 	stmdbne	r1, {}	; <UNPREDICTABLE>
    14cc:	000f1d01 	andeq	r1, pc, r1, lsl #26
    14d0:	0ca40e00 	stceq	14, cr0, [r4]
    14d4:	15b80000 	ldrne	r0, [r8, #0]!
    14d8:	13000000 	movwne	r0, #0
    14dc:	00000c94 	muleq	r0, r4, ip
    14e0:	81800d94 			; <UNDEFINED> instruction: 0x81800d94
    14e4:	00000004 	andeq	r0, r0, r4
    14e8:	3b011a01 	blcc	47cf4 <STACK_SRV_SIZE+0x7cf4>
    14ec:	0e00000f 	cdpeq	0, 0, cr0, cr0, cr15, {0}
    14f0:	00000ca4 	andeq	r0, r0, r4, lsr #25
    14f4:	000015d4 	ldrdeq	r1, [r0], -r4
    14f8:	0c941100 	ldfeqs	f1, [r4], {0}
    14fc:	0dac0000 	stceq	0, cr0, [ip]
    1500:	01c88180 	biceq	r8, r8, r0, lsl #3
    1504:	24010000 	strcs	r0, [r1], #-0
    1508:	000f5901 	andeq	r5, pc, r1, lsl #18
    150c:	0ca40e00 	stceq	14, cr0, [r4]
    1510:	15f00000 	ldrbne	r0, [r0, #0]!
    1514:	11000000 	mrsne	r0, (UNDEF: 0)
    1518:	00000c0a 	andeq	r0, r0, sl, lsl #24
    151c:	81800db0 			; <UNDEFINED> instruction: 0x81800db0
    1520:	000001e0 	andeq	r0, r0, r0, ror #3
    1524:	d9012801 	stmdble	r1, {r0, fp, sp}
    1528:	0f00000f 	svceq	0x0000000f
    152c:	000001e0 	andeq	r0, r0, r0, ror #3
    1530:	000c1a10 	andeq	r1, ip, r0, lsl sl
    1534:	00160c00 	andseq	r0, r6, r0, lsl #24
    1538:	0c711700 	ldcleq	7, cr1, [r1], #-0
    153c:	0db00000 	ldceq	0, cr0, [r0]
    1540:	02008180 	andeq	r8, r0, #128, 2
    1544:	65010000 	strvs	r0, [r1, #-0]
    1548:	00000fa1 	andeq	r0, r0, r1, lsr #31
    154c:	000c880e 	andeq	r8, ip, lr, lsl #16
    1550:	00162400 	andseq	r2, r6, r0, lsl #8
    1554:	0c7d0e00 	ldcleq	14, cr0, [sp], #-0
    1558:	16430000 	strbne	r0, [r3], -r0
    155c:	17000000 	strne	r0, [r0, -r0]
    1560:	00000c94 	muleq	r0, r4, ip
    1564:	81800db8 			; <UNDEFINED> instruction: 0x81800db8
    1568:	00000218 	andeq	r0, r0, r8, lsl r2
    156c:	0fbe6601 	svceq	0x00be6601
    1570:	a40e0000 	strge	r0, [lr], #-0
    1574:	5f00000c 	svcpl	0x0000000c
    1578:	00000016 	andeq	r0, r0, r6, lsl r0
    157c:	000c9416 	andeq	r9, ip, r6, lsl r4
    1580:	800dc800 	andhi	ip, sp, r0, lsl #16
    1584:	00000481 	andeq	r0, r0, r1, lsl #9
    1588:	0e650100 	poweqs	f0, f5, f0
    158c:	00000ca4 	andeq	r0, r0, r4, lsr #25
    1590:	0000167b 	andeq	r1, r0, fp, ror r6
    1594:	13000000 	movwne	r0, #0
    1598:	00000c71 	andeq	r0, r0, r1, ror ip
    159c:	81800dc4 	orrhi	r0, r0, r4, asr #27
    15a0:	00000004 	andeq	r0, r0, r4
    15a4:	00012701 	andeq	r2, r1, r1, lsl #14
    15a8:	0e000010 	mcreq	0, 0, r0, cr0, cr0, {0}
    15ac:	00000c88 	andeq	r0, r0, r8, lsl #25
    15b0:	00001697 	muleq	r0, r7, r6
    15b4:	000c7d0e 	andeq	r7, ip, lr, lsl #26
    15b8:	0016aa00 	andseq	sl, r6, r0, lsl #20
    15bc:	5b300000 	blpl	c015c4 <STACK_SRV_SIZE+0xbc15c4>
    15c0:	f400000b 	vst4.8	{d0-d3}, [r0], fp
    15c4:	5c81800d 	stcpl	0, cr8, [r1], {13}
    15c8:	01000000 	mrseq	r0, (UNDEF: 0)
    15cc:	6b0e011c 	blvs	381a44 <STACK_SRV_SIZE+0x341a44>
    15d0:	c600000b 	strgt	r0, [r0], -fp
    15d4:	31000016 	tstcc	r0, r6, lsl r0
    15d8:	81800df4 	strdhi	r0, [r0, r4]
    15dc:	0000005c 	andeq	r0, r0, ip, asr r0
    15e0:	000b7610 	andeq	r7, fp, r0, lsl r6
    15e4:	0016da00 	andseq	sp, r6, r0, lsl #20
    15e8:	0b811000 	bleq	fe0455f0 <__stack_srv_end+0x7c7c39e8>
    15ec:	16ed0000 	strbtne	r0, [sp], r0
    15f0:	8a1a0000 	bhi	6815f8 <STACK_SRV_SIZE+0x6415f8>
    15f4:	1000000b 	andne	r0, r0, fp
    15f8:	00000b93 	muleq	r0, r3, fp
    15fc:	00001700 	andeq	r1, r0, r0, lsl #14
    1600:	000b9e10 	andeq	r9, fp, r0, lsl lr
    1604:	00171f00 	andseq	r1, r7, r0, lsl #30
    1608:	0c941800 	ldceq	8, cr1, [r4], {0}
    160c:	0e0c0000 	cdpeq	0, 0, cr0, cr12, cr0, {0}
    1610:	00048180 	andeq	r8, r4, r0, lsl #3
    1614:	b9010000 	stmdblt	r1, {}	; <UNPREDICTABLE>
    1618:	00001064 	andeq	r1, r0, r4, rrx
    161c:	000ca419 	andeq	sl, ip, r9, lsl r4
    1620:	94180000 	ldrls	r0, [r8], #-0
    1624:	1800000c 	stmdane	r0, {r2, r3}
    1628:	0481800e 	streq	r8, [r1], #14
    162c:	01000000 	mrseq	r0, (UNDEF: 0)
    1630:	00107dbb 			; <UNDEFINED> instruction: 0x00107dbb
    1634:	0ca41900 			; <UNDEFINED> instruction: 0x0ca41900
    1638:	18000000 	stmdane	r0, {}	; <UNPREDICTABLE>
    163c:	00000c94 	muleq	r0, r4, ip
    1640:	81800e24 	orrhi	r0, r0, r4, lsr #28
    1644:	00000004 	andeq	r0, r0, r4
    1648:	109abd01 	addsne	fp, sl, r1, lsl #26
    164c:	a40e0000 	strge	r0, [lr], #-0
    1650:	3e00000c 	cdpcc	0, 0, cr0, cr0, cr12, {0}
    1654:	00000017 	andeq	r0, r0, r7, lsl r0
    1658:	000c9416 	andeq	r9, ip, r6, lsl r4
    165c:	800e2800 	andhi	r2, lr, r0, lsl #16
    1660:	00000481 	andeq	r0, r0, r1, lsl #9
    1664:	0ebf0100 	frdeqe	f0, f7, f0
    1668:	00000ca4 	andeq	r0, r0, r4, lsr #25
    166c:	0000175a 	andeq	r1, r0, sl, asr r7
    1670:	00000000 	andeq	r0, r0, r0
    1674:	0c941100 	ldfeqs	f1, [r4], {0}
    1678:	0e600000 	cdpeq	0, 6, cr0, cr0, cr0, {0}
    167c:	02308180 	eorseq	r8, r0, #128, 2
    1680:	2c010000 	stccs	0, cr0, [r1], {-0}
    1684:	0010d501 	andseq	sp, r0, r1, lsl #10
    1688:	0ca40e00 	stceq	14, cr0, [r4]
    168c:	17760000 	ldrbne	r0, [r6, -r0]!
    1690:	11000000 	mrsne	r0, (UNDEF: 0)
    1694:	00000c71 	andeq	r0, r0, r1, ror ip
    1698:	81800e64 	orrhi	r0, r0, r4, ror #28
    169c:	00000248 	andeq	r0, r0, r8, asr #4
    16a0:	fc012f01 	stc2	15, cr2, [r1], {1}
    16a4:	0e000010 	mcreq	0, 0, r0, cr0, cr0, {0}
    16a8:	00000c88 	andeq	r0, r0, r8, lsl #25
    16ac:	00001792 	muleq	r0, r2, r7
    16b0:	000c7d0e 	andeq	r7, ip, lr, lsl #26
    16b4:	0017a500 	andseq	sl, r7, r0, lsl #10
    16b8:	1c110000 	ldcne	0, cr0, [r1], {-0}
    16bc:	6c00000b 	stcvs	0, cr0, [r0], {11}
    16c0:	6081800e 	addvs	r8, r1, lr
    16c4:	01000002 	tsteq	r0, r2
    16c8:	11c30130 	bicne	r0, r3, r0, lsr r1
    16cc:	600f0000 	andvs	r0, pc, r0
    16d0:	2e000002 	cdpcs	0, 0, cr0, cr0, cr2, {0}
    16d4:	00000b2c 	andeq	r0, r0, ip, lsr #22
    16d8:	0b371a00 	bleq	dc7ee0 <STACK_SRV_SIZE+0xd87ee0>
    16dc:	94170000 	ldrls	r0, [r7], #-0
    16e0:	6c00000c 	stcvs	0, cr0, [r0], {12}
    16e4:	7881800e 	stmvc	r1, {r1, r2, r3, pc}
    16e8:	01000002 	tsteq	r0, r2
    16ec:	00113de1 	andseq	r3, r1, r1, ror #27
    16f0:	0ca40e00 	stceq	14, cr0, [r4]
    16f4:	17c10000 	strbne	r0, [r1, r0]
    16f8:	17000000 	strne	r0, [r0, -r0]
    16fc:	00000c71 	andeq	r0, r0, r1, ror ip
    1700:	81800e7c 	orrhi	r0, r0, ip, ror lr
    1704:	00000290 	muleq	r0, r0, r2
    1708:	1163e101 	cmnne	r3, r1, lsl #2
    170c:	880e0000 	stmdahi	lr, {}	; <UNPREDICTABLE>
    1710:	dd00000c 	stcle	0, cr0, [r0, #-48]	; 0xffffffd0
    1714:	14000017 	strne	r0, [r0], #-23	; 0xffffffe9
    1718:	00000c7d 	andeq	r0, r0, sp, ror ip
    171c:	01c0100c 	biceq	r1, r0, ip
    1720:	0b411200 	bleq	1045f28 <STACK_SRV_SIZE+0x1005f28>
    1724:	0e880000 	cdpeq	0, 8, cr0, cr8, cr0, {0}
    1728:	02a88180 	adceq	r8, r8, #128, 2
    172c:	e2010000 	and	r0, r1, #0
    1730:	0002a80f 	andeq	sl, r2, pc, lsl #16
    1734:	0b511000 	bleq	144573c <STACK_SRV_SIZE+0x140573c>
    1738:	17f00000 	ldrbne	r0, [r0, r0]!
    173c:	71180000 	tstvc	r8, r0
    1740:	9000000c 	andls	r0, r0, ip
    1744:	0481800e 	streq	r8, [r1], #14
    1748:	01000000 	mrseq	r0, (UNDEF: 0)
    174c:	0011a6d1 			; <UNDEFINED> instruction: 0x0011a6d1
    1750:	0c880e00 	stceq	14, cr0, [r8], {0}
    1754:	180e0000 	stmdane	lr, {}	; <UNPREDICTABLE>
    1758:	7d0e0000 	stcvc	0, cr0, [lr, #-0]
    175c:	2100000c 	tstcs	r0, ip
    1760:	00000018 	andeq	r0, r0, r8, lsl r0
    1764:	000c9416 	andeq	r9, ip, r6, lsl r4
    1768:	800eb400 	andhi	fp, lr, r0, lsl #8
    176c:	00000881 	andeq	r0, r0, r1, lsl #17
    1770:	0ed50100 	cdpeq	1, 13, cr0, cr5, cr0, {0}
    1774:	00000ca4 	andeq	r0, r0, r4, lsr #25
    1778:	0000183a 	andeq	r1, r0, sl, lsr r8
    177c:	00000000 	andeq	r0, r0, r0
    1780:	0c941300 	ldceq	3, cr1, [r4], {0}
    1784:	0ed80000 	cdpeq	0, 13, cr0, cr8, cr0, {0}
    1788:	00088180 	andeq	r8, r8, r0, lsl #3
    178c:	31010000 	mrscc	r0, (UNDEF: 1)
    1790:	0011e101 	andseq	lr, r1, r1, lsl #2
    1794:	0ca40e00 	stceq	14, cr0, [r4]
    1798:	18530000 	ldmdane	r3, {}^	; <UNPREDICTABLE>
    179c:	30000000 	andcc	r0, r0, r0
    17a0:	00000c71 	andeq	r0, r0, r1, ror ip
    17a4:	81800ee8 	orrhi	r0, r0, r8, ror #29
    17a8:	00000004 	andeq	r0, r0, r4
    17ac:	0e013401 	cdpeq	4, 0, cr3, cr1, cr1, {0}
    17b0:	00000c88 	andeq	r0, r0, r8, lsl #25
    17b4:	0000186f 	andeq	r1, r0, pc, ror #16
    17b8:	000c7d14 	andeq	r7, ip, r4, lsl sp
    17bc:	c0100c00 	andsgt	r0, r0, r0, lsl #24
    17c0:	00000001 	andeq	r0, r0, r1
    17c4:	000002c2 	andeq	r0, r0, r2, asr #5
    17c8:	04760004 	ldrbteq	r0, [r6], #-4
    17cc:	01040000 	mrseq	r0, (UNDEF: 4)
    17d0:	000000cb 	andeq	r0, r0, fp, asr #1
    17d4:	0004990c 	andeq	r9, r4, ip, lsl #18
    17d8:	00000d00 	andeq	r0, r0, r0, lsl #26
    17dc:	8018ac00 	andshi	sl, r8, r0, lsl #24
    17e0:	00027881 	andeq	r7, r2, r1, lsl #17
    17e4:	0007de00 	andeq	sp, r7, r0, lsl #28
    17e8:	06010200 	streq	r0, [r1], -r0, lsl #4
    17ec:	000000bf 	strheq	r0, [r0], -pc	; <UNPREDICTABLE>
    17f0:	bd080102 	stflts	f0, [r8, #-8]
    17f4:	02000000 	andeq	r0, r0, #0
    17f8:	00590502 	subseq	r0, r9, r2, lsl #10
    17fc:	02020000 	andeq	r0, r2, #0
    1800:	0001c707 	andeq	ip, r1, r7, lsl #14
    1804:	05040300 	streq	r0, [r4, #-768]	; 0xfffffd00
    1808:	00746e69 	rsbseq	r6, r4, r9, ror #28
    180c:	0001e804 	andeq	lr, r1, r4, lsl #16
    1810:	53130200 	tstpl	r3, #0, 4
    1814:	02000000 	andeq	r0, r0, #0
    1818:	01920704 	orrseq	r0, r2, r4, lsl #14
    181c:	08020000 	stmdaeq	r2, {}	; <UNPREDICTABLE>
    1820:	00009605 	andeq	r9, r0, r5, lsl #12
    1824:	07080200 	streq	r0, [r8, -r0, lsl #4]
    1828:	00000188 	andeq	r0, r0, r8, lsl #3
    182c:	9b050402 	blls	14283c <STACK_SRV_SIZE+0x10283c>
    1830:	02000000 	andeq	r0, r0, #0
    1834:	018d0704 	orreq	r0, sp, r4, lsl #14
    1838:	01020000 	mrseq	r0, (UNDEF: 2)
    183c:	0000c608 	andeq	ip, r0, r8, lsl #12
    1840:	04040200 	streq	r0, [r4], #-512	; 0xfffffe00
    1844:	00000090 	muleq	r0, r0, r0
    1848:	e1040802 	tst	r4, r2, lsl #16
    184c:	04000001 	streq	r0, [r0], #-1
    1850:	0000020f 	andeq	r0, r0, pc, lsl #4
    1854:	00481103 	subeq	r1, r8, r3, lsl #2
    1858:	12050000 	andne	r0, r5, #0
    185c:	48000004 	stmdami	r0, {r2}
    1860:	00e62101 	rsceq	r2, r6, r1, lsl #2
    1864:	65060000 	strvs	r0, [r6, #-0]
    1868:	01007073 	tsteq	r0, r3, ror r0
    186c:	00008b22 	andeq	r8, r0, r2, lsr #22
    1870:	7c070000 	stcvc	0, cr0, [r7], {-0}
    1874:	01000004 	tsteq	r0, r4
    1878:	00008b23 	andeq	r8, r0, r3, lsr #22
    187c:	72060400 	andvc	r0, r6, #0, 8
    1880:	e6240100 	strt	r0, [r4], -r0, lsl #2
    1884:	08000000 	stmdaeq	r0, {}	; <UNPREDICTABLE>
    1888:	00707306 	rsbseq	r7, r0, r6, lsl #6
    188c:	008b2501 	addeq	r2, fp, r1, lsl #10
    1890:	063c0000 	ldrteq	r0, [ip], -r0
    1894:	0100726c 	tsteq	r0, ip, ror #4
    1898:	00008b26 	andeq	r8, r0, r6, lsr #22
    189c:	70064000 	andvc	r4, r6, r0
    18a0:	27010063 	strcs	r0, [r1, -r3, rrx]
    18a4:	0000008b 	andeq	r0, r0, fp, lsl #1
    18a8:	8b080044 	blhi	2019c0 <STACK_SRV_SIZE+0x1c19c0>
    18ac:	f6000000 			; <UNDEFINED> instruction: 0xf6000000
    18b0:	09000000 	stmdbeq	r0, {}	; <UNPREDICTABLE>
    18b4:	00000053 	andeq	r0, r0, r3, asr r0
    18b8:	aa0a000c 	bge	2818f0 <STACK_SRV_SIZE+0x2418f0>
    18bc:	01000004 	tsteq	r0, r4
    18c0:	00011a56 	andeq	r1, r1, r6, asr sl
    18c4:	04220b00 	strteq	r0, [r2], #-2816	; 0xfffff500
    18c8:	56010000 	strpl	r0, [r1], -r0
    18cc:	0000011a 	andeq	r0, r0, sl, lsl r1
    18d0:	0004460c 	andeq	r4, r4, ip, lsl #12
    18d4:	41530100 	cmpmi	r3, r0, lsl #2
    18d8:	0d000000 	stceq	0, cr0, [r0, #-0]
    18dc:	040e0000 	streq	r0, [lr], #-0
    18e0:	00000096 	muleq	r0, r6, r0
    18e4:	0003e90f 	andeq	lr, r3, pc, lsl #18
    18e8:	01510100 	cmpeq	r1, r0, lsl #2
    18ec:	00000145 	andeq	r0, r0, r5, asr #2
    18f0:	0004220b 	andeq	r2, r4, fp, lsl #4
    18f4:	1a510100 	bne	1441cfc <STACK_SRV_SIZE+0x1401cfc>
    18f8:	0c000001 	stceq	0, cr0, [r0], {1}
    18fc:	00000446 	andeq	r0, r0, r6, asr #8
    1900:	00415301 	subeq	r5, r1, r1, lsl #6
    1904:	000d0000 	andeq	r0, sp, r0
    1908:	04610a00 	strbteq	r0, [r1], #-2560	; 0xfffff600
    190c:	4b010000 	blmi	41914 <STACK_SRV_SIZE+0x1914>
    1910:	0000015c 	andeq	r0, r0, ip, asr r1
    1914:	0004220b 	andeq	r2, r4, fp, lsl #4
    1918:	1a4b0100 	bne	12c1d20 <STACK_SRV_SIZE+0x1281d20>
    191c:	00000001 	andeq	r0, r0, r1
    1920:	0004810a 	andeq	r8, r4, sl, lsl #2
    1924:	73450100 	movtvc	r0, #20736	; 0x5100
    1928:	0b000001 	bleq	1934 <__spl_size+0x90>
    192c:	00000422 	andeq	r0, r0, r2, lsr #8
    1930:	011a4501 	tsteq	sl, r1, lsl #10
    1934:	0a000000 	beq	193c <__spl_size+0x98>
    1938:	000003f6 	strdeq	r0, [r0], -r6
    193c:	018a3f01 	orreq	r3, sl, r1, lsl #30
    1940:	220b0000 	andcs	r0, fp, #0
    1944:	01000004 	tsteq	r0, r4
    1948:	00011a3f 	andeq	r1, r1, pc, lsr sl
    194c:	270f0000 	strcs	r0, [pc, -r0]
    1950:	01000004 	tsteq	r0, r4
    1954:	01a20139 			; <UNDEFINED> instruction: 0x01a20139
    1958:	220b0000 	andcs	r0, fp, #0
    195c:	01000004 	tsteq	r0, r4
    1960:	00011a39 	andeq	r1, r1, r9, lsr sl
    1964:	1d100000 	ldcne	0, cr0, [r0, #-0]
    1968:	01000004 	tsteq	r0, r4
    196c:	01d0012a 	bicseq	r0, r0, sl, lsr #2
    1970:	220b0000 	andcs	r0, fp, #0
    1974:	01000004 	tsteq	r0, r4
    1978:	00011a2a 	andeq	r1, r1, sl, lsr #20
    197c:	00691100 	rsbeq	r1, r9, r0, lsl #2
    1980:	00412c01 	subeq	r2, r1, r1, lsl #24
    1984:	750c0000 	strvc	r0, [ip, #-0]
    1988:	01000004 	tsteq	r0, r4
    198c:	0000412e 	andeq	r4, r0, lr, lsr #2
    1990:	00000d00 	andeq	r0, r0, r0, lsl #26
    1994:	00018a12 	andeq	r8, r1, r2, lsl sl
    1998:	8018ac00 	andshi	sl, r8, r0, lsl #24
    199c:	00009c81 	andeq	r9, r0, r1, lsl #25
    19a0:	819c0100 	orrshi	r0, ip, r0, lsl #2
    19a4:	13000002 	movwne	r0, #2
    19a8:	00000196 	muleq	r0, r6, r1
    19ac:	0000188e 	andeq	r1, r0, lr, lsl #17
    19b0:	0001a214 	andeq	sl, r1, r4, lsl r2
    19b4:	8018b000 	andshi	fp, r8, r0
    19b8:	0005a081 	andeq	sl, r5, r1, lsl #1
    19bc:	133b0100 	teqne	fp, #0, 2
    19c0:	000001ae 	andeq	r0, r0, lr, lsr #3
    19c4:	000018b7 			; <UNDEFINED> instruction: 0x000018b7
    19c8:	0005a015 	andeq	sl, r5, r5, lsl r0
    19cc:	01b91600 			; <UNDEFINED> instruction: 0x01b91600
    19d0:	18e00000 	stmiane	r0!, {}^	; <UNPREDICTABLE>
    19d4:	cc170000 	ldcgt	0, cr0, [r7], {-0}
    19d8:	af818018 	svcge	0x00818018
    19dc:	29000002 	stmdbcs	r0, {r1}
    19e0:	18000002 	stmdane	r0, {r1}
    19e4:	03055001 	movweq	r5, #20481	; 0x5001
    19e8:	81801b90 			; <UNDEFINED> instruction: 0x81801b90
    19ec:	18dc1700 	ldmne	ip, {r8, r9, sl, ip}^
    19f0:	02af8180 	adceq	r8, pc, #128, 2
    19f4:	02400000 	subeq	r0, r0, #0
    19f8:	01180000 	tsteq	r8, r0
    19fc:	bc030550 	cfstr32lt	mvfx0, [r3], {80}	; 0x50
    1a00:	0081801b 	addeq	r8, r1, fp, lsl r0
    1a04:	80190417 	andshi	r0, r9, r7, lsl r4
    1a08:	0002af81 	andeq	sl, r2, r1, lsl #31
    1a0c:	00025a00 	andeq	r5, r2, r0, lsl #20
    1a10:	50011800 	andpl	r1, r1, r0, lsl #16
    1a14:	18007602 	stmdane	r0, {r1, r9, sl, ip, sp, lr}
    1a18:	74025101 	strvc	r5, [r2], #-257	; 0xfffffeff
    1a1c:	18170000 	ldmdane	r7, {}	; <UNPREDICTABLE>
    1a20:	af818019 	svcge	0x00818019
    1a24:	6e000002 	cdpvs	0, 0, cr0, cr0, cr2, {0}
    1a28:	18000002 	stmdane	r0, {r1}
    1a2c:	78025001 	stmdavc	r2, {r0, ip, lr}
    1a30:	28190000 	ldmdacs	r9, {}	; <UNPREDICTABLE>
    1a34:	af818019 	svcge	0x00818019
    1a38:	18000002 	stmdane	r0, {r1}
    1a3c:	78025001 	stmdavc	r2, {r0, ip, lr}
    1a40:	00000000 	andeq	r0, r0, r0
    1a44:	01201200 			; <UNDEFINED> instruction: 0x01201200
    1a48:	1b1c0000 	blne	701a50 <STACK_SRV_SIZE+0x6c1a50>
    1a4c:	00048180 	andeq	r8, r4, r0, lsl #3
    1a50:	9c010000 	stcls	0, cr0, [r1], {-0}
    1a54:	000002af 	andeq	r0, r0, pc, lsr #5
    1a58:	00012c13 	andeq	r2, r1, r3, lsl ip
    1a5c:	00191700 	andseq	r1, r9, r0, lsl #14
    1a60:	1b201a00 	blne	808268 <STACK_SRV_SIZE+0x7c8268>
    1a64:	02ba8180 	adcseq	r8, sl, #128, 2
    1a68:	01180000 	tsteq	r8, r0
    1a6c:	01f30350 	mvnseq	r0, r0, asr r3
    1a70:	1b000050 	blne	1bb8 <__spl_size+0x314>
    1a74:	00000475 	andeq	r0, r0, r5, ror r4
    1a78:	00000475 	andeq	r0, r0, r5, ror r4
    1a7c:	461b2e01 	ldrmi	r2, [fp], -r1, lsl #28
    1a80:	46000004 	strmi	r0, [r0], -r4
    1a84:	01000004 	tsteq	r0, r4
    1a88:	0d340053 	ldceq	0, cr0, [r4, #-332]!	; 0xfffffeb4
    1a8c:	00040000 	andeq	r0, r4, r0
    1a90:	000005d7 	ldrdeq	r0, [r0], -r7
    1a94:	00cb0104 	sbceq	r0, fp, r4, lsl #2
    1a98:	e90c0000 	stmdb	ip, {}	; <UNPREDICTABLE>
    1a9c:	0d000004 	stceq	0, cr0, [r0, #-16]
    1aa0:	74000000 	strvc	r0, [r0], #-0
    1aa4:	04818005 	streq	r8, [r1], #5
    1aa8:	6e000006 	cdpvs	0, 0, cr0, cr0, cr6, {0}
    1aac:	02000008 	andeq	r0, r0, #8
    1ab0:	00bf0601 	adcseq	r0, pc, r1, lsl #12
    1ab4:	01020000 	mrseq	r0, (UNDEF: 2)
    1ab8:	0000bd08 	andeq	fp, r0, r8, lsl #26
    1abc:	05020200 	streq	r0, [r2, #-512]	; 0xfffffe00
    1ac0:	00000059 	andeq	r0, r0, r9, asr r0
    1ac4:	c7070202 	strgt	r0, [r7, -r2, lsl #4]
    1ac8:	03000001 	movweq	r0, #1
    1acc:	6e690504 	cdpvs	5, 6, cr0, cr9, cr4, {0}
    1ad0:	e8040074 	stmda	r4, {r2, r4, r5, r6}
    1ad4:	03000001 	movweq	r0, #1
    1ad8:	00005313 	andeq	r5, r0, r3, lsl r3
    1adc:	07040200 	streq	r0, [r4, -r0, lsl #4]
    1ae0:	00000192 	muleq	r0, r2, r1
    1ae4:	96050802 	strls	r0, [r5], -r2, lsl #16
    1ae8:	02000000 	andeq	r0, r0, #0
    1aec:	01880708 	orreq	r0, r8, r8, lsl #14
    1af0:	04020000 	streq	r0, [r2], #-0
    1af4:	00009b05 	andeq	r9, r0, r5, lsl #22
    1af8:	07040200 	streq	r0, [r4, -r0, lsl #4]
    1afc:	0000018d 	andeq	r0, r0, sp, lsl #3
    1b00:	00006904 	andeq	r6, r0, r4, lsl #18
    1b04:	61270300 			; <UNDEFINED> instruction: 0x61270300
    1b08:	02000000 	andeq	r0, r0, #0
    1b0c:	00c60801 	sbceq	r0, r6, r1, lsl #16
    1b10:	04050000 	streq	r0, [r5], #-0
    1b14:	00000081 	andeq	r0, r0, r1, lsl #1
    1b18:	00052504 	andeq	r2, r5, r4, lsl #10
    1b1c:	81310300 	teqhi	r1, r0, lsl #6
    1b20:	04000000 	streq	r0, [r0], #-0
    1b24:	00000524 	andeq	r0, r0, r4, lsr #10
    1b28:	00883303 	addeq	r3, r8, r3, lsl #6
    1b2c:	49040000 	stmdbmi	r4, {}	; <UNPREDICTABLE>
    1b30:	03000005 	movweq	r0, #5
    1b34:	00003a43 	andeq	r3, r0, r3, asr #20
    1b38:	4e490600 	cdpmi	6, 4, cr0, cr9, cr0, {0}
    1b3c:	46030054 			; <UNDEFINED> instruction: 0x46030054
    1b40:	00000041 	andeq	r0, r0, r1, asr #32
    1b44:	0004f904 	andeq	pc, r4, r4, lsl #18
    1b48:	534d0300 	movtpl	r0, #54016	; 0xd300
    1b4c:	02000000 	andeq	r0, r0, #0
    1b50:	00900404 	addseq	r0, r0, r4, lsl #8
    1b54:	08020000 	stmdaeq	r2, {}	; <UNPREDICTABLE>
    1b58:	0001e104 	andeq	lr, r1, r4, lsl #2
    1b5c:	01070700 	tsteq	r7, r0, lsl #14
    1b60:	0000002c 	andeq	r0, r0, ip, lsr #32
    1b64:	00ed2804 	rsceq	r2, sp, r4, lsl #16
    1b68:	dc080000 	stcle	0, cr0, [r8], {-0}
    1b6c:	00000004 	andeq	r0, r0, r4
    1b70:	0005a408 	andeq	sl, r5, r8, lsl #8
    1b74:	09000100 	stmdbeq	r0, {r8}
    1b78:	00000475 	andeq	r0, r0, r5, ror r4
    1b7c:	5c011901 			; <UNDEFINED> instruction: 0x5c011901
    1b80:	1c818006 	stcne	0, cr8, [r1], {6}
    1b84:	01000005 	tsteq	r0, r5
    1b88:	0007d59c 	muleq	r7, ip, r5
    1b8c:	05710a00 	ldrbeq	r0, [r1, #-2560]!	; 0xfffff600
    1b90:	19010000 	stmdbne	r1, {}	; <UNPREDICTABLE>
    1b94:	00008801 	andeq	r8, r0, r1, lsl #16
    1b98:	00193800 	andseq	r3, r9, r0, lsl #16
    1b9c:	2a0c0b00 	bcs	3047a4 <STACK_SRV_SIZE+0x2c47a4>
    1ba0:	01000005 	tsteq	r0, r5
    1ba4:	0088011b 	addeq	r0, r8, fp, lsl r1
    1ba8:	194c0000 	stmdbne	ip, {}^	; <UNPREDICTABLE>
    1bac:	260d0000 	strcs	r0, [sp], -r0
    1bb0:	64000009 	strvs	r0, [r0], #-9
    1bb4:	20818006 	addcs	r8, r1, r6
    1bb8:	01000006 	tsteq	r0, r6
    1bbc:	01880123 	orreq	r0, r8, r3, lsr #2
    1bc0:	320e0000 	andcc	r0, lr, #0
    1bc4:	0f000009 	svceq	0x00000009
    1bc8:	00000620 	andeq	r0, r0, r0, lsr #12
    1bcc:	000c6310 	andeq	r6, ip, r0, lsl r3
    1bd0:	0c2d1100 	stfeqs	f1, [sp], #-0
    1bd4:	06640000 	strbteq	r0, [r4], -r0
    1bd8:	06388180 	ldrteq	r8, [r8], -r0, lsl #3
    1bdc:	59010000 	stmdbpl	r1, {}	; <UNPREDICTABLE>
    1be0:	00000164 	andeq	r0, r0, r4, ror #2
    1be4:	000c3d12 	andeq	r3, ip, r2, lsl sp
    1be8:	00199600 	andseq	r9, r9, r0, lsl #12
    1bec:	0a130000 	beq	4c1bf4 <STACK_SRV_SIZE+0x481bf4>
    1bf0:	a400000c 	strge	r0, [r0], #-12
    1bf4:	0c818006 	stceq	0, cr8, [r1], {6}
    1bf8:	01000000 	mrseq	r0, (UNDEF: 0)
    1bfc:	0c21125a 	sfmeq	f1, 4, [r1], #-360	; 0xfffffe98
    1c00:	19b20000 	ldmibne	r2!, {}	; <UNPREDICTABLE>
    1c04:	16120000 	ldrne	r0, [r2], -r0
    1c08:	c500000c 	strgt	r0, [r0, #-12]
    1c0c:	00000019 	andeq	r0, r0, r9, lsl r0
    1c10:	d5140000 	ldrle	r0, [r4, #-0]
    1c14:	78000007 	stmdavc	r0, {r0, r1, r2}
    1c18:	50818006 	addpl	r8, r1, r6
    1c1c:	01000006 	tsteq	r0, r6
    1c20:	ee120121 	mufsp	f0, f2, f1
    1c24:	e1000007 	tst	r0, r7
    1c28:	12000019 	andne	r0, r0, #25
    1c2c:	000007e5 	andeq	r0, r0, r5, ror #15
    1c30:	00001a9e 	muleq	r0, lr, sl
    1c34:	0006500f 	andeq	r5, r6, pc
    1c38:	07f71500 	ldrbeq	r1, [r7, r0, lsl #10]!
    1c3c:	1aea0000 	bne	ffa81c44 <__stack_srv_end+0x7e20003c>
    1c40:	00150000 	andseq	r0, r5, r0
    1c44:	d5000008 	strle	r0, [r0, #-8]
    1c48:	1500001b 	strne	r0, [r0, #-27]	; 0xffffffe5
    1c4c:	0000080b 	andeq	r0, r0, fp, lsl #16
    1c50:	00001c17 	andeq	r1, r0, r7, lsl ip
    1c54:	00081615 	andeq	r1, r8, r5, lsl r6
    1c58:	001c4000 	andseq	r4, ip, r0
    1c5c:	08211000 	stmdaeq	r1!, {ip}
    1c60:	420d0000 	andmi	r0, sp, #0
    1c64:	78000008 	stmdavc	r0, {r3}
    1c68:	90818006 	addls	r8, r1, r6
    1c6c:	01000006 	tsteq	r0, r6
    1c70:	04490113 	strbeq	r0, [r9], #-275	; 0xfffffeed
    1c74:	6f0e0000 	svcvs	0x000e0000
    1c78:	12000008 	andne	r0, r0, #8
    1c7c:	00000864 	andeq	r0, r0, r4, ror #16
    1c80:	00001ce4 	andeq	r1, r0, r4, ror #25
    1c84:	00085912 	andeq	r5, r8, r2, lsl r9
    1c88:	001d1b00 	andseq	r1, sp, r0, lsl #22
    1c8c:	084e1200 	stmdaeq	lr, {r9, ip}^
    1c90:	1d4f0000 	stclne	0, cr0, [pc, #-0]	; 1c98 <__spl_size+0x3f4>
    1c94:	900f0000 	andls	r0, pc, r0
    1c98:	16000006 	strne	r0, [r0], -r6
    1c9c:	0000087a 	andeq	r0, r0, sl, ror r8
    1ca0:	7fa09103 	svcvc	0x00a09103
    1ca4:	00088515 	andeq	r8, r8, r5, lsl r5
    1ca8:	001d9100 	andseq	r9, sp, r0, lsl #2
    1cac:	088f1500 	stmeq	pc, {r8, sl, ip}	; <UNPREDICTABLE>
    1cb0:	1e1e0000 	cdpne	0, 1, cr0, cr14, cr0, {0}
    1cb4:	9a150000 	bls	541cbc <STACK_SRV_SIZE+0x501cbc>
    1cb8:	5d000008 	stcpl	0, cr0, [r0, #-32]	; 0xffffffe0
    1cbc:	1500001e 	strne	r0, [r0, #-30]	; 0xffffffe2
    1cc0:	000008a5 	andeq	r0, r0, r5, lsr #17
    1cc4:	00001e7f 	andeq	r1, r0, pc, ror lr
    1cc8:	0008b015 	andeq	fp, r8, r5, lsl r0
    1ccc:	001e9e00 	andseq	r9, lr, r0, lsl #28
    1cd0:	08cc1700 	stmiaeq	ip, {r8, r9, sl, ip}^
    1cd4:	08040000 	stmdaeq	r4, {}	; <UNPREDICTABLE>
    1cd8:	001c8180 	andseq	r8, ip, r0, lsl #3
    1cdc:	bd010000 	stclt	0, cr0, [r1, #-0]
    1ce0:	000002cc 	andeq	r0, r0, ip, asr #5
    1ce4:	0008e112 	andeq	lr, r8, r2, lsl r1
    1ce8:	001ee000 	andseq	lr, lr, r0
    1cec:	08d80e00 	ldmeq	r8, {r9, sl, fp}^
    1cf0:	26180000 	ldrcs	r0, [r8], -r0
    1cf4:	08000009 	stmdaeq	r0, {r0, r3}
    1cf8:	c0818008 	addgt	r8, r1, r8
    1cfc:	01000006 	tsteq	r0, r6
    1d00:	09321271 	ldmdbeq	r2!, {r0, r4, r5, r6, r9, ip}
    1d04:	1f1e0000 	svcne	0x001e0000
    1d08:	c00f0000 	andgt	r0, pc, r0
    1d0c:	10000006 	andne	r0, r0, r6
    1d10:	00000c63 	andeq	r0, r0, r3, ror #24
    1d14:	000c2d17 	andeq	r2, ip, r7, lsl sp
    1d18:	80080800 	andhi	r0, r8, r0, lsl #16
    1d1c:	00000481 	andeq	r0, r0, r1, lsl #9
    1d20:	a7590100 	ldrbge	r0, [r9, -r0, lsl #2]
    1d24:	12000002 	andne	r0, r0, #2
    1d28:	00000c3d 	andeq	r0, r0, sp, lsr ip
    1d2c:	00001f31 	andeq	r1, r0, r1, lsr pc
    1d30:	0c0a1300 	stceq	3, cr1, [sl], {-0}
    1d34:	08180000 	ldmdaeq	r8, {}	; <UNPREDICTABLE>
    1d38:	00048180 	andeq	r8, r4, r0, lsl #3
    1d3c:	5a010000 	bpl	41d44 <STACK_SRV_SIZE+0x1d44>
    1d40:	000c2112 	andeq	r2, ip, r2, lsl r1
    1d44:	001f4d00 	andseq	r4, pc, r0, lsl #26
    1d48:	0c161200 	lfmeq	f1, 4, [r6], {-0}
    1d4c:	1f600000 	svcne	0x00600000
    1d50:	00000000 	andeq	r0, r0, r0
    1d54:	ed170000 	ldc	0, cr0, [r7, #-0]
    1d58:	28000008 	stmdacs	r0, {r3}
    1d5c:	2c818008 	stccs	0, cr8, [r1], {8}
    1d60:	01000000 	mrseq	r0, (UNDEF: 0)
    1d64:	000349bf 			; <UNDEFINED> instruction: 0x000349bf
    1d68:	09021200 	stmdbeq	r2, {r9, ip}
    1d6c:	1f7c0000 	svcne	0x007c0000
    1d70:	f90e0000 			; <UNDEFINED> instruction: 0xf90e0000
    1d74:	18000008 	stmdane	r0, {r3}
    1d78:	00000926 	andeq	r0, r0, r6, lsr #18
    1d7c:	81800834 	orrhi	r0, r0, r4, lsr r8
    1d80:	000006d8 	ldrdeq	r0, [r0], -r8
    1d84:	320e6a01 	andcc	r6, lr, #4096	; 0x1000
    1d88:	0f000009 	svceq	0x00000009
    1d8c:	000006d8 	ldrdeq	r0, [r0], -r8
    1d90:	000c6310 	andeq	r6, ip, r0, lsl r3
    1d94:	0c2d1700 	stceq	7, cr1, [sp], #-0
    1d98:	08340000 	ldmdaeq	r4!, {}	; <UNPREDICTABLE>
    1d9c:	00048180 	andeq	r8, r4, r0, lsl #3
    1da0:	59010000 	stmdbpl	r1, {}	; <UNPREDICTABLE>
    1da4:	00000328 	andeq	r0, r0, r8, lsr #6
    1da8:	000c3d12 	andeq	r3, ip, r2, lsl sp
    1dac:	001fb200 	andseq	fp, pc, r0, lsl #4
    1db0:	0a130000 	beq	4c1db8 <STACK_SRV_SIZE+0x481db8>
    1db4:	4800000c 	stmdami	r0, {r2, r3}
    1db8:	04818008 	streq	r8, [r1], #8
    1dbc:	01000000 	mrseq	r0, (UNDEF: 0)
    1dc0:	0c210e5a 	stceq	14, cr0, [r1], #-360	; 0xfffffe98
    1dc4:	16120000 	ldrne	r0, [r2], -r0
    1dc8:	ce00000c 	cdpgt	0, 0, cr0, cr0, cr12, {0}
    1dcc:	0000001f 	andeq	r0, r0, pc, lsl r0
    1dd0:	17000000 	strne	r0, [r0, -r0]
    1dd4:	000008cc 	andeq	r0, r0, ip, asr #17
    1dd8:	81800994 			; <UNDEFINED> instruction: 0x81800994
    1ddc:	00000020 	andeq	r0, r0, r0, lsr #32
    1de0:	03ceb701 	biceq	fp, lr, #262144	; 0x40000
    1de4:	e1120000 	tst	r2, r0
    1de8:	ea000008 	b	1e10 <__spl_size+0x56c>
    1dec:	0e00001f 	mcreq	0, 0, r0, cr0, cr15, {0}
    1df0:	000008d8 	ldrdeq	r0, [r0], -r8
    1df4:	00092618 	andeq	r2, r9, r8, lsl r6
    1df8:	80099800 	andhi	r9, r9, r0, lsl #16
    1dfc:	0006f081 	andeq	pc, r6, r1, lsl #1
    1e00:	12710100 	rsbsne	r0, r1, #0, 2
    1e04:	00000932 	andeq	r0, r0, r2, lsr r9
    1e08:	00002035 	andeq	r2, r0, r5, lsr r0
    1e0c:	0006f00f 	andeq	pc, r6, pc
    1e10:	0c631000 	stcleq	0, cr1, [r3], #-0
    1e14:	2d170000 	ldccs	0, cr0, [r7, #-0]
    1e18:	9800000c 	stmdals	r0, {r2, r3}
    1e1c:	04818009 	streq	r8, [r1], #9
    1e20:	01000000 	mrseq	r0, (UNDEF: 0)
    1e24:	0003a959 	andeq	sl, r3, r9, asr r9
    1e28:	0c3d1200 	lfmeq	f1, 4, [sp], #-0
    1e2c:	20480000 	subcs	r0, r8, r0
    1e30:	13000000 	movwne	r0, #0
    1e34:	00000c0a 	andeq	r0, r0, sl, lsl #24
    1e38:	818009a8 	orrhi	r0, r0, r8, lsr #19
    1e3c:	00000004 	andeq	r0, r0, r4
    1e40:	21125a01 	tstcs	r2, r1, lsl #20
    1e44:	6400000c 	strvs	r0, [r0], #-12
    1e48:	12000020 	andne	r0, r0, #32
    1e4c:	00000c16 	andeq	r0, r0, r6, lsl ip
    1e50:	00002077 	andeq	r2, r0, r7, ror r0
    1e54:	00000000 	andeq	r0, r0, r0
    1e58:	0008ed13 	andeq	lr, r8, r3, lsl sp
    1e5c:	800ad400 	andhi	sp, sl, r0, lsl #8
    1e60:	00002c81 	andeq	r2, r0, r1, lsl #25
    1e64:	12bc0100 	adcsne	r0, ip, #0, 2
    1e68:	00000902 	andeq	r0, r0, r2, lsl #18
    1e6c:	00002093 	muleq	r0, r3, r0
    1e70:	0008f90e 	andeq	pc, r8, lr, lsl #18
    1e74:	09261800 	stmdbeq	r6!, {fp, ip}
    1e78:	0ae00000 	beq	ff801e80 <__stack_srv_end+0x7df80278>
    1e7c:	07088180 	streq	r8, [r8, -r0, lsl #3]
    1e80:	6a010000 	bvs	41e88 <STACK_SRV_SIZE+0x1e88>
    1e84:	0009320e 	andeq	r3, r9, lr, lsl #4
    1e88:	07080f00 	streq	r0, [r8, -r0, lsl #30]
    1e8c:	63100000 	tstvs	r0, #0
    1e90:	1700000c 	strne	r0, [r0, -ip]
    1e94:	00000c2d 	andeq	r0, r0, sp, lsr #24
    1e98:	81800ae0 	orrhi	r0, r0, r0, ror #21
    1e9c:	00000004 	andeq	r0, r0, r4
    1ea0:	04265901 	strteq	r5, [r6], #-2305	; 0xfffff6ff
    1ea4:	3d120000 	ldccc	0, cr0, [r2, #-0]
    1ea8:	c900000c 	stmdbgt	r0, {r2, r3}
    1eac:	00000020 	andeq	r0, r0, r0, lsr #32
    1eb0:	000c0a13 	andeq	r0, ip, r3, lsl sl
    1eb4:	800af400 	andhi	pc, sl, r0, lsl #8
    1eb8:	00000481 	andeq	r0, r0, r1, lsl #9
    1ebc:	0e5a0100 	rdfeqe	f0, f2, f0
    1ec0:	00000c21 	andeq	r0, r0, r1, lsr #24
    1ec4:	000c1612 	andeq	r1, ip, r2, lsl r6
    1ec8:	0020e500 	eoreq	lr, r0, r0, lsl #10
    1ecc:	00000000 	andeq	r0, r0, r0
    1ed0:	17000000 	strne	r0, [r0, -r0]
    1ed4:	00000926 	andeq	r0, r0, r6, lsr #18
    1ed8:	8180073c 	orrhi	r0, r0, ip, lsr r7
    1edc:	00000018 	andeq	r0, r0, r8, lsl r0
    1ee0:	04b0db01 	ldrteq	sp, [r0], #2817	; 0xb01
    1ee4:	320e0000 	andcc	r0, lr, #0
    1ee8:	19000009 	stmdbne	r0, {r0, r3}
    1eec:	8180073c 	orrhi	r0, r0, ip, lsr r7
    1ef0:	00000018 	andeq	r0, r0, r8, lsl r0
    1ef4:	000c6310 	andeq	r6, ip, r0, lsl r3
    1ef8:	0c2d1700 	stceq	7, cr1, [sp], #-0
    1efc:	073c0000 	ldreq	r0, [ip, -r0]!
    1f00:	00048180 	andeq	r8, r4, r0, lsl #3
    1f04:	59010000 	stmdbpl	r1, {}	; <UNPREDICTABLE>
    1f08:	0000048c 	andeq	r0, r0, ip, lsl #9
    1f0c:	000c3d12 	andeq	r3, ip, r2, lsl sp
    1f10:	00210100 	eoreq	r0, r1, r0, lsl #2
    1f14:	0a130000 	beq	4c1f1c <STACK_SRV_SIZE+0x481f1c>
    1f18:	4800000c 	stmdami	r0, {r2, r3}
    1f1c:	0c818007 	stceq	0, cr8, [r1], {7}
    1f20:	01000000 	mrseq	r0, (UNDEF: 0)
    1f24:	0c21125a 	sfmeq	f1, 4, [r1], #-360	; 0xfffffe98
    1f28:	211d0000 	tstcs	sp, r0
    1f2c:	16120000 	ldrne	r0, [r2], -r0
    1f30:	3200000c 	andcc	r0, r0, #12
    1f34:	00000021 	andeq	r0, r0, r1, lsr #32
    1f38:	ed110000 	ldc	0, cr0, [r1, #-0]
    1f3c:	74000008 	strvc	r0, [r0], #-8
    1f40:	20818008 	addcs	r8, r1, r8
    1f44:	01000007 	tsteq	r0, r7
    1f48:	00052de6 	andeq	r2, r5, r6, ror #27
    1f4c:	09021200 	stmdbeq	r2, {r9, ip}
    1f50:	214e0000 	mrscs	r0, (UNDEF: 78)
    1f54:	f90e0000 			; <UNDEFINED> instruction: 0xf90e0000
    1f58:	18000008 	stmdane	r0, {r3}
    1f5c:	00000926 	andeq	r0, r0, r6, lsr #18
    1f60:	81800880 	orrhi	r0, r0, r0, lsl #17
    1f64:	00000738 	andeq	r0, r0, r8, lsr r7
    1f68:	320e6a01 	andcc	r6, lr, #4096	; 0x1000
    1f6c:	0f000009 	svceq	0x00000009
    1f70:	00000738 	andeq	r0, r0, r8, lsr r7
    1f74:	000c6310 	andeq	r6, ip, r0, lsl r3
    1f78:	0c2d1700 	stceq	7, cr1, [sp], #-0
    1f7c:	08800000 	stmeq	r0, {}	; <UNPREDICTABLE>
    1f80:	00048180 	andeq	r8, r4, r0, lsl #3
    1f84:	59010000 	stmdbpl	r1, {}	; <UNPREDICTABLE>
    1f88:	0000050c 	andeq	r0, r0, ip, lsl #10
    1f8c:	000c3d12 	andeq	r3, ip, r2, lsl sp
    1f90:	00219e00 	eoreq	r9, r1, r0, lsl #28
    1f94:	0a130000 	beq	4c1f9c <STACK_SRV_SIZE+0x481f9c>
    1f98:	9400000c 	strls	r0, [r0], #-12
    1f9c:	04818008 	streq	r8, [r1], #8
    1fa0:	01000000 	mrseq	r0, (UNDEF: 0)
    1fa4:	0c210e5a 	stceq	14, cr0, [r1], #-360	; 0xfffffe98
    1fa8:	16120000 	ldrne	r0, [r2], -r0
    1fac:	ba00000c 	blt	1fe4 <__spl_size+0x740>
    1fb0:	00000021 	andeq	r0, r0, r1, lsr #32
    1fb4:	17000000 	strne	r0, [r0, -r0]
    1fb8:	00000926 	andeq	r0, r0, r6, lsr #18
    1fbc:	818008a8 	orrhi	r0, r0, r8, lsr #17
    1fc0:	00000010 	andeq	r0, r0, r0, lsl r0
    1fc4:	0598e901 	ldreq	lr, [r8, #2305]	; 0x901
    1fc8:	32120000 	andscc	r0, r2, #0
    1fcc:	d6000009 	strle	r0, [r0], -r9
    1fd0:	19000021 	stmdbne	r0, {r0, r5}
    1fd4:	818008a8 	orrhi	r0, r0, r8, lsr #17
    1fd8:	00000010 	andeq	r0, r0, r0, lsl r0
    1fdc:	000c6310 	andeq	r6, ip, r0, lsl r3
    1fe0:	0c2d1700 	stceq	7, cr1, [sp], #-0
    1fe4:	08a80000 	stmiaeq	r8!, {}	; <UNPREDICTABLE>
    1fe8:	00048180 	andeq	r8, r4, r0, lsl #3
    1fec:	59010000 	stmdbpl	r1, {}	; <UNPREDICTABLE>
    1ff0:	00000574 	andeq	r0, r0, r4, ror r5
    1ff4:	000c3d12 	andeq	r3, ip, r2, lsl sp
    1ff8:	0021e900 	eoreq	lr, r1, r0, lsl #18
    1ffc:	0a130000 	beq	4c2004 <STACK_SRV_SIZE+0x482004>
    2000:	b400000c 	strlt	r0, [r0], #-12
    2004:	04818008 	streq	r8, [r1], #8
    2008:	01000000 	mrseq	r0, (UNDEF: 0)
    200c:	0c21125a 	sfmeq	f1, 4, [r1], #-360	; 0xfffffe98
    2010:	22050000 	andcs	r0, r5, #0
    2014:	16120000 	ldrne	r0, [r2], -r0
    2018:	1800000c 	stmdane	r0, {r2, r3}
    201c:	00000022 	andeq	r0, r0, r2, lsr #32
    2020:	0e170000 	cdpeq	0, 1, cr0, cr7, cr0, {0}
    2024:	c0000009 	andgt	r0, r0, r9
    2028:	2c818009 	stccs	0, cr8, [r1], {9}
    202c:	01000000 	mrseq	r0, (UNDEF: 0)
    2030:	000618ef 	andeq	r1, r6, pc, ror #17
    2034:	091a1200 	ldmdbeq	sl, {r9, ip}
    2038:	22340000 	eorscs	r0, r4, #0
    203c:	26130000 	ldrcs	r0, [r3], -r0
    2040:	d0000009 	andle	r0, r0, r9
    2044:	10818009 	addne	r8, r1, r9
    2048:	01000000 	mrseq	r0, (UNDEF: 0)
    204c:	09320e61 	ldmdbeq	r2!, {r0, r5, r6, r9, sl, fp}
    2050:	d0190000 	andsle	r0, r9, r0
    2054:	10818009 	addne	r8, r1, r9
    2058:	10000000 	andne	r0, r0, r0
    205c:	00000c63 	andeq	r0, r0, r3, ror #24
    2060:	000c2d17 	andeq	r2, ip, r7, lsl sp
    2064:	8009d000 	andhi	sp, r9, r0
    2068:	00000481 	andeq	r0, r0, r1, lsl #9
    206c:	f3590100 	vrhadd.u16	d16, d9, d0
    2070:	12000005 	andne	r0, r0, #5
    2074:	00000c3d 	andeq	r0, r0, sp, lsr ip
    2078:	0000225f 	andeq	r2, r0, pc, asr r2
    207c:	0c0a1300 	stceq	3, cr1, [sl], {-0}
    2080:	09dc0000 	ldmibeq	ip, {}^	; <UNPREDICTABLE>
    2084:	00048180 	andeq	r8, r4, r0, lsl #3
    2088:	5a010000 	bpl	42090 <STACK_SRV_SIZE+0x2090>
    208c:	000c2112 	andeq	r2, ip, r2, lsl r1
    2090:	00227b00 	eoreq	r7, r2, r0, lsl #22
    2094:	0c161200 	lfmeq	f1, 4, [r6], {-0}
    2098:	228e0000 	addcs	r0, lr, #0
    209c:	00000000 	andeq	r0, r0, r0
    20a0:	2c1a0000 	ldccs	0, cr0, [sl], {-0}
    20a4:	50000008 	andpl	r0, r0, r8
    20a8:	ef000007 	svc	0x00000007
    20ac:	11000006 	tstne	r0, r6
    20b0:	000008ed 	andeq	r0, r0, sp, ror #17
    20b4:	81800a1c 	orrhi	r0, r0, ip, lsl sl
    20b8:	00000770 	andeq	r0, r0, r0, ror r7
    20bc:	06a2f201 	strteq	pc, [r2], r1, lsl #4
    20c0:	02120000 	andseq	r0, r2, #0
    20c4:	aa000009 	bge	20f0 <__spl_size+0x84c>
    20c8:	0e000022 	cdpeq	0, 0, cr0, cr0, cr2, {1}
    20cc:	000008f9 	strdeq	r0, [r0], -r9
    20d0:	00092618 	andeq	r2, r9, r8, lsl r6
    20d4:	800a3400 	andhi	r3, sl, r0, lsl #8
    20d8:	00079081 	andeq	r9, r7, r1, lsl #1
    20dc:	0e6a0100 	poweqe	f0, f2, f0
    20e0:	00000932 	andeq	r0, r0, r2, lsr r9
    20e4:	0007900f 	andeq	r9, r7, pc
    20e8:	0c631000 	stcleq	0, cr1, [r3], #-0
    20ec:	2d170000 	ldccs	0, cr0, [r7, #-0]
    20f0:	3400000c 	strcc	r0, [r0], #-12
    20f4:	0481800a 	streq	r8, [r1], #10
    20f8:	01000000 	mrseq	r0, (UNDEF: 0)
    20fc:	00068159 	andeq	r8, r6, r9, asr r1
    2100:	0c3d1200 	lfmeq	f1, 4, [sp], #-0
    2104:	22f10000 	rscscs	r0, r1, #0
    2108:	13000000 	movwne	r0, #0
    210c:	00000c0a 	andeq	r0, r0, sl, lsl #24
    2110:	81800a48 	orrhi	r0, r0, r8, asr #20
    2114:	00000004 	andeq	r0, r0, r4
    2118:	210e5a01 	tstcs	lr, r1, lsl #20
    211c:	1200000c 	andne	r0, r0, #12
    2120:	00000c16 	andeq	r0, r0, r6, lsl ip
    2124:	0000230d 	andeq	r2, r0, sp, lsl #6
    2128:	00000000 	andeq	r0, r0, r0
    212c:	8009fc1b 	andhi	pc, r9, fp, lsl ip	; <UNPREDICTABLE>
    2130:	000d2c81 	andeq	r2, sp, r1, lsl #25
    2134:	0006b600 	andeq	fp, r6, r0, lsl #12
    2138:	50011c00 	andpl	r1, r1, r0, lsl #24
    213c:	00007902 	andeq	r7, r0, r2, lsl #18
    2140:	800a1c1b 	andhi	r1, sl, fp, lsl ip
    2144:	000d2c81 	andeq	r2, sp, r1, lsl #25
    2148:	0006ca00 	andeq	ip, r6, r0, lsl #20
    214c:	50011c00 	andpl	r1, r1, r0, lsl #24
    2150:	00007902 	andeq	r7, r0, r2, lsl #18
    2154:	800a981b 	andhi	r9, sl, fp, lsl r8
    2158:	000d2c81 	andeq	r2, sp, r1, lsl #25
    215c:	0006de00 	andeq	sp, r6, r0, lsl #28
    2160:	50011c00 	andpl	r1, r1, r0, lsl #24
    2164:	00007902 	andeq	r7, r0, r2, lsl #18
    2168:	800b4c1d 	andhi	r4, fp, sp, lsl ip
    216c:	000d2c81 	andeq	r2, sp, r1, lsl #25
    2170:	50011c00 	andpl	r1, r1, r0, lsl #24
    2174:	00007902 	andeq	r7, r0, r2, lsl #18
    2178:	09261100 	stmdbeq	r6!, {r8, ip}
    217c:	0a600000 	beq	1802184 <STACK_SRV_SIZE+0x17c2184>
    2180:	07a88180 	streq	r8, [r8, r0, lsl #3]!
    2184:	e3010000 	movw	r0, #4096	; 0x1000
    2188:	00000756 	andeq	r0, r0, r6, asr r7
    218c:	00093212 	andeq	r3, r9, r2, lsl r2
    2190:	00232900 	eoreq	r2, r3, r0, lsl #18
    2194:	07a80f00 	streq	r0, [r8, r0, lsl #30]!
    2198:	63100000 	tstvs	r0, #0
    219c:	1700000c 	strne	r0, [r0, -ip]
    21a0:	00000c2d 	andeq	r0, r0, sp, lsr #24
    21a4:	81800a60 	orrhi	r0, r0, r0, ror #20
    21a8:	00000004 	andeq	r0, r0, r4
    21ac:	07325901 	ldreq	r5, [r2, -r1, lsl #18]!
    21b0:	3d120000 	ldccc	0, cr0, [r2, #-0]
    21b4:	4700000c 	strmi	r0, [r0, -ip]
    21b8:	00000023 	andeq	r0, r0, r3, lsr #32
    21bc:	000c0a13 	andeq	r0, ip, r3, lsl sl
    21c0:	800a7000 	andhi	r7, sl, r0
    21c4:	00000481 	andeq	r0, r0, r1, lsl #9
    21c8:	125a0100 	subsne	r0, sl, #0, 2
    21cc:	00000c21 	andeq	r0, r0, r1, lsr #24
    21d0:	00002363 	andeq	r2, r0, r3, ror #6
    21d4:	000c1612 	andeq	r1, ip, r2, lsl r6
    21d8:	00237600 	eoreq	r7, r3, r0, lsl #12
    21dc:	00000000 	andeq	r0, r0, r0
    21e0:	00090e13 	andeq	r0, r9, r3, lsl lr
    21e4:	800aa800 	andhi	sl, sl, r0, lsl #16
    21e8:	00002c81 	andeq	r2, r0, r1, lsl #25
    21ec:	12f50100 	rscsne	r0, r5, #0, 2
    21f0:	0000091a 	andeq	r0, r0, sl, lsl r9
    21f4:	00002392 	muleq	r0, r2, r3
    21f8:	00092613 	andeq	r2, r9, r3, lsl r6
    21fc:	800ab400 	andhi	fp, sl, r0, lsl #8
    2200:	00001081 	andeq	r1, r0, r1, lsl #1
    2204:	0e610100 	poweqs	f0, f1, f0
    2208:	00000932 	andeq	r0, r0, r2, lsr r9
    220c:	800ab419 	andhi	fp, sl, r9, lsl r4
    2210:	00001081 	andeq	r1, r0, r1, lsl #1
    2214:	0c631000 	stcleq	0, cr1, [r3], #-0
    2218:	2d170000 	ldccs	0, cr0, [r7, #-0]
    221c:	b400000c 	strlt	r0, [r0], #-12
    2220:	0481800a 	streq	r8, [r1], #10
    2224:	01000000 	mrseq	r0, (UNDEF: 0)
    2228:	0007ad59 	andeq	sl, r7, r9, asr sp
    222c:	0c3d1200 	lfmeq	f1, 4, [sp], #-0
    2230:	23bd0000 			; <UNDEFINED> instruction: 0x23bd0000
    2234:	13000000 	movwne	r0, #0
    2238:	00000c0a 	andeq	r0, r0, sl, lsl #24
    223c:	81800ac0 	orrhi	r0, r0, r0, asr #21
    2240:	00000004 	andeq	r0, r0, r4
    2244:	21125a01 	tstcs	r2, r1, lsl #20
    2248:	d900000c 	stmdble	r0, {r2, r3}
    224c:	12000023 	andne	r0, r0, #35	; 0x23
    2250:	00000c16 	andeq	r0, r0, r6, lsl ip
    2254:	000023ec 	andeq	r2, r0, ip, ror #7
    2258:	00000000 	andeq	r0, r0, r0
    225c:	1e000000 	cdpne	0, 0, cr0, cr0, cr0, {0}
    2260:	000004d1 	ldrdeq	r0, [r0], -r1
    2264:	083cc401 	ldmdaeq	ip!, {r0, sl, lr, pc}
    2268:	3c010000 	stccc	0, cr0, [r1], {-0}
    226c:	1f000008 	svcne	0x00000008
    2270:	c4010066 	strgt	r0, [r1], #-102	; 0xffffff9a
    2274:	0000083c 	andeq	r0, r0, ip, lsr r8
    2278:	0100611f 	tsteq	r0, pc, lsl r1
    227c:	0000afc4 	andeq	sl, r0, r4, asr #31
    2280:	00632000 	rsbeq	r2, r3, r0
    2284:	008ec601 	addeq	ip, lr, r1, lsl #12
    2288:	85210000 	strhi	r0, [r1, #-0]!
    228c:	01000005 	tsteq	r0, r5
    2290:	0000afc7 	andeq	sl, r0, r7, asr #31
    2294:	05002100 	streq	r2, [r0, #-256]	; 0xffffff00
    2298:	c8010000 	stmdagt	r1, {}	; <UNPREDICTABLE>
    229c:	000000af 	andeq	r0, r0, pc, lsr #1
    22a0:	00054321 	andeq	r4, r5, r1, lsr #6
    22a4:	afc90100 	svcge	0x00c90100
    22a8:	21000000 	mrscs	r0, (UNDEF: 0)
    22ac:	00000509 	andeq	r0, r0, r9, lsl #10
    22b0:	008eca01 	addeq	ip, lr, r1, lsl #20
    22b4:	23220000 			; <UNDEFINED> instruction: 0x23220000
    22b8:	000004e2 	andeq	r0, r0, r2, ror #9
    22bc:	0041f101 	subeq	pc, r1, r1, lsl #2
    22c0:	000b0000 	andeq	r0, fp, r0
    22c4:	04050000 	streq	r0, [r5], #-0
    22c8:	0000008e 	andeq	r0, r0, lr, lsl #1
    22cc:	0004c424 	andeq	ip, r4, r4, lsr #8
    22d0:	01740100 	cmneq	r4, r0, lsl #2
    22d4:	000008bc 			; <UNDEFINED> instruction: 0x000008bc
    22d8:	00055625 	andeq	r5, r5, r5, lsr #12
    22dc:	af740100 	svcge	0x00740100
    22e0:	25000000 	strcs	r0, [r0, #-0]
    22e4:	00000543 	andeq	r0, r0, r3, asr #10
    22e8:	00af7401 	adceq	r7, pc, r1, lsl #8
    22ec:	31250000 			; <UNDEFINED> instruction: 0x31250000
    22f0:	01000002 	tsteq	r0, r2
    22f4:	0000af74 	andeq	sl, r0, r4, ror pc
    22f8:	05092500 	streq	r2, [r9, #-1280]	; 0xfffffb00
    22fc:	74010000 	strvc	r0, [r1], #-0
    2300:	0000008e 	andeq	r0, r0, lr, lsl #1
    2304:	00055c21 	andeq	r5, r5, r1, lsr #24
    2308:	bc760100 	ldflte	f0, [r6], #-0
    230c:	20000008 	andcs	r0, r0, r8
    2310:	01006962 	tsteq	r0, r2, ror #18
    2314:	0000af77 	andeq	sl, r0, r7, ror pc
    2318:	05552100 	ldrbeq	r2, [r5, #-256]	; 0xffffff00
    231c:	78010000 	stmdavc	r1, {}	; <UNPREDICTABLE>
    2320:	000000ba 	strheq	r0, [r0], -sl
    2324:	00059e21 	andeq	r9, r5, r1, lsr #28
    2328:	a4790100 	ldrbtge	r0, [r9], #-256	; 0xffffff00
    232c:	21000000 	mrscs	r0, (UNDEF: 0)
    2330:	00000550 	andeq	r0, r0, r0, asr r5
    2334:	00a47a01 	adceq	r7, r4, r1, lsl #20
    2338:	1b210000 	blne	842340 <STACK_SRV_SIZE+0x802340>
    233c:	01000005 	tsteq	r0, r5
    2340:	0000a47b 	andeq	sl, r0, fp, ror r4
    2344:	8e260000 	cdphi	0, 2, cr0, cr6, cr0, {0}
    2348:	cc000000 	stcgt	0, cr0, [r0], {-0}
    234c:	27000008 	strcs	r0, [r0, -r8]
    2350:	00000053 	andeq	r0, r0, r3, asr r0
    2354:	2f240027 	svccs	0x00240027
    2358:	01000005 	tsteq	r0, r5
    235c:	08ed016e 	stmiaeq	sp!, {r1, r2, r3, r5, r6, r8}^
    2360:	731f0000 	tstvc	pc, #0
    2364:	3c6e0100 	stfcce	f0, [lr], #-0
    2368:	25000008 	strcs	r0, [r0, #-8]
    236c:	0000050e 	andeq	r0, r0, lr, lsl #10
    2370:	00af6e01 	adceq	r6, pc, r1, lsl #28
    2374:	24000000 	strcs	r0, [r0], #-0
    2378:	00000577 	andeq	r0, r0, r7, ror r5
    237c:	0e016701 	cdpeq	7, 0, cr6, cr1, cr1, {0}
    2380:	1f000009 	svcne	0x00000009
    2384:	67010063 	strvs	r0, [r1, -r3, rrx]
    2388:	0000008e 	andeq	r0, r0, lr, lsl #1
    238c:	0003b325 	andeq	fp, r3, r5, lsr #6
    2390:	af670100 	svcge	0x00670100
    2394:	00000000 	andeq	r0, r0, r0
    2398:	0004b728 	andeq	fp, r4, r8, lsr #14
    239c:	015d0100 	cmpeq	sp, r0, lsl #2
    23a0:	00000926 	andeq	r0, r0, r6, lsr #18
    23a4:	00051425 	andeq	r1, r5, r5, lsr #8
    23a8:	3c5d0100 	ldfcce	f0, [sp], {-0}
    23ac:	00000008 	andeq	r0, r0, r8
    23b0:	00056328 	andeq	r6, r5, r8, lsr #6
    23b4:	01550100 	cmpeq	r5, r0, lsl #2
    23b8:	00000947 	andeq	r0, r0, r7, asr #18
    23bc:	0100631f 	tsteq	r0, pc, lsl r3
    23c0:	00008155 	andeq	r8, r0, r5, asr r1
    23c4:	00a42100 	adceq	r2, r4, r0, lsl #2
    23c8:	57010000 	strpl	r0, [r1, -r0]
    23cc:	00000076 	andeq	r0, r0, r6, ror r0
    23d0:	05902900 	ldreq	r2, [r0, #2304]	; 0x900
    23d4:	25010000 	strcs	r0, [r1, #-0]
    23d8:	81800574 	orrhi	r0, r0, r4, ror r5
    23dc:	00000098 	muleq	r0, r8, r0
    23e0:	0c0a9c01 	stceq	12, cr9, [sl], {1}
    23e4:	a42a0000 	strtge	r0, [sl], #-0
    23e8:	01000000 	mrseq	r0, (UNDEF: 0)
    23ec:	00007627 	andeq	r7, r0, r7, lsr #12
    23f0:	00240800 	eoreq	r0, r4, r0, lsl #16
    23f4:	61762b00 	cmnvs	r6, r0, lsl #22
    23f8:	2801006c 	stmdacs	r1, {r2, r3, r5, r6}
    23fc:	00000048 	andeq	r0, r0, r8, asr #32
    2400:	00002460 	andeq	r2, r0, r0, ror #8
    2404:	000c2d11 	andeq	r2, ip, r1, lsl sp
    2408:	80057400 	andhi	r7, r5, r0, lsl #8
    240c:	0005b881 	andeq	fp, r5, r1, lsl #17
    2410:	972c0100 	strls	r0, [ip, -r0, lsl #2]!
    2414:	12000009 	andne	r0, r0, #9
    2418:	00000c3d 	andeq	r0, r0, sp, lsr ip
    241c:	000024b5 			; <UNDEFINED> instruction: 0x000024b5
    2420:	0c0a1100 	stfeqs	f1, [sl], {-0}
    2424:	05800000 	streq	r0, [r0]
    2428:	05d08180 	ldrbeq	r8, [r0, #384]	; 0x180
    242c:	44010000 	strmi	r0, [r1], #-0
    2430:	000009bd 			; <UNDEFINED> instruction: 0x000009bd
    2434:	000c2112 	andeq	r2, ip, r2, lsl r1
    2438:	0024d100 	eoreq	sp, r4, r0, lsl #2
    243c:	0c161200 	lfmeq	f1, 4, [r6], {-0}
    2440:	24e50000 	strbtcs	r0, [r5], #0
    2444:	17000000 	strne	r0, [r0, -r0]
    2448:	00000c0a 	andeq	r0, r0, sl, lsl #24
    244c:	8180058c 	orrhi	r0, r0, ip, lsl #11
    2450:	00000004 	andeq	r0, r0, r4
    2454:	09e32f01 	stmibeq	r3!, {r0, r8, r9, sl, fp, sp}^
    2458:	21120000 	tstcs	r2, r0
    245c:	0100000c 	tsteq	r0, ip
    2460:	12000025 	andne	r0, r0, #37	; 0x25
    2464:	00000c16 	andeq	r0, r0, r6, lsl ip
    2468:	00002514 	andeq	r2, r0, r4, lsl r5
    246c:	0c2d1700 	stceq	7, cr1, [sp], #-0
    2470:	05900000 	ldreq	r0, [r0]
    2474:	00048180 	andeq	r8, r4, r0, lsl #3
    2478:	31010000 	mrscc	r0, (UNDEF: 1)
    247c:	00000a00 	andeq	r0, r0, r0, lsl #20
    2480:	000c3d12 	andeq	r3, ip, r2, lsl sp
    2484:	00253000 	eoreq	r3, r5, r0
    2488:	0a170000 	beq	5c2490 <STACK_SRV_SIZE+0x582490>
    248c:	a000000c 	andge	r0, r0, ip
    2490:	04818005 	streq	r8, [r1], #5
    2494:	01000000 	mrseq	r0, (UNDEF: 0)
    2498:	000a2634 	andeq	r2, sl, r4, lsr r6
    249c:	0c211200 	sfmeq	f1, 4, [r1], #-0
    24a0:	254c0000 	strbcs	r0, [ip, #-0]
    24a4:	16120000 	ldrne	r0, [r2], -r0
    24a8:	5f00000c 	svcpl	0x0000000c
    24ac:	00000025 	andeq	r0, r0, r5, lsr #32
    24b0:	000c2d17 	andeq	r2, ip, r7, lsl sp
    24b4:	8005a400 	andhi	sl, r5, r0, lsl #8
    24b8:	00000481 	andeq	r0, r0, r1, lsl #9
    24bc:	43380100 	teqmi	r8, #0, 2
    24c0:	1200000a 	andne	r0, r0, #10
    24c4:	00000c3d 	andeq	r0, r0, sp, lsr ip
    24c8:	0000257b 	andeq	r2, r0, fp, ror r5
    24cc:	0c0a1100 	stfeqs	f1, [sl], {-0}
    24d0:	05a80000 	streq	r0, [r8, #0]!
    24d4:	05f08180 	ldrbeq	r8, [r0, #384]!	; 0x180
    24d8:	45010000 	strmi	r0, [r1, #-0]
    24dc:	00000a69 	andeq	r0, r0, r9, ror #20
    24e0:	000c2112 	andeq	r2, ip, r2, lsl r1
    24e4:	00259700 	eoreq	r9, r5, r0, lsl #14
    24e8:	0c161200 	lfmeq	f1, 4, [r6], {-0}
    24ec:	25ac0000 	strcs	r0, [ip, #0]!
    24f0:	17000000 	strne	r0, [r0, -r0]
    24f4:	00000c0a 	andeq	r0, r0, sl, lsl #24
    24f8:	818005b0 			; <UNDEFINED> instruction: 0x818005b0
    24fc:	00000004 	andeq	r0, r0, r4
    2500:	0a8f3a01 	beq	fe3d0d0c <__stack_srv_end+0x7cb4f104>
    2504:	21120000 	tstcs	r2, r0
    2508:	c800000c 	stmdagt	r0, {r2, r3}
    250c:	12000025 	andne	r0, r0, #37	; 0x25
    2510:	00000c16 	andeq	r0, r0, r6, lsl ip
    2514:	000025db 	ldrdeq	r2, [r0], -fp
    2518:	0c2d1700 	stceq	7, cr1, [sp], #-0
    251c:	05b40000 	ldreq	r0, [r4, #0]!
    2520:	00048180 	andeq	r8, r4, r0, lsl #3
    2524:	3e010000 	cdpcc	0, 0, cr0, cr1, cr0, {0}
    2528:	00000aac 	andeq	r0, r0, ip, lsr #21
    252c:	000c3d12 	andeq	r3, ip, r2, lsl sp
    2530:	0025f700 	eoreq	pc, r5, r0, lsl #14
    2534:	0a110000 	beq	44253c <STACK_SRV_SIZE+0x40253c>
    2538:	b800000c 	stmdalt	r0, {r2, r3}
    253c:	08818005 	stmeq	r1, {r0, r2, pc}
    2540:	01000006 	tsteq	r0, r6
    2544:	000ad24a 	andeq	sp, sl, sl, asr #4
    2548:	0c211200 	sfmeq	f1, 4, [r1], #-0
    254c:	26130000 	ldrcs	r0, [r3], -r0
    2550:	16120000 	ldrne	r0, [r2], -r0
    2554:	2800000c 	stmdacs	r0, {r2, r3}
    2558:	00000026 	andeq	r0, r0, r6, lsr #32
    255c:	000c0a17 	andeq	r0, ip, r7, lsl sl
    2560:	8005c000 	andhi	ip, r5, r0
    2564:	00000481 	andeq	r0, r0, r1, lsl #9
    2568:	f8400100 			; <UNDEFINED> instruction: 0xf8400100
    256c:	1200000a 	andne	r0, r0, #10
    2570:	00000c21 	andeq	r0, r0, r1, lsr #24
    2574:	00002644 	andeq	r2, r0, r4, asr #12
    2578:	000c1612 	andeq	r1, ip, r2, lsl r6
    257c:	00265700 	eoreq	r5, r6, r0, lsl #14
    2580:	0a170000 	beq	5c2588 <STACK_SRV_SIZE+0x582588>
    2584:	cc00000c 	stcgt	0, cr0, [r0], {12}
    2588:	04818005 	streq	r8, [r1], #5
    258c:	01000000 	mrseq	r0, (UNDEF: 0)
    2590:	000b1e46 	andeq	r1, fp, r6, asr #28
    2594:	0c211200 	sfmeq	f1, 4, [r1], #-0
    2598:	26730000 	ldrbtcs	r0, [r3], -r0
    259c:	16120000 	ldrne	r0, [r2], -r0
    25a0:	8700000c 	strhi	r0, [r0, -ip]
    25a4:	00000026 	andeq	r0, r0, r6, lsr #32
    25a8:	000c2d17 	andeq	r2, ip, r7, lsl sp
    25ac:	8005d000 	andhi	sp, r5, r0
    25b0:	00000481 	andeq	r0, r0, r1, lsl #9
    25b4:	3b470100 	blcc	11c29bc <STACK_SRV_SIZE+0x11829bc>
    25b8:	1200000b 	andne	r0, r0, #11
    25bc:	00000c3d 	andeq	r0, r0, sp, lsr ip
    25c0:	000026a3 	andeq	r2, r0, r3, lsr #13
    25c4:	0c0a1700 	stceq	7, cr1, [sl], {-0}
    25c8:	05d80000 	ldrbeq	r0, [r8]
    25cc:	00048180 	andeq	r8, r4, r0, lsl #3
    25d0:	49010000 	stmdbmi	r1, {}	; <UNPREDICTABLE>
    25d4:	00000b61 	andeq	r0, r0, r1, ror #22
    25d8:	000c2112 	andeq	r2, ip, r2, lsl r1
    25dc:	0026bf00 	eoreq	fp, r6, r0, lsl #30
    25e0:	0c161200 	lfmeq	f1, 4, [r6], {-0}
    25e4:	26d20000 	ldrbcs	r0, [r2], r0
    25e8:	17000000 	strne	r0, [r0, -r0]
    25ec:	00000c0a 	andeq	r0, r0, sl, lsl #24
    25f0:	818005e0 	orrhi	r0, r0, r0, ror #11
    25f4:	00000004 	andeq	r0, r0, r4
    25f8:	0b874b01 	bleq	fe1d5204 <__stack_srv_end+0x7c9535fc>
    25fc:	21120000 	tstcs	r2, r0
    2600:	ee00000c 	cdp	0, 0, cr0, cr0, cr12, {0}
    2604:	12000026 	andne	r0, r0, #38	; 0x26
    2608:	00000c16 	andeq	r0, r0, r6, lsl ip
    260c:	00002702 	andeq	r2, r0, r2, lsl #14
    2610:	0c2d1700 	stceq	7, cr1, [sp], #-0
    2614:	05e40000 	strbeq	r0, [r4, #0]!
    2618:	00048180 	andeq	r8, r4, r0, lsl #3
    261c:	4c010000 	stcmi	0, cr0, [r1], {-0}
    2620:	00000ba4 	andeq	r0, r0, r4, lsr #23
    2624:	000c3d12 	andeq	r3, ip, r2, lsl sp
    2628:	00271e00 	eoreq	r1, r7, r0, lsl #28
    262c:	0a170000 	beq	5c2634 <STACK_SRV_SIZE+0x582634>
    2630:	ec00000c 	stc	0, cr0, [r0], {12}
    2634:	04818005 	streq	r8, [r1], #5
    2638:	01000000 	mrseq	r0, (UNDEF: 0)
    263c:	000bca4e 	andeq	ip, fp, lr, asr #20
    2640:	0c211200 	sfmeq	f1, 4, [r1], #-0
    2644:	273a0000 	ldrcs	r0, [sl, -r0]!
    2648:	16120000 	ldrne	r0, [r2], -r0
    264c:	4d00000c 	stcmi	0, cr0, [r0, #-48]	; 0xffffffd0
    2650:	00000027 	andeq	r0, r0, r7, lsr #32
    2654:	000c2d17 	andeq	r2, ip, r7, lsl sp
    2658:	8005f000 	andhi	pc, r5, r0
    265c:	00000481 	andeq	r0, r0, r1, lsl #9
    2660:	e74f0100 	strb	r0, [pc, -r0, lsl #2]
    2664:	1200000b 	andne	r0, r0, #11
    2668:	00000c3d 	andeq	r0, r0, sp, lsr ip
    266c:	00002769 	andeq	r2, r0, r9, ror #14
    2670:	0c0a1300 	stceq	3, cr1, [sl], {-0}
    2674:	05fc0000 	ldrbeq	r0, [ip, #0]!
    2678:	00048180 	andeq	r8, r4, r0, lsl #3
    267c:	52010000 	andpl	r0, r1, #0
    2680:	000c2112 	andeq	r2, ip, r2, lsl r1
    2684:	00278500 	eoreq	r8, r7, r0, lsl #10
    2688:	0c161200 	lfmeq	f1, 4, [r6], {-0}
    268c:	27980000 	ldrcs	r0, [r8, r0]
    2690:	00000000 	andeq	r0, r0, r0
    2694:	00008824 	andeq	r8, r0, r4, lsr #16
    2698:	03280200 			; <UNDEFINED> instruction: 0x03280200
    269c:	00000c2d 	andeq	r0, r0, sp, lsr #24
    26a0:	0000a425 	andeq	sl, r0, r5, lsr #8
    26a4:	76280200 	strtvc	r0, [r8], -r0, lsl #4
    26a8:	25000000 	strcs	r0, [r0, #-0]
    26ac:	00000556 	andeq	r0, r0, r6, asr r5
    26b0:	00482802 	subeq	r2, r8, r2, lsl #16
    26b4:	1e000000 	cdpne	0, 0, cr0, cr0, cr0, {0}
    26b8:	000001ee 	andeq	r0, r0, lr, ror #3
    26bc:	00481402 	subeq	r1, r8, r2, lsl #8
    26c0:	49030000 	stmdbmi	r3, {}	; <UNPREDICTABLE>
    26c4:	2500000c 	strcs	r0, [r0, #-12]
    26c8:	000000a4 	andeq	r0, r0, r4, lsr #1
    26cc:	00761402 	rsbseq	r1, r6, r2, lsl #8
    26d0:	2c000000 	stccs	0, cr0, [r0], {-0}
    26d4:	00000926 	andeq	r0, r0, r6, lsr #18
    26d8:	8180060c 	orrhi	r0, r0, ip, lsl #12
    26dc:	0000001c 	andeq	r0, r0, ip, lsl r0
    26e0:	0cac9c01 	stceq	12, cr9, [ip], #4
    26e4:	322d0000 	eorcc	r0, sp, #0
    26e8:	01000009 	tsteq	r0, r9
    26ec:	093b2e50 	ldmdbeq	fp!, {r4, r6, r9, sl, fp, sp}
    26f0:	50000000 	andpl	r0, r0, r0
    26f4:	2d1701c2 	ldfcss	f0, [r7, #-776]	; 0xfffffcf8
    26f8:	0c00000c 	stceq	0, cr0, [r0], {12}
    26fc:	08818006 	stmeq	r1, {r1, r2, pc}
    2700:	01000000 	mrseq	r0, (UNDEF: 0)
    2704:	000c8959 	andeq	r8, ip, r9, asr r9
    2708:	0c3d1200 	lfmeq	f1, 4, [sp], #-0
    270c:	27b40000 	ldrcs	r0, [r4, r0]!
    2710:	13000000 	movwne	r0, #0
    2714:	00000c0a 	andeq	r0, r0, sl, lsl #24
    2718:	8180061c 	orrhi	r0, r0, ip, lsl r6
    271c:	00000004 	andeq	r0, r0, r4
    2720:	21125a01 	tstcs	r2, r1, lsl #20
    2724:	d000000c 	andle	r0, r0, ip
    2728:	12000027 	andne	r0, r0, #39	; 0x27
    272c:	00000c16 	andeq	r0, r0, r6, lsl ip
    2730:	000027e3 	andeq	r2, r0, r3, ror #15
    2734:	0e2c0000 	cdpeq	0, 2, cr0, cr12, cr0, {0}
    2738:	28000009 	stmdacs	r0, {r0, r3}
    273c:	34818006 	strcc	r8, [r1], #6
    2740:	01000000 	mrseq	r0, (UNDEF: 0)
    2744:	000d2c9c 	muleq	sp, ip, ip
    2748:	091a1200 	ldmdbeq	sl, {r9, ip}
    274c:	27ff0000 	ldrbcs	r0, [pc, r0]!
    2750:	26130000 	ldrcs	r0, [r3], -r0
    2754:	34000009 	strcc	r0, [r0], #-9
    2758:	14818006 	strne	r8, [r1], #6
    275c:	01000000 	mrseq	r0, (UNDEF: 0)
    2760:	09320e61 	ldmdbeq	r2!, {r0, r5, r6, r9, sl, fp}
    2764:	34190000 	ldrcc	r0, [r9], #-0
    2768:	14818006 	strne	r8, [r1], #6
    276c:	10000000 	andne	r0, r0, r0
    2770:	00000c63 	andeq	r0, r0, r3, ror #24
    2774:	000c2d17 	andeq	r2, ip, r7, lsl sp
    2778:	80063400 	andhi	r3, r6, r0, lsl #8
    277c:	00000881 	andeq	r0, r0, r1, lsl #17
    2780:	07590100 	ldrbeq	r0, [r9, -r0, lsl #2]
    2784:	1200000d 	andne	r0, r0, #13
    2788:	00000c3d 	andeq	r0, r0, sp, lsr ip
    278c:	0000282a 	andeq	r2, r0, sl, lsr #16
    2790:	0c0a1300 	stceq	3, cr1, [sl], {-0}
    2794:	06440000 	strbeq	r0, [r4], -r0
    2798:	00048180 	andeq	r8, r4, r0, lsl #3
    279c:	5a010000 	bpl	427a4 <STACK_SRV_SIZE+0x27a4>
    27a0:	000c2112 	andeq	r2, ip, r2, lsl r1
    27a4:	00284600 	eoreq	r4, r8, r0, lsl #12
    27a8:	0c161200 	lfmeq	f1, 4, [r6], {-0}
    27ac:	28590000 	ldmdacs	r9, {}^	; <UNPREDICTABLE>
    27b0:	00000000 	andeq	r0, r0, r0
    27b4:	e22f0000 	eor	r0, pc, #0
    27b8:	e2000004 	and	r0, r0, #4
    27bc:	01000004 	tsteq	r0, r4
    27c0:	0a8a00f1 	beq	fe282b8c <__stack_srv_end+0x7ca00f84>
    27c4:	00040000 	andeq	r0, r4, r0
    27c8:	00000843 	andeq	r0, r0, r3, asr #16
    27cc:	00cb0104 	sbceq	r0, fp, r4, lsl #2
    27d0:	ef0c0000 	svc	0x000c0000
    27d4:	0d000005 	stceq	0, cr0, [r0, #-20]	; 0xffffffec
    27d8:	e0000000 	and	r0, r0, r0
    27dc:	68818015 	stmvs	r1, {r0, r2, r4, pc}
    27e0:	e5000002 	str	r0, [r0, #-2]
    27e4:	0200000b 	andeq	r0, r0, #11
    27e8:	00bd0801 	adcseq	r0, sp, r1, lsl #16
    27ec:	01020000 	mrseq	r0, (UNDEF: 2)
    27f0:	0000bf06 	andeq	fp, r0, r6, lsl #30
    27f4:	069e0300 	ldreq	r0, [lr], r0, lsl #6
    27f8:	0d030000 	stceq	0, cr0, [r3, #-0]
    27fc:	00000025 	andeq	r0, r0, r5, lsr #32
    2800:	59050202 	stmdbpl	r5, {r1, r9}
    2804:	02000000 	andeq	r0, r0, #0
    2808:	01c70702 	biceq	r0, r7, r2, lsl #14
    280c:	04040000 	streq	r0, [r4], #-0
    2810:	746e6905 	strbtvc	r6, [lr], #-2309	; 0xfffff6fb
    2814:	01e80300 	mvneq	r0, r0, lsl #6
    2818:	13030000 	movwne	r0, #12288	; 0x3000
    281c:	0000005e 	andeq	r0, r0, lr, asr r0
    2820:	92070402 	andls	r0, r7, #33554432	; 0x2000000
    2824:	02000001 	andeq	r0, r0, #1
    2828:	00960508 	addseq	r0, r6, r8, lsl #10
    282c:	08020000 	stmdaeq	r2, {}	; <UNPREDICTABLE>
    2830:	00018807 	andeq	r8, r1, r7, lsl #16
    2834:	05040200 	streq	r0, [r4, #-512]	; 0xfffffe00
    2838:	0000009b 	muleq	r0, fp, r0
    283c:	8d070402 	cfstrshi	mvf0, [r7, #-8]
    2840:	03000001 	movweq	r0, #1
    2844:	00000069 	andeq	r0, r0, r9, rrx
    2848:	006c2703 	rsbeq	r2, ip, r3, lsl #14
    284c:	04050000 	streq	r0, [r5], #-0
    2850:	c6080102 	strgt	r0, [r8], -r2, lsl #2
    2854:	02000000 	andeq	r0, r0, #0
    2858:	00900404 	addseq	r0, r0, r4, lsl #8
    285c:	08020000 	stmdaeq	r2, {}	; <UNPREDICTABLE>
    2860:	0001e104 	andeq	lr, r1, r4, lsl #2
    2864:	02070600 	andeq	r0, r7, #0, 12
    2868:	00000045 	andeq	r0, r0, r5, asr #32
    286c:	01012201 	tsteq	r1, r1, lsl #4
    2870:	6e070000 	cdpvs	0, 0, cr0, cr7, cr0, {0}
    2874:	04000006 	streq	r0, [r0], #-6
    2878:	0005df07 	andeq	sp, r5, r7, lsl #30
    287c:	a9070800 	stmdbge	r7, {fp}
    2880:	10000005 	andne	r0, r0, r5
    2884:	00067607 	andeq	r7, r6, r7, lsl #12
    2888:	96071400 	strls	r1, [r7], -r0, lsl #8
    288c:	18000006 	stmdane	r0, {r1, r2}
    2890:	00065e07 	andeq	r5, r6, r7, lsl #28
    2894:	a3071c00 	movwge	r1, #31744	; 0x7c00
    2898:	20000006 	andcs	r0, r0, r6
    289c:	0005d707 	andeq	sp, r5, r7, lsl #14
    28a0:	66072400 	strvs	r2, [r7], -r0, lsl #8
    28a4:	30000006 	andcc	r0, r0, r6
    28a8:	00062f07 	andeq	r2, r6, r7, lsl #30
    28ac:	e7073400 	str	r3, [r7, -r0, lsl #8]
    28b0:	38000005 	stmdacc	r0, {r0, r2}
    28b4:	00067e08 	andeq	r7, r6, r8, lsl #28
    28b8:	08020000 	stmdaeq	r2, {}	; <UNPREDICTABLE>
    28bc:	000006b8 			; <UNDEFINED> instruction: 0x000006b8
    28c0:	09000300 	stmdbeq	r0, {r8, r9}
    28c4:	00000686 	andeq	r0, r0, r6, lsl #13
    28c8:	16b0ca01 	ldrtne	ip, [r0], r1, lsl #20
    28cc:	01988180 	orrseq	r8, r8, r0, lsl #3
    28d0:	9c010000 	stcls	0, cr0, [r1], {-0}
    28d4:	0000058b 	andeq	r0, r0, fp, lsl #11
    28d8:	0000a40a 	andeq	sl, r0, sl, lsl #8
    28dc:	4cca0100 	stfmie	f0, [sl], {0}
    28e0:	75000000 	strvc	r0, [r0, #-0]
    28e4:	0b000028 	bleq	298c <__spl_size+0x10e8>
    28e8:	00667562 	rsbeq	r7, r6, r2, ror #10
    28ec:	008cca01 	addeq	ip, ip, r1, lsl #20
    28f0:	28960000 	ldmcs	r6, {}	; <UNPREDICTABLE>
    28f4:	b30a0000 	movwlt	r0, #40960	; 0xa000
    28f8:	01000003 	tsteq	r0, r3
    28fc:	00004cca 	andeq	r4, r0, sl, asr #25
    2900:	0028b700 	eoreq	fp, r8, r0, lsl #14
    2904:	78740c00 	ldmdavc	r4!, {sl, fp}^
    2908:	8bcc0100 	blhi	ff302d10 <__stack_srv_end+0x7da81108>
    290c:	02000005 	andeq	r0, r0, #5
    2910:	b10d6c91 			; <UNDEFINED> instruction: 0xb10d6c91
    2914:	b0000006 	andlt	r0, r0, r6
    2918:	10818016 	addne	r8, r1, r6, lsl r0
    291c:	01000008 	tsteq	r0, r8
    2920:	0001bbd2 	ldrdeq	fp, [r1], -r2
    2924:	08100e00 	ldmdaeq	r0, {r9, sl, fp}
    2928:	bd0f0000 	stclt	0, cr0, [pc, #-0]	; 2930 <__spl_size+0x108c>
    292c:	00000006 	andeq	r0, r0, r6
    2930:	1001c050 	andne	ip, r1, r0, asr r0
    2934:	000006c8 	andeq	r0, r0, r8, asr #13
    2938:	000028d8 	ldrdeq	r2, [r0], -r8
    293c:	000a590d 	andeq	r5, sl, sp, lsl #18
    2940:	8016b000 	andshi	fp, r6, r0
    2944:	00083081 	andeq	r3, r8, r1, lsl #1
    2948:	977e0100 	ldrbls	r0, [lr, -r0, lsl #2]!
    294c:	11000001 	tstne	r0, r1
    2950:	00000a69 	andeq	r0, r0, r9, ror #20
    2954:	000028eb 	andeq	r2, r0, fp, ror #17
    2958:	0a131200 	beq	4c7160 <STACK_SRV_SIZE+0x487160>
    295c:	16e40000 	strbtne	r0, [r4], r0
    2960:	00048180 	andeq	r8, r4, r0, lsl #3
    2964:	81010000 	mrshi	r0, (UNDEF: 1)
    2968:	000a2a11 	andeq	r2, sl, r1, lsl sl
    296c:	0028d800 	eoreq	sp, r8, r0, lsl #16
    2970:	0a1f1100 	beq	7c6d78 <STACK_SRV_SIZE+0x786d78>
    2974:	29070000 	stmdbcs	r7, {}	; <UNPREDICTABLE>
    2978:	00000000 	andeq	r0, r0, r0
    297c:	059b0d00 	ldreq	r0, [fp, #3328]	; 0xd00
    2980:	16dc0000 	ldrbne	r0, [ip], r0
    2984:	08488180 	stmdaeq	r8, {r7, r8, pc}^
    2988:	d3010000 	movwle	r0, #4096	; 0x1000
    298c:	0000051f 	andeq	r0, r0, pc, lsl r5
    2990:	0005b611 	andeq	fp, r5, r1, lsl r6
    2994:	00292300 	eoreq	r2, r9, r0, lsl #6
    2998:	05cc1100 	strbeq	r1, [ip, #256]	; 0x100
    299c:	29430000 	stmdbcs	r3, {}^	; <UNPREDICTABLE>
    29a0:	c1110000 	tstgt	r1, r0
    29a4:	72000005 	andvc	r0, r0, #5
    29a8:	11000029 	tstne	r0, r9, lsr #32
    29ac:	000005ab 	andeq	r0, r0, fp, lsr #11
    29b0:	000029a1 	andeq	r2, r0, r1, lsr #19
    29b4:	0005d80d 	andeq	sp, r5, sp, lsl #16
    29b8:	8016dc00 	andshi	sp, r6, r0, lsl #24
    29bc:	00086881 	andeq	r6, r8, r1, lsl #17
    29c0:	77c30100 	strbvc	r0, [r3, r0, lsl #2]
    29c4:	13000003 	movwne	r0, #3
    29c8:	000005fe 	strdeq	r0, [r0], -lr
    29cc:	0005f313 	andeq	pc, r5, r3, lsl r3	; <UNPREDICTABLE>
    29d0:	05e81300 	strbeq	r1, [r8, #768]!	; 0x300
    29d4:	680e0000 	stmdavs	lr, {}	; <UNPREDICTABLE>
    29d8:	14000008 	strne	r0, [r0], #-8
    29dc:	00000609 	andeq	r0, r0, r9, lsl #12
    29e0:	00061410 	andeq	r1, r6, r0, lsl r4
    29e4:	0029c300 	eoreq	ip, r9, r0, lsl #6
    29e8:	061f1000 	ldreq	r1, [pc], -r0
    29ec:	29e30000 	stmibcs	r3!, {}^	; <UNPREDICTABLE>
    29f0:	29150000 	ldmdbcs	r5, {}	; <UNPREDICTABLE>
    29f4:	00000006 	andeq	r0, r0, r6
    29f8:	00063314 	andeq	r3, r6, r4, lsl r3
    29fc:	063e1500 	ldrteq	r1, [lr], -r0, lsl #10
    2a00:	14040000 	strne	r0, [r4], #-0
    2a04:	00000647 	andeq	r0, r0, r7, asr #12
    2a08:	000a130d 	andeq	r1, sl, sp, lsl #6
    2a0c:	8016dc00 	andshi	sp, r6, r0, lsl #24
    2a10:	00088881 	andeq	r8, r8, r1, lsl #17
    2a14:	64ae0100 	strtvs	r0, [lr], #256	; 0x100
    2a18:	13000002 	movwne	r0, #2
    2a1c:	00000a2a 	andeq	r0, r0, sl, lsr #20
    2a20:	000a1f13 	andeq	r1, sl, r3, lsl pc
    2a24:	570d0000 	strpl	r0, [sp, -r0]
    2a28:	ec000006 	stc	0, cr0, [r0], {6}
    2a2c:	a0818016 	addge	r8, r1, r6, lsl r0
    2a30:	01000008 	tsteq	r0, r8
    2a34:	0002fcaf 	andeq	pc, r2, pc, lsr #25
    2a38:	066e1100 	strbteq	r1, [lr], -r0, lsl #2
    2a3c:	2a1d0000 	bcs	742a44 <STACK_SRV_SIZE+0x702a44>
    2a40:	63110000 	tstvs	r1, #0
    2a44:	31000006 	tstcc	r0, r6
    2a48:	0e00002a 	cdpeq	0, 0, cr0, cr0, cr10, {1}
    2a4c:	000008a0 	andeq	r0, r0, r0, lsr #17
    2a50:	0006790f 	andeq	r7, r6, pc, lsl #18
    2a54:	c0500000 	subsgt	r0, r0, r0
    2a58:	06841401 	streq	r1, [r4], r1, lsl #8
    2a5c:	360d0000 	strcc	r0, [sp], -r0
    2a60:	ec00000a 	stc	0, cr0, [r0], {10}
    2a64:	b8818016 	stmlt	r1, {r1, r2, r4, pc}
    2a68:	01000008 	tsteq	r0, r8
    2a6c:	0002c299 	muleq	r2, r9, r2
    2a70:	0a4d1100 	beq	1346e78 <STACK_SRV_SIZE+0x1306e78>
    2a74:	2a600000 	bcs	1802a7c <STACK_SRV_SIZE+0x17c2a7c>
    2a78:	42110000 	andsmi	r0, r1, #0
    2a7c:	8900000a 	stmdbhi	r0, {r1, r3}
    2a80:	0000002a 	andeq	r0, r0, sl, lsr #32
    2a84:	000a1316 	andeq	r1, sl, r6, lsl r3
    2a88:	8016f000 	andshi	pc, r6, r0
    2a8c:	00000481 	andeq	r0, r0, r1, lsl #9
    2a90:	e0940100 	adds	r0, r4, r0, lsl #2
    2a94:	13000002 	movwne	r0, #2
    2a98:	00000a2a 	andeq	r0, r0, sl, lsr #20
    2a9c:	000a1f13 	andeq	r1, sl, r3, lsl pc
    2aa0:	13120000 	tstne	r2, #0
    2aa4:	f400000a 	vst4.8	{d0-d3}, [r0], sl
    2aa8:	04818016 	streq	r8, [r1], #22
    2aac:	01000000 	mrseq	r0, (UNDEF: 0)
    2ab0:	0a2a1395 	beq	a8790c <STACK_SRV_SIZE+0xa4790c>
    2ab4:	1f130000 	svcne	0x00130000
    2ab8:	0000000a 	andeq	r0, r0, sl
    2abc:	590d0000 	stmdbpl	sp, {}	; <UNPREDICTABLE>
    2ac0:	0c00000a 	stceq	0, cr0, [r0], {10}
    2ac4:	e8818017 	stm	r1, {r0, r1, r2, r4, pc}
    2ac8:	01000008 	tsteq	r0, r8
    2acc:	000319b2 			; <UNDEFINED> instruction: 0x000319b2
    2ad0:	0a691100 	beq	1a46ed8 <STACK_SRV_SIZE+0x1a06ed8>
    2ad4:	2acd0000 	bcs	ff342adc <__stack_srv_end+0x7dac0ed4>
    2ad8:	16000000 	strne	r0, [r0], -r0
    2adc:	00000a59 	andeq	r0, r0, r9, asr sl
    2ae0:	8180171c 	orrhi	r1, r0, ip, lsl r7
    2ae4:	00000004 	andeq	r0, r0, r4
    2ae8:	0336b001 	teqeq	r6, #1
    2aec:	69110000 	ldmdbvs	r1, {}	; <UNPREDICTABLE>
    2af0:	e900000a 	stmdb	r0, {r1, r3}
    2af4:	0000002a 	andeq	r0, r0, sl, lsr #32
    2af8:	000a1316 	andeq	r1, sl, r6, lsl r3
    2afc:	80172400 	andshi	r2, r7, r0, lsl #8
    2b00:	00000481 	andeq	r0, r0, r1, lsl #9
    2b04:	5cb00100 	ldfpls	f0, [r0]
    2b08:	11000003 	tstne	r0, r3
    2b0c:	00000a2a 	andeq	r0, r0, sl, lsr #20
    2b10:	00002b05 	andeq	r2, r0, r5, lsl #22
    2b14:	000a1f17 	andeq	r1, sl, r7, lsl pc
    2b18:	c0500800 	subsgt	r0, r0, r0, lsl #16
    2b1c:	75180001 	ldrvc	r0, [r8, #-1]
    2b20:	3800000a 	stmdacc	r0, {r1, r3}
    2b24:	00818017 	addeq	r8, r1, r7, lsl r0
    2b28:	01000009 	tsteq	r0, r9
    2b2c:	0a8111b5 	beq	fe047208 <__stack_srv_end+0x7c7c5600>
    2b30:	2b180000 	blcs	602b38 <STACK_SRV_SIZE+0x5c2b38>
    2b34:	00000000 	andeq	r0, r0, r0
    2b38:	05d81800 	ldrbeq	r1, [r8, #2048]	; 0x800
    2b3c:	173c0000 	ldrne	r0, [ip, -r0]!
    2b40:	09188180 	ldmdbeq	r8, {r7, r8, pc}
    2b44:	c5010000 	strgt	r0, [r1, #-0]
    2b48:	0005fe13 	andeq	pc, r5, r3, lsl lr	; <UNPREDICTABLE>
    2b4c:	05f31300 	ldrbeq	r1, [r3, #768]!	; 0x300
    2b50:	e8130000 	ldmda	r3, {}	; <UNPREDICTABLE>
    2b54:	0e000005 	cdpeq	0, 0, cr0, cr0, cr5, {0}
    2b58:	00000918 	andeq	r0, r0, r8, lsl r9
    2b5c:	00060914 	andeq	r0, r6, r4, lsl r9
    2b60:	06141000 	ldreq	r1, [r4], -r0
    2b64:	2b340000 	blcs	d02b6c <STACK_SRV_SIZE+0xcc2b6c>
    2b68:	1f100000 	svcne	0x00100000
    2b6c:	52000006 	andpl	r0, r0, #6
    2b70:	1000002b 	andne	r0, r0, fp, lsr #32
    2b74:	00000629 	andeq	r0, r0, r9, lsr #12
    2b78:	00002b72 	andeq	r2, r0, r2, ror fp
    2b7c:	00063314 	andeq	r3, r6, r4, lsl r3
    2b80:	063e1000 	ldrteq	r1, [lr], -r0
    2b84:	2bb20000 	blcs	fec82b8c <__stack_srv_end+0x7d400f84>
    2b88:	47100000 	ldrmi	r0, [r0, -r0]
    2b8c:	c5000006 	strgt	r0, [r0, #-6]
    2b90:	0d00002b 	stceq	0, cr0, [r0, #-172]	; 0xffffff54
    2b94:	00000a13 	andeq	r0, r0, r3, lsl sl
    2b98:	81801754 	orrhi	r1, r0, r4, asr r7
    2b9c:	00000938 	andeq	r0, r0, r8, lsr r9
    2ba0:	03f7ae01 	mvnseq	sl, #1, 28
    2ba4:	2a110000 	bcs	442bac <STACK_SRV_SIZE+0x402bac>
    2ba8:	f200000a 	vhadd.s8	d0, d0, d10
    2bac:	1100002b 	tstne	r0, fp, lsr #32
    2bb0:	00000a1f 	andeq	r0, r0, pc, lsl sl
    2bb4:	00002c05 	andeq	r2, r0, r5, lsl #24
    2bb8:	06570d00 	ldrbeq	r0, [r7], -r0, lsl #26
    2bbc:	17580000 	ldrbne	r0, [r8, -r0]
    2bc0:	09508180 	ldmdbeq	r0, {r7, r8, pc}^
    2bc4:	af010000 	svcge	0x00010000
    2bc8:	000004a3 	andeq	r0, r0, r3, lsr #9
    2bcc:	00066e11 	andeq	r6, r6, r1, lsl lr
    2bd0:	002c2100 	eoreq	r2, ip, r0, lsl #2
    2bd4:	06631100 	strbteq	r1, [r3], -r0, lsl #2
    2bd8:	2c340000 	ldccs	0, cr0, [r4], #-0
    2bdc:	500e0000 	andpl	r0, lr, r0
    2be0:	10000009 	andne	r0, r0, r9
    2be4:	00000679 	andeq	r0, r0, r9, ror r6
    2be8:	00002c48 	andeq	r2, r0, r8, asr #24
    2bec:	00068410 	andeq	r8, r6, r0, lsl r4
    2bf0:	002c7800 	eoreq	r7, ip, r0, lsl #16
    2bf4:	0a360d00 	beq	d85ffc <STACK_SRV_SIZE+0xd45ffc>
    2bf8:	17580000 	ldrbne	r0, [r8, -r0]
    2bfc:	09708180 	ldmdbeq	r0!, {r7, r8, pc}^
    2c00:	9e010000 	cdpls	0, 0, cr0, cr1, cr0, {0}
    2c04:	00000459 	andeq	r0, r0, r9, asr r4
    2c08:	000a4d11 	andeq	r4, sl, r1, lsl sp
    2c0c:	002ca300 	eoreq	sl, ip, r0, lsl #6
    2c10:	0a421100 	beq	1087018 <STACK_SRV_SIZE+0x1047018>
    2c14:	2cb80000 	ldccs	0, cr0, [r8]
    2c18:	16000000 	strne	r0, [r0], -r0
    2c1c:	00000a13 	andeq	r0, r0, r3, lsl sl
    2c20:	81801778 	orrhi	r1, r0, r8, ror r7
    2c24:	00000004 	andeq	r0, r0, r4
    2c28:	047f9401 	ldrbteq	r9, [pc], #-1025	; 2c30 <__spl_size+0x138c>
    2c2c:	2a110000 	bcs	442c34 <STACK_SRV_SIZE+0x402c34>
    2c30:	d400000a 	strle	r0, [r0], #-10
    2c34:	1100002c 	tstne	r0, ip, lsr #32
    2c38:	00000a1f 	andeq	r0, r0, pc, lsl sl
    2c3c:	00002ce7 	andeq	r2, r0, r7, ror #25
    2c40:	0a131200 	beq	4c7448 <STACK_SRV_SIZE+0x487448>
    2c44:	177c0000 	ldrbne	r0, [ip, -r0]!
    2c48:	00048180 	andeq	r8, r4, r0, lsl #3
    2c4c:	95010000 	strls	r0, [r1, #-0]
    2c50:	000a2a11 	andeq	r2, sl, r1, lsl sl
    2c54:	002d0300 	eoreq	r0, sp, r0, lsl #6
    2c58:	0a1f1100 	beq	7c7060 <STACK_SRV_SIZE+0x787060>
    2c5c:	2d160000 	ldccs	0, cr0, [r6, #-0]
    2c60:	00000000 	andeq	r0, r0, r0
    2c64:	0a591600 	beq	164846c <STACK_SRV_SIZE+0x160846c>
    2c68:	17900000 	ldrne	r0, [r0, r0]
    2c6c:	00048180 	andeq	r8, r4, r0, lsl #3
    2c70:	b0010000 	andlt	r0, r1, r0
    2c74:	000004c0 	andeq	r0, r0, r0, asr #9
    2c78:	000a6911 	andeq	r6, sl, r1, lsl r9
    2c7c:	002d3200 	eoreq	r3, sp, r0, lsl #4
    2c80:	13160000 	tstne	r6, #0
    2c84:	9800000a 	stmdals	r0, {r1, r3}
    2c88:	04818017 	streq	r8, [r1], #23
    2c8c:	01000000 	mrseq	r0, (UNDEF: 0)
    2c90:	0004e6b0 			; <UNDEFINED> instruction: 0x0004e6b0
    2c94:	0a2a1100 	beq	a8709c <STACK_SRV_SIZE+0xa4709c>
    2c98:	2d4e0000 	stclcs	0, cr0, [lr, #-0]
    2c9c:	1f110000 	svcne	0x00110000
    2ca0:	6d00000a 	stcvs	0, cr0, [r0, #-40]	; 0xffffffd8
    2ca4:	0000002d 	andeq	r0, r0, sp, lsr #32
    2ca8:	000a5916 	andeq	r5, sl, r6, lsl r9
    2cac:	80179c00 	andshi	r9, r7, r0, lsl #24
    2cb0:	00000481 	andeq	r0, r0, r1, lsl #9
    2cb4:	03b20100 			; <UNDEFINED> instruction: 0x03b20100
    2cb8:	11000005 	tstne	r0, r5
    2cbc:	00000a69 	andeq	r0, r0, r9, ror #20
    2cc0:	00002d9d 	muleq	r0, sp, sp
    2cc4:	0a751800 	beq	1d48ccc <STACK_SRV_SIZE+0x1d08ccc>
    2cc8:	17b00000 	ldrne	r0, [r0, r0]!
    2ccc:	09908180 	ldmibeq	r0, {r7, r8, pc}
    2cd0:	b5010000 	strlt	r0, [r1, #-0]
    2cd4:	000a8111 	andeq	r8, sl, r1, lsl r1
    2cd8:	002db900 	eoreq	fp, sp, r0, lsl #18
    2cdc:	00000000 	andeq	r0, r0, r0
    2ce0:	068e1200 	streq	r1, [lr], r0, lsl #4
    2ce4:	17e40000 	strbne	r0, [r4, r0]!
    2ce8:	00148180 	andseq	r8, r4, r0, lsl #3
    2cec:	d4010000 	strle	r0, [r1], #-0
    2cf0:	8017e419 	andshi	lr, r7, r9, lsl r4
    2cf4:	00001481 	andeq	r1, r0, r1, lsl #9
    2cf8:	069a1000 	ldreq	r1, [sl], r0
    2cfc:	2dfd0000 	ldclcs	0, cr0, [sp]
    2d00:	a5100000 	ldrge	r0, [r0, #-0]
    2d04:	19000006 	stmdbne	r0, {r1, r2}
    2d08:	1600002e 	strne	r0, [r0], -lr, lsr #32
    2d0c:	00000a59 	andeq	r0, r0, r9, asr sl
    2d10:	818017e4 	orrhi	r1, r0, r4, ror #15
    2d14:	00000008 	andeq	r0, r0, r8
    2d18:	05668901 	strbeq	r8, [r6, #-2305]!	; 0xfffff6ff
    2d1c:	69110000 	ldmdbvs	r1, {}	; <UNPREDICTABLE>
    2d20:	2c00000a 	stccs	0, cr0, [r0], {10}
    2d24:	0000002e 	andeq	r0, r0, lr, lsr #32
    2d28:	000a1312 	andeq	r1, sl, r2, lsl r3
    2d2c:	8017f400 	andshi	pc, r7, r0, lsl #8
    2d30:	00000481 	andeq	r0, r0, r1, lsl #9
    2d34:	118c0100 	orrne	r0, ip, r0, lsl #2
    2d38:	00000a2a 	andeq	r0, r0, sl, lsr #20
    2d3c:	00002e48 	andeq	r2, r0, r8, asr #28
    2d40:	000a1f11 	andeq	r1, sl, r1, lsl pc
    2d44:	002e5b00 	eoreq	r5, lr, r0, lsl #22
    2d48:	00000000 	andeq	r0, r0, r0
    2d4c:	00331a00 	eorseq	r1, r3, r0, lsl #20
    2d50:	059b0000 	ldreq	r0, [fp]
    2d54:	5e1b0000 	cdppl	0, 1, cr0, cr11, cr0, {0}
    2d58:	03000000 	movweq	r0, #0
    2d5c:	06171c00 	ldreq	r1, [r7], -r0, lsl #24
    2d60:	c1010000 	mrsgt	r0, (UNDEF: 1)
    2d64:	0000004c 	andeq	r0, r0, ip, asr #32
    2d68:	0005d801 	andeq	sp, r5, r1, lsl #16
    2d6c:	06ce1d00 	strbeq	r1, [lr], r0, lsl #26
    2d70:	c1010000 	mrsgt	r0, (UNDEF: 1)
    2d74:	0000008c 	andeq	r0, r0, ip, lsl #1
    2d78:	0005b11d 	andeq	fp, r5, sp, lsl r1
    2d7c:	4cc10100 	stfmie	f0, [r1], {0}
    2d80:	1d000000 	stcne	0, cr0, [r0, #-0]
    2d84:	000006ab 	andeq	r0, r0, fp, lsr #13
    2d88:	008cc101 	addeq	ip, ip, r1, lsl #2
    2d8c:	371d0000 	ldrcc	r0, [sp, -r0]
    2d90:	01000006 	tsteq	r0, r6
    2d94:	00004cc1 	andeq	r4, r0, r1, asr #25
    2d98:	4d1c0000 	ldcmi	0, cr0, [ip, #-0]
    2d9c:	01000006 	tsteq	r0, r6
    2da0:	00004ca2 	andeq	r4, r0, r2, lsr #25
    2da4:	06510100 	ldrbeq	r0, [r1], -r0, lsl #2
    2da8:	ce1d0000 	cdpgt	0, 1, cr0, cr13, cr0, {0}
    2dac:	01000006 	tsteq	r0, r6
    2db0:	00008ca2 	andeq	r8, r0, r2, lsr #25
    2db4:	06ab1d00 	strteq	r1, [fp], r0, lsl #26
    2db8:	a2010000 	andge	r0, r1, #0
    2dbc:	0000008c 	andeq	r0, r0, ip, lsl #1
    2dc0:	6e656c1e 	mcrvs	12, 3, r6, cr5, cr14, {0}
    2dc4:	4ca20100 	stfmis	f0, [r2]
    2dc8:	1f000000 	svcne	0x00000000
    2dcc:	000000a4 	andeq	r0, r0, r4, lsr #1
    2dd0:	0081a401 	addeq	sl, r1, r1, lsl #8
    2dd4:	b31f0000 	tstlt	pc, #0
    2dd8:	01000003 	tsteq	r0, r3
    2ddc:	00004ca5 	andeq	r4, r0, r5, lsr #25
    2de0:	78742000 	ldmdavc	r4!, {sp}^
    2de4:	51a60100 			; <UNDEFINED> instruction: 0x51a60100
    2de8:	20000006 	andcs	r0, r0, r6
    2dec:	01007872 	tsteq	r0, r2, ror r8
    2df0:	000651a7 	andeq	r5, r6, r7, lsr #3
    2df4:	61762000 	cmnvs	r6, r0
    2df8:	a801006c 	stmdage	r1, {r2, r3, r5, r6}
    2dfc:	00000033 	andeq	r0, r0, r3, lsr r0
    2e00:	01006e20 	tsteq	r0, r0, lsr #28
    2e04:	00004ca9 	andeq	r4, r0, r9, lsr #25
    2e08:	00692000 	rsbeq	r2, r9, r0
    2e0c:	004ca901 	subeq	sl, ip, r1, lsl #18
    2e10:	21000000 	mrscs	r0, (UNDEF: 0)
    2e14:	00003304 	andeq	r3, r0, r4, lsl #6
    2e18:	06c02200 	strbeq	r2, [r0], r0, lsl #4
    2e1c:	8f010000 	svchi	0x00010000
    2e20:	00068e01 	andeq	r8, r6, r1, lsl #28
    2e24:	75621e00 	strbvc	r1, [r2, #-3584]!	; 0xfffff200
    2e28:	8f010066 	svchi	0x00010066
    2e2c:	00000651 	andeq	r0, r0, r1, asr r6
    2e30:	6e656c1e 	mcrvs	12, 3, r6, cr5, cr14, {0}
    2e34:	4c8f0100 	stfmis	f0, [pc], {0}
    2e38:	1f000000 	svcne	0x00000000
    2e3c:	000000a4 	andeq	r0, r0, r4, lsr #1
    2e40:	00819101 	addeq	r9, r1, r1, lsl #2
    2e44:	69200000 	stmdbvs	r0!, {}	; <UNPREDICTABLE>
    2e48:	4c920100 	ldfmis	f0, [r2], {0}
    2e4c:	00000000 	andeq	r0, r0, r0
    2e50:	0005c622 	andeq	ip, r5, r2, lsr #12
    2e54:	01840100 	orreq	r0, r4, r0, lsl #2
    2e58:	000006b1 			; <UNDEFINED> instruction: 0x000006b1
    2e5c:	0000a41f 	andeq	sl, r0, pc, lsl r4
    2e60:	81860100 	orrhi	r0, r6, r0, lsl #2
    2e64:	20000000 	andcs	r0, r0, r0
    2e68:	006c6176 	rsbeq	r6, ip, r6, ror r1
    2e6c:	00538701 	subseq	r8, r3, r1, lsl #14
    2e70:	22000000 	andcs	r0, r0, #0
    2e74:	000005b7 			; <UNDEFINED> instruction: 0x000005b7
    2e78:	d4017901 	strle	r7, [r1], #-2305	; 0xfffff6ff
    2e7c:	1f000006 	svcne	0x00000006
    2e80:	000000a4 	andeq	r0, r0, r4, lsr #1
    2e84:	00817b01 	addeq	r7, r1, r1, lsl #22
    2e88:	76200000 	strtvc	r0, [r0], -r0
    2e8c:	01006c61 	tsteq	r0, r1, ror #24
    2e90:	0000537c 	andeq	r5, r0, ip, ror r3
    2e94:	07090000 	streq	r0, [r9, -r0]
    2e98:	01000006 	tsteq	r0, r6
    2e9c:	8016986e 	andshi	r9, r6, lr, ror #16
    2ea0:	00001881 	andeq	r1, r0, r1, lsl #17
    2ea4:	459c0100 	ldrmi	r0, [ip, #256]	; 0x100
    2ea8:	23000007 	movwcs	r0, #7
    2eac:	000000a4 	andeq	r0, r0, r4, lsr #1
    2eb0:	00817001 	addeq	r7, r1, r1
    2eb4:	50000000 	andpl	r0, r0, r0
    2eb8:	760c01c0 	strvc	r0, [ip], -r0, asr #3
    2ebc:	01006c61 	tsteq	r0, r1, ror #24
    2ec0:	00005371 	andeq	r5, r0, r1, ror r3
    2ec4:	16530100 	ldrbne	r0, [r3], -r0, lsl #2
    2ec8:	00000a59 	andeq	r0, r0, r9, asr sl
    2ecc:	81801698 			; <UNDEFINED> instruction: 0x81801698
    2ed0:	00000008 	andeq	r0, r0, r8
    2ed4:	07227401 	streq	r7, [r2, -r1, lsl #8]!
    2ed8:	69110000 	ldmdbvs	r1, {}	; <UNPREDICTABLE>
    2edc:	7700000a 	strvc	r0, [r0, -sl]
    2ee0:	0000002e 	andeq	r0, r0, lr, lsr #32
    2ee4:	000a1312 	andeq	r1, sl, r2, lsl r3
    2ee8:	8016a400 	andshi	sl, r6, r0, lsl #8
    2eec:	00000481 	andeq	r0, r0, r1, lsl #9
    2ef0:	11760100 	cmnne	r6, r0, lsl #2
    2ef4:	00000a2a 	andeq	r0, r0, sl, lsr #20
    2ef8:	00002e93 	muleq	r0, r3, lr
    2efc:	000a1f11 	andeq	r1, sl, r1, lsl pc
    2f00:	002ea600 	eoreq	sl, lr, r0, lsl #12
    2f04:	09000000 	stmdbeq	r0, {}	; <UNPREDICTABLE>
    2f08:	0000063d 	andeq	r0, r0, sp, lsr r6
    2f0c:	15e03201 	strbne	r3, [r0, #513]!	; 0x201
    2f10:	00b88180 	adcseq	r8, r8, r0, lsl #3
    2f14:	9c010000 	stcls	0, cr0, [r1], {-0}
    2f18:	00000a13 	andeq	r0, r0, r3, lsl sl
    2f1c:	0000a424 	andeq	sl, r0, r4, lsr #8
    2f20:	81340100 	teqhi	r4, r0, lsl #2
    2f24:	c2000000 	andgt	r0, r0, #0
    2f28:	2500002e 	strcs	r0, [r0, #-46]	; 0xffffffd2
    2f2c:	006c6176 	rsbeq	r6, ip, r6, ror r1
    2f30:	00533501 	subseq	r3, r3, r1, lsl #10
    2f34:	2f1a0000 	svccs	0x001a0000
    2f38:	590d0000 	stmdbpl	sp, {}	; <UNPREDICTABLE>
    2f3c:	e000000a 	and	r0, r0, sl
    2f40:	c0818015 	addgt	r8, r1, r5, lsl r0
    2f44:	01000007 	tsteq	r0, r7
    2f48:	00079539 	andeq	r9, r7, r9, lsr r5
    2f4c:	0a691100 	beq	1a47354 <STACK_SRV_SIZE+0x1a07354>
    2f50:	2f910000 	svccs	0x00910000
    2f54:	0d000000 	stceq	0, cr0, [r0, #-0]
    2f58:	00000a13 	andeq	r0, r0, r3, lsl sl
    2f5c:	818015e4 	orrhi	r1, r0, r4, ror #11
    2f60:	000007d8 	ldrdeq	r0, [r0], -r8
    2f64:	07bb5b01 	ldreq	r5, [fp, r1, lsl #22]!
    2f68:	2a110000 	bcs	442f70 <STACK_SRV_SIZE+0x402f70>
    2f6c:	ad00000a 	stcge	0, cr0, [r0, #-40]	; 0xffffffd8
    2f70:	1100002f 	tstne	r0, pc, lsr #32
    2f74:	00000a1f 	andeq	r0, r0, pc, lsl sl
    2f78:	00002fc3 	andeq	r2, r0, r3, asr #31
    2f7c:	0a131600 	beq	4c8784 <STACK_SRV_SIZE+0x488784>
    2f80:	15f80000 	ldrbne	r0, [r8, #0]!
    2f84:	00048180 	andeq	r8, r4, r0, lsl #3
    2f88:	3c010000 	stccc	0, cr0, [r1], {-0}
    2f8c:	000007e1 	andeq	r0, r0, r1, ror #15
    2f90:	000a2a11 	andeq	r2, sl, r1, lsl sl
    2f94:	002fdf00 	eoreq	sp, pc, r0, lsl #30
    2f98:	0a1f1100 	beq	7c73a0 <STACK_SRV_SIZE+0x7873a0>
    2f9c:	2ff20000 	svccs	0x00f20000
    2fa0:	16000000 	strne	r0, [r0], -r0
    2fa4:	00000a59 	andeq	r0, r0, r9, asr sl
    2fa8:	818015fc 	strdhi	r1, [r0, ip]
    2fac:	00000004 	andeq	r0, r0, r4
    2fb0:	07fe3e01 	ldrbeq	r3, [lr, r1, lsl #28]!
    2fb4:	69110000 	ldmdbvs	r1, {}	; <UNPREDICTABLE>
    2fb8:	0e00000a 	cdpeq	0, 0, cr0, cr0, cr10, {0}
    2fbc:	00000030 	andeq	r0, r0, r0, lsr r0
    2fc0:	000a590d 	andeq	r5, sl, sp, lsl #18
    2fc4:	80160000 	andshi	r0, r6, r0
    2fc8:	0007f881 	andeq	pc, r7, r1, lsl #17
    2fcc:	1b620100 	blne	18833d4 <STACK_SRV_SIZE+0x18433d4>
    2fd0:	11000008 	tstne	r0, r8
    2fd4:	00000a69 	andeq	r0, r0, r9, ror #20
    2fd8:	0000302a 	andeq	r3, r0, sl, lsr #32
    2fdc:	0a131600 	beq	4c87e4 <STACK_SRV_SIZE+0x4887e4>
    2fe0:	160c0000 	strne	r0, [ip], -r0
    2fe4:	00048180 	andeq	r8, r4, r0, lsl #3
    2fe8:	41010000 	mrsmi	r0, (UNDEF: 1)
    2fec:	00000841 	andeq	r0, r0, r1, asr #16
    2ff0:	000a2a11 	andeq	r2, sl, r1, lsl sl
    2ff4:	00304600 	eorseq	r4, r0, r0, lsl #12
    2ff8:	0a1f1100 	beq	7c7400 <STACK_SRV_SIZE+0x787400>
    2ffc:	30590000 	subscc	r0, r9, r0
    3000:	16000000 	strne	r0, [r0], -r0
    3004:	00000a59 	andeq	r0, r0, r9, asr sl
    3008:	81801610 	orrhi	r1, r0, r0, lsl r6
    300c:	00000004 	andeq	r0, r0, r4
    3010:	085e4301 	ldmdaeq	lr, {r0, r8, r9, lr}^
    3014:	69110000 	ldmdbvs	r1, {}	; <UNPREDICTABLE>
    3018:	7500000a 	strvc	r0, [r0, #-10]
    301c:	00000030 	andeq	r0, r0, r0, lsr r0
    3020:	000a1316 	andeq	r1, sl, r6, lsl r3
    3024:	80161c00 	andshi	r1, r6, r0, lsl #24
    3028:	00000481 	andeq	r0, r0, r1, lsl #9
    302c:	84460100 	strbhi	r0, [r6], #-256	; 0xffffff00
    3030:	11000008 	tstne	r0, r8
    3034:	00000a2a 	andeq	r0, r0, sl, lsr #20
    3038:	00003091 	muleq	r0, r1, r0
    303c:	000a1f11 	andeq	r1, sl, r1, lsl pc
    3040:	0030a400 	eorseq	sl, r0, r0, lsl #8
    3044:	59160000 	ldmdbpl	r6, {}	; <UNPREDICTABLE>
    3048:	2000000a 	andcs	r0, r0, sl
    304c:	04818016 	streq	r8, [r1], #22
    3050:	01000000 	mrseq	r0, (UNDEF: 0)
    3054:	0008a148 	andeq	sl, r8, r8, asr #2
    3058:	0a691100 	beq	1a47460 <STACK_SRV_SIZE+0x1a07460>
    305c:	30c00000 	sbccc	r0, r0, r0
    3060:	16000000 	strne	r0, [r0], -r0
    3064:	00000a13 	andeq	r0, r0, r3, lsl sl
    3068:	8180162c 	orrhi	r1, r0, ip, lsr #12
    306c:	00000004 	andeq	r0, r0, r4
    3070:	08c74b01 	stmiaeq	r7, {r0, r8, r9, fp, lr}^
    3074:	2a110000 	bcs	44307c <STACK_SRV_SIZE+0x40307c>
    3078:	dc00000a 	stcle	0, cr0, [r0], {10}
    307c:	11000030 	tstne	r0, r0, lsr r0
    3080:	00000a1f 	andeq	r0, r0, pc, lsl sl
    3084:	000030ef 	andeq	r3, r0, pc, ror #1
    3088:	0a591600 	beq	1648890 <STACK_SRV_SIZE+0x1608890>
    308c:	16300000 	ldrtne	r0, [r0], -r0
    3090:	00048180 	andeq	r8, r4, r0, lsl #3
    3094:	4f010000 	svcmi	0x00010000
    3098:	000008e4 	andeq	r0, r0, r4, ror #17
    309c:	000a6911 	andeq	r6, sl, r1, lsl r9
    30a0:	00310b00 	eorseq	r0, r1, r0, lsl #22
    30a4:	13160000 	tstne	r6, #0
    30a8:	3800000a 	stmdacc	r0, {r1, r3}
    30ac:	04818016 	streq	r8, [r1], #22
    30b0:	01000000 	mrseq	r0, (UNDEF: 0)
    30b4:	00090a51 	andeq	r0, r9, r1, asr sl
    30b8:	0a2a1100 	beq	a874c0 <STACK_SRV_SIZE+0xa474c0>
    30bc:	31270000 			; <UNDEFINED> instruction: 0x31270000
    30c0:	1f110000 	svcne	0x00110000
    30c4:	3a00000a 	bcc	30f4 <__spl_size+0x1850>
    30c8:	00000031 	andeq	r0, r0, r1, lsr r0
    30cc:	000a5916 	andeq	r5, sl, r6, lsl r9
    30d0:	80163c00 	andshi	r3, r6, r0, lsl #24
    30d4:	00000481 	andeq	r0, r0, r1, lsl #9
    30d8:	27550100 	ldrbcs	r0, [r5, -r0, lsl #2]
    30dc:	11000009 	tstne	r0, r9
    30e0:	00000a69 	andeq	r0, r0, r9, ror #20
    30e4:	00003156 	andeq	r3, r0, r6, asr r1
    30e8:	0a131600 	beq	4c88f0 <STACK_SRV_SIZE+0x4888f0>
    30ec:	16440000 	strbne	r0, [r4], -r0
    30f0:	00048180 	andeq	r8, r4, r0, lsl #3
    30f4:	57010000 	strpl	r0, [r1, -r0]
    30f8:	0000094d 	andeq	r0, r0, sp, asr #18
    30fc:	000a2a11 	andeq	r2, sl, r1, lsl sl
    3100:	00317200 	eorseq	r7, r1, r0, lsl #4
    3104:	0a1f1100 	beq	7c750c <STACK_SRV_SIZE+0x78750c>
    3108:	31850000 	orrcc	r0, r5, r0
    310c:	16000000 	strne	r0, [r0], -r0
    3110:	00000a59 	andeq	r0, r0, r9, asr sl
    3114:	8180164c 	orrhi	r1, r0, ip, asr #12
    3118:	00000004 	andeq	r0, r0, r4
    311c:	096a5f01 	stmdbeq	sl!, {r0, r8, r9, sl, fp, ip, lr}^
    3120:	69110000 	ldmdbvs	r1, {}	; <UNPREDICTABLE>
    3124:	a100000a 	tstge	r0, sl
    3128:	00000031 	andeq	r0, r0, r1, lsr r0
    312c:	000a1316 	andeq	r1, sl, r6, lsl r3
    3130:	80165800 	andshi	r5, r6, r0, lsl #16
    3134:	00000481 	andeq	r0, r0, r1, lsl #9
    3138:	90610100 	rsbls	r0, r1, r0, lsl #2
    313c:	11000009 	tstne	r0, r9
    3140:	00000a2a 	andeq	r0, r0, sl, lsr #20
    3144:	000031bd 			; <UNDEFINED> instruction: 0x000031bd
    3148:	000a1f17 	andeq	r1, sl, r7, lsl pc
    314c:	c0500400 	subsgt	r0, r0, r0, lsl #8
    3150:	59160001 	ldmdbpl	r6, {r0}
    3154:	6800000a 	stmdavs	r0, {r1, r3}
    3158:	04818016 	streq	r8, [r1], #22
    315c:	01000000 	mrseq	r0, (UNDEF: 0)
    3160:	0009ad64 	andeq	sl, r9, r4, ror #26
    3164:	0a691100 	beq	1a4756c <STACK_SRV_SIZE+0x1a0756c>
    3168:	31dc0000 	bicscc	r0, ip, r0
    316c:	16000000 	strne	r0, [r0], -r0
    3170:	00000a13 	andeq	r0, r0, r3, lsl sl
    3174:	81801674 	orrhi	r1, r0, r4, ror r6
    3178:	00000004 	andeq	r0, r0, r4
    317c:	09d36701 	ldmibeq	r3, {r0, r8, r9, sl, sp, lr}^
    3180:	2a110000 	bcs	443188 <STACK_SRV_SIZE+0x403188>
    3184:	f800000a 			; <UNDEFINED> instruction: 0xf800000a
    3188:	11000031 	tstne	r0, r1, lsr r0
    318c:	00000a1f 	andeq	r0, r0, pc, lsl sl
    3190:	0000320b 	andeq	r3, r0, fp, lsl #4
    3194:	0a591600 	beq	164899c <STACK_SRV_SIZE+0x160899c>
    3198:	16780000 	ldrbtne	r0, [r8], -r0
    319c:	00048180 	andeq	r8, r4, r0, lsl #3
    31a0:	69010000 	stmdbvs	r1, {}	; <UNPREDICTABLE>
    31a4:	000009f0 	strdeq	r0, [r0], -r0	; <UNPREDICTABLE>
    31a8:	000a6911 	andeq	r6, sl, r1, lsl r9
    31ac:	00322700 	eorseq	r2, r2, r0, lsl #14
    31b0:	13120000 	tstne	r2, #0
    31b4:	8400000a 	strhi	r0, [r0], #-10
    31b8:	04818016 	streq	r8, [r1], #22
    31bc:	01000000 	mrseq	r0, (UNDEF: 0)
    31c0:	0a2a116b 	beq	a87774 <STACK_SRV_SIZE+0xa47774>
    31c4:	32430000 	subcc	r0, r3, #0
    31c8:	1f110000 	svcne	0x00110000
    31cc:	5600000a 	strpl	r0, [r0], -sl
    31d0:	00000032 	andeq	r0, r0, r2, lsr r0
    31d4:	00882200 	addeq	r2, r8, r0, lsl #4
    31d8:	28020000 	stmdacs	r2, {}	; <UNPREDICTABLE>
    31dc:	000a3603 	andeq	r3, sl, r3, lsl #12
    31e0:	00a41d00 	adceq	r1, r4, r0, lsl #26
    31e4:	28020000 	stmdacs	r2, {}	; <UNPREDICTABLE>
    31e8:	00000081 	andeq	r0, r0, r1, lsl #1
    31ec:	0005561d 	andeq	r5, r5, sp, lsl r6
    31f0:	53280200 			; <UNDEFINED> instruction: 0x53280200
    31f4:	00000000 	andeq	r0, r0, r0
    31f8:	0006b122 	andeq	fp, r6, r2, lsr #2
    31fc:	031e0200 	tsteq	lr, #0, 4
    3200:	00000a59 	andeq	r0, r0, r9, asr sl
    3204:	0000a41d 	andeq	sl, r0, sp, lsl r4
    3208:	811e0200 	tsthi	lr, r0, lsl #4
    320c:	1d000000 	stcne	0, cr0, [r0, #-0]
    3210:	00000556 	andeq	r0, r0, r6, asr r5
    3214:	00331e02 	eorseq	r1, r3, r2, lsl #28
    3218:	1c000000 	stcne	0, cr0, [r0], {-0}
    321c:	000001ee 	andeq	r0, r0, lr, ror #3
    3220:	00531402 	subseq	r1, r3, r2, lsl #8
    3224:	75030000 	strvc	r0, [r3, #-0]
    3228:	1d00000a 	stcne	0, cr0, [r0, #-40]	; 0xffffffd8
    322c:	000000a4 	andeq	r0, r0, r4, lsr #1
    3230:	00811402 	addeq	r1, r1, r2, lsl #8
    3234:	26000000 	strcs	r0, [r0], -r0
    3238:	00000601 	andeq	r0, r0, r1, lsl #12
    323c:	00330a02 	eorseq	r0, r3, r2, lsl #20
    3240:	1d030000 	stcne	0, cr0, [r3, #-0]
    3244:	000000a4 	andeq	r0, r0, r4, lsr #1
    3248:	00810a02 	addeq	r0, r1, r2, lsl #20
    324c:	00000000 	andeq	r0, r0, r0
    3250:	00000246 	andeq	r0, r0, r6, asr #4
    3254:	0a270004 	beq	9c326c <STACK_SRV_SIZE+0x98326c>
    3258:	01040000 	mrseq	r0, (UNDEF: 4)
    325c:	000000cb 	andeq	r0, r0, fp, asr #1
    3260:	0007130c 	andeq	r1, r7, ip, lsl #6
    3264:	00000d00 	andeq	r0, r0, r0, lsl #26
    3268:	801b2400 	andshi	r2, fp, r0, lsl #8
    326c:	00006081 	andeq	r6, r0, r1, lsl #1
    3270:	000e4a00 	andeq	r4, lr, r0, lsl #20
    3274:	06010200 	streq	r0, [r1], -r0, lsl #4
    3278:	000000bf 	strheq	r0, [r0], -pc	; <UNPREDICTABLE>
    327c:	bd080102 	stflts	f0, [r8, #-8]
    3280:	02000000 	andeq	r0, r0, #0
    3284:	00590502 	subseq	r0, r9, r2, lsl #10
    3288:	02020000 	andeq	r0, r2, #0
    328c:	0001c707 	andeq	ip, r1, r7, lsl #14
    3290:	05040300 	streq	r0, [r4, #-768]	; 0xfffffd00
    3294:	00746e69 	rsbseq	r6, r4, r9, ror #28
    3298:	92070402 	andls	r0, r7, #33554432	; 0x2000000
    329c:	02000001 	andeq	r0, r0, #1
    32a0:	00960508 	addseq	r0, r6, r8, lsl #10
    32a4:	08020000 	stmdaeq	r2, {}	; <UNPREDICTABLE>
    32a8:	00018807 	andeq	r8, r1, r7, lsl #16
    32ac:	05040200 	streq	r0, [r4, #-512]	; 0xfffffe00
    32b0:	0000009b 	muleq	r0, fp, r0
    32b4:	8d070402 	cfstrshi	mvf0, [r7, #-8]
    32b8:	04000001 	streq	r0, [r0], #-1
    32bc:	08010204 	stmdaeq	r1, {r2, r9}
    32c0:	000000c6 	andeq	r0, r0, r6, asr #1
    32c4:	00006d05 	andeq	r6, r0, r5, lsl #26
    32c8:	6d040600 	stcvs	6, cr0, [r4, #-0]
    32cc:	06000000 	streq	r0, [r0], -r0
    32d0:	00007404 	andeq	r7, r0, r4, lsl #8
    32d4:	04040200 	streq	r0, [r4], #-512	; 0xfffffe00
    32d8:	00000090 	muleq	r0, r0, r0
    32dc:	e1040802 	tst	r4, r2, lsl #16
    32e0:	07000001 	streq	r0, [r0, -r1]
    32e4:	00000446 	andeq	r0, r0, r6, asr #8
    32e8:	1b805a01 	blne	fe019af4 <__stack_srv_end+0x7c797eec>
    32ec:	00048180 	andeq	r8, r4, r0, lsl #3
    32f0:	9c010000 	stcls	0, cr0, [r1], {-0}
    32f4:	000000b6 	strheq	r0, [r0], -r6
    32f8:	00042208 	andeq	r2, r4, r8, lsl #4
    32fc:	6b5a0100 	blvs	1683704 <STACK_SRV_SIZE+0x1643704>
    3300:	01000000 	mrseq	r0, (UNDEF: 0)
    3304:	f6070050 			; <UNDEFINED> instruction: 0xf6070050
    3308:	01000006 	tsteq	r0, r6
    330c:	801b7c4f 	andshi	r7, fp, pc, asr #24
    3310:	00000481 	andeq	r0, r0, r1, lsl #9
    3314:	009c0100 	addseq	r0, ip, r0, lsl #2
    3318:	08000001 	stmdaeq	r0, {r0}
    331c:	000006e2 	andeq	r0, r0, r2, ror #13
    3320:	007f4f01 	rsbseq	r4, pc, r1, lsl #30
    3324:	50010000 	andpl	r0, r1, r0
    3328:	00070408 	andeq	r0, r7, r8, lsl #8
    332c:	414f0100 	mrsmi	r0, (UNDEF: 95)
    3330:	01000000 	mrseq	r0, (UNDEF: 0)
    3334:	06ff0851 	usateq	r0, #31, r1, asr #16
    3338:	4f010000 	svcmi	0x00010000
    333c:	0000007f 	andeq	r0, r0, pc, ror r0
    3340:	f1085201 			; <UNDEFINED> instruction: 0xf1085201
    3344:	01000006 	tsteq	r0, r6
    3348:	00007f4f 	andeq	r7, r0, pc, asr #30
    334c:	00530100 	subseq	r0, r3, r0, lsl #2
    3350:	00072409 	andeq	r2, r7, r9, lsl #8
    3354:	78480100 	stmdavc	r8, {r8}^
    3358:	0481801b 	streq	r8, [r1], #27
    335c:	01000000 	mrseq	r0, (UNDEF: 0)
    3360:	06d40a9c 			; <UNDEFINED> instruction: 0x06d40a9c
    3364:	42010000 	andmi	r0, r1, #0
    3368:	00012901 	andeq	r2, r1, r1, lsl #18
    336c:	736d0b00 	cmnvc	sp, #0, 22
    3370:	42010067 	andmi	r0, r1, #103	; 0x67
    3374:	0000007f 	andeq	r0, r0, pc, ror r0
    3378:	06e70c00 	strbteq	r0, [r7], r0, lsl #24
    337c:	0b010000 	bleq	43384 <STACK_SRV_SIZE+0x3384>
    3380:	00000041 	andeq	r0, r0, r1, asr #32
    3384:	81801b24 	orrhi	r1, r0, r4, lsr #22
    3388:	00000050 	andeq	r0, r0, r0, asr r0
    338c:	02129c01 	andseq	r9, r2, #256	; 0x100
    3390:	090d0000 	stmdbeq	sp, {}	; <UNPREDICTABLE>
    3394:	01000007 	tsteq	r0, r7
    3398:	0000410b 	andeq	r4, r0, fp, lsl #2
    339c:	00327200 	eorseq	r7, r2, r0, lsl #4
    33a0:	070e0d00 	streq	r0, [lr, -r0, lsl #26]
    33a4:	0b010000 	bleq	433ac <STACK_SRV_SIZE+0x33ac>
    33a8:	00000212 	andeq	r0, r0, r2, lsl r2
    33ac:	00003293 	muleq	r0, r3, r2
    33b0:	0005630e 	andeq	r6, r5, lr, lsl #6
    33b4:	410d0100 	mrsmi	r0, (UNDEF: 29)
    33b8:	71000000 	mrsvc	r0, (UNDEF: 0)
    33bc:	0f000001 	svceq	0x00000001
    33c0:	1b301000 	blne	c073c8 <STACK_SRV_SIZE+0xbc73c8>
    33c4:	02338180 	eorseq	r8, r3, #128, 2
    33c8:	01850000 	orreq	r0, r5, r0
    33cc:	01110000 	tsteq	r1, r0
    33d0:	6d080250 	sfmvs	f0, 4, [r8, #-320]	; 0xfffffec0
    33d4:	1b381000 	blne	e073dc <STACK_SRV_SIZE+0xdc73dc>
    33d8:	02338180 	eorseq	r8, r3, #128, 2
    33dc:	01990000 	orrseq	r0, r9, r0
    33e0:	01110000 	tsteq	r1, r0
    33e4:	61080250 	tstvs	r8, r0, asr r2
    33e8:	1b401000 	blne	10073f0 <STACK_SRV_SIZE+0xfc73f0>
    33ec:	02338180 	eorseq	r8, r3, #128, 2
    33f0:	01ad0000 			; <UNDEFINED> instruction: 0x01ad0000
    33f4:	01110000 	tsteq	r1, r0
    33f8:	69080250 	stmdbvs	r8, {r4, r6, r9}
    33fc:	1b481000 	blne	1207404 <STACK_SRV_SIZE+0x11c7404>
    3400:	02338180 	eorseq	r8, r3, #128, 2
    3404:	01c10000 	biceq	r0, r1, r0
    3408:	01110000 	tsteq	r1, r0
    340c:	6e080250 	mcrvs	2, 0, r0, cr8, cr0, {2}
    3410:	1b501000 	blne	1407418 <STACK_SRV_SIZE+0x13c7418>
    3414:	02338180 	eorseq	r8, r3, #128, 2
    3418:	01d40000 	bicseq	r0, r4, r0
    341c:	01110000 	tsteq	r1, r0
    3420:	003d0150 	eorseq	r0, sp, r0, asr r1
    3424:	801b5810 	andshi	r5, fp, r0, lsl r8
    3428:	00023381 	andeq	r3, r2, r1, lsl #7
    342c:	0001e700 	andeq	lr, r1, r0, lsl #14
    3430:	50011100 	andpl	r1, r1, r0, lsl #2
    3434:	10003a01 	andne	r3, r0, r1, lsl #20
    3438:	81801b60 	orrhi	r1, r0, r0, ror #22
    343c:	0000023e 	andeq	r0, r0, lr, lsr r2
    3440:	000001fe 	strdeq	r0, [r0], -lr
    3444:	05500111 	ldrbeq	r0, [r0, #-273]	; 0xfffffeef
    3448:	801be803 	andshi	lr, fp, r3, lsl #16
    344c:	68120081 	ldmdavs	r2, {r0, r7}
    3450:	3e81801b 	mcrcc	0, 4, r8, cr1, cr11, {0}
    3454:	11000002 	tstne	r0, r2
    3458:	03055001 	movweq	r5, #20481	; 0x5001
    345c:	81801bf8 	strdhi	r1, [r0, r8]
    3460:	04060000 	streq	r0, [r6], #-0
    3464:	00000079 	andeq	r0, r0, r9, ror r0
    3468:	00011113 	andeq	r1, r1, r3, lsl r1
    346c:	801b7400 	andshi	r7, fp, r0, lsl #8
    3470:	00000481 	andeq	r0, r0, r1, lsl #9
    3474:	339c0100 	orrscc	r0, ip, #0, 2
    3478:	14000002 	strne	r0, [r0], #-2
    347c:	0000011d 	andeq	r0, r0, sp, lsl r1
    3480:	15005001 	strne	r5, [r0, #-1]
    3484:	00000563 	andeq	r0, r0, r3, ror #10
    3488:	00000563 	andeq	r0, r0, r3, ror #10
    348c:	75150d01 	ldrvc	r0, [r5, #-3329]	; 0xfffff2ff
    3490:	75000004 	strvc	r0, [r0, #-4]
    3494:	02000004 	andeq	r0, r0, #4
    3498:	02d80072 	sbcseq	r0, r8, #114	; 0x72
    349c:	00040000 	andeq	r0, r4, r0
    34a0:	00000b5a 	andeq	r0, r0, sl, asr fp
    34a4:	00cb0104 	sbceq	r0, fp, r4, lsl #2
    34a8:	9a0c0000 	bls	3034b0 <STACK_SRV_SIZE+0x2c34b0>
    34ac:	0d000007 	stceq	0, cr0, [r0, #-28]	; 0xffffffe4
    34b0:	48000000 	stmdami	r0, {}	; <UNPREDICTABLE>
    34b4:	5c818018 	stcpl	0, cr8, [r1], {24}
    34b8:	b4000000 	strlt	r0, [r0], #-0
    34bc:	0200000e 	andeq	r0, r0, #14
    34c0:	00bf0601 	adcseq	r0, pc, r1, lsl #12
    34c4:	9e030000 	cdpls	0, 0, cr0, cr3, cr0, {0}
    34c8:	02000006 	andeq	r0, r0, #6
    34cc:	0000370d 	andeq	r3, r0, sp, lsl #14
    34d0:	08010200 	stmdaeq	r1, {r9}
    34d4:	000000bd 	strheq	r0, [r0], -sp
    34d8:	59050202 	stmdbpl	r5, {r1, r9}
    34dc:	02000000 	andeq	r0, r0, #0
    34e0:	01c70702 	biceq	r0, r7, r2, lsl #14
    34e4:	04040000 	streq	r0, [r4], #-0
    34e8:	746e6905 	strbtvc	r6, [lr], #-2309	; 0xfffff6fb
    34ec:	01e80300 	mvneq	r0, r0, lsl #6
    34f0:	13020000 	movwne	r0, #8192	; 0x2000
    34f4:	0000005e 	andeq	r0, r0, lr, asr r0
    34f8:	92070402 	andls	r0, r7, #33554432	; 0x2000000
    34fc:	02000001 	andeq	r0, r0, #1
    3500:	00960508 	addseq	r0, r6, r8, lsl #10
    3504:	08020000 	stmdaeq	r2, {}	; <UNPREDICTABLE>
    3508:	00018807 	andeq	r8, r1, r7, lsl #16
    350c:	05040200 	streq	r0, [r4, #-512]	; 0xfffffe00
    3510:	0000009b 	muleq	r0, fp, r0
    3514:	8d070402 	cfstrshi	mvf0, [r7, #-8]
    3518:	05000001 	streq	r0, [r0, #-1]
    351c:	08010204 	stmdaeq	r1, {r2, r9}
    3520:	000000c6 	andeq	r0, r0, r6, asr #1
    3524:	90040402 	andls	r0, r4, r2, lsl #8
    3528:	02000000 	andeq	r0, r0, #0
    352c:	01e10408 	mvneq	r0, r8, lsl #8
    3530:	3f030000 	svccc	0x00030000
    3534:	03000007 	movweq	r0, #7
    3538:	00002c0b 	andeq	r2, r0, fp, lsl #24
    353c:	020f0300 	andeq	r0, pc, #0, 6
    3540:	11030000 	mrsne	r0, (UNDEF: 3)
    3544:	00000053 	andeq	r0, r0, r3, asr r0
    3548:	00003706 	andeq	r3, r0, r6, lsl #14
    354c:	0000b900 	andeq	fp, r0, r0, lsl #18
    3550:	08000700 	stmdaeq	r0, {r8, r9, sl}
    3554:	00000773 	andeq	r0, r0, r3, ror r7
    3558:	00ae2101 	adceq	r2, lr, r1, lsl #2
    355c:	67080000 	strvs	r0, [r8, -r0]
    3560:	01000007 	tsteq	r0, r7
    3564:	0000ae22 	andeq	sl, r0, r2, lsr #28
    3568:	074d0800 	strbeq	r0, [sp, -r0, lsl #16]
    356c:	23010000 	movwcs	r0, #4096	; 0x1000
    3570:	000000ae 	andeq	r0, r0, lr, lsr #1
    3574:	00078109 	andeq	r8, r7, r9, lsl #2
    3578:	01010000 	mrseq	r0, (UNDEF: 1)
    357c:	00016c2f 	andeq	r6, r1, pc, lsr #24
    3580:	07c80a00 	strbeq	r0, [r8, r0, lsl #20]
    3584:	31010000 	mrscc	r0, (UNDEF: 1)
    3588:	0000016c 	andeq	r0, r0, ip, ror #2
    358c:	656b0b00 	strbvs	r0, [fp, #-2816]!	; 0xfffff500
    3590:	32010079 	andcc	r0, r1, #121	; 0x79
    3594:	0000017c 	andeq	r0, r0, ip, ror r1
    3598:	07890a04 	streq	r0, [r9, r4, lsl #20]
    359c:	33010000 	movwcc	r0, #4096	; 0x1000
    35a0:	0000017c 	andeq	r0, r0, ip, ror r1
    35a4:	07900a24 	ldreq	r0, [r0, r4, lsr #20]
    35a8:	34010000 	strcc	r0, [r1], #-0
    35ac:	0000018c 	andeq	r0, r0, ip, lsl #3
    35b0:	075a0a44 	ldrbeq	r0, [sl, -r4, asr #20]
    35b4:	35010000 	strcc	r0, [r1, #-0]
    35b8:	0000016c 	andeq	r0, r0, ip, ror #2
    35bc:	039d0a84 	orrseq	r0, sp, #132, 20	; 0x84000
    35c0:	36010000 	strcc	r0, [r1], -r0
    35c4:	0000016c 	andeq	r0, r0, ip, ror #2
    35c8:	07c10a88 	strbeq	r0, [r1, r8, lsl #21]
    35cc:	37010000 	strcc	r0, [r1, -r0]
    35d0:	0000019c 	muleq	r0, ip, r1
    35d4:	07470a8c 	strbeq	r0, [r7, -ip, lsl #21]
    35d8:	38010000 	stmdacc	r1, {}	; <UNPREDICTABLE>
    35dc:	00000098 	muleq	r0, r8, r0
    35e0:	07600aad 	strbeq	r0, [r0, -sp, lsr #21]!
    35e4:	39010000 	stmdbcc	r1, {}	; <UNPREDICTABLE>
    35e8:	00000098 	muleq	r0, r8, r0
    35ec:	07ae0aae 	streq	r0, [lr, lr, lsr #21]!
    35f0:	3a010000 	bcc	435f8 <STACK_SRV_SIZE+0x35f8>
    35f4:	00000098 	muleq	r0, r8, r0
    35f8:	07370aaf 	ldreq	r0, [r7, -pc, lsr #21]!
    35fc:	3b010000 	blcc	43604 <STACK_SRV_SIZE+0x3604>
    3600:	000001ac 	andeq	r0, r0, ip, lsr #3
    3604:	980600b0 	stmdals	r6, {r4, r5, r7}
    3608:	7c000000 	stcvc	0, cr0, [r0], {-0}
    360c:	0c000001 	stceq	0, cr0, [r0], {1}
    3610:	0000005e 	andeq	r0, r0, lr, asr r0
    3614:	98060003 	stmdals	r6, {r0, r1}
    3618:	8c000000 	stchi	0, cr0, [r0], {-0}
    361c:	0c000001 	stceq	0, cr0, [r0], {1}
    3620:	0000005e 	andeq	r0, r0, lr, asr r0
    3624:	9806001f 	stmdals	r6, {r0, r1, r2, r3, r4}
    3628:	9c000000 	stcls	0, cr0, [r0], {-0}
    362c:	0c000001 	stceq	0, cr0, [r0], {1}
    3630:	0000005e 	andeq	r0, r0, lr, asr r0
    3634:	9806003f 	stmdals	r6, {r0, r1, r2, r3, r4, r5}
    3638:	ac000000 	stcge	0, cr0, [r0], {-0}
    363c:	0c000001 	stceq	0, cr0, [r0], {1}
    3640:	0000005e 	andeq	r0, r0, lr, asr r0
    3644:	98060020 	stmdals	r6, {r5}
    3648:	bc000000 	stclt	0, cr0, [r0], {-0}
    364c:	0c000001 	stceq	0, cr0, [r0], {1}
    3650:	0000005e 	andeq	r0, r0, lr, asr r0
    3654:	b40d004f 	strlt	r0, [sp], #-79	; 0xffffffb1
    3658:	01000007 	tsteq	r0, r7
    365c:	8018484e 	andshi	r4, r8, lr, asr #16
    3660:	00005c81 	andeq	r5, r0, r1, lsl #25
    3664:	a99c0100 	ldmibge	ip, {r8}
    3668:	0e000002 	cdpeq	0, 0, cr0, cr0, cr2, {0}
    366c:	5201007a 	andpl	r0, r1, #122	; 0x7a
    3670:	000002a9 	andeq	r0, r0, r9, lsr #5
    3674:	00075a0f 	andeq	r5, r7, pc, lsl #20
    3678:	a3530100 	cmpge	r3, #0, 2
    367c:	0f000000 	svceq	0x00000000
    3680:	0000039d 	muleq	r0, sp, r3
    3684:	00a35301 	adceq	r5, r3, r1, lsl #6
    3688:	6d0e0000 	stcvs	0, cr0, [lr, #-0]
    368c:	01006d65 	tsteq	r0, r5, ror #26
    3690:	00008154 	andeq	r8, r0, r4, asr r1
    3694:	6d740e00 	ldclvs	14, cr0, [r4, #-0]
    3698:	54010070 	strpl	r0, [r1], #-112	; 0xffffff90
    369c:	00000081 	andeq	r0, r0, r1, lsl #1
    36a0:	0002fd10 	andeq	pc, r2, r0, lsl sp	; <UNPREDICTABLE>
    36a4:	a3550100 	cmpge	r5, #0, 2
    36a8:	b4000000 	strlt	r0, [r0], #-0
    36ac:	11000032 	tstne	r0, r2, lsr r0
    36b0:	81801858 	orrhi	r1, r0, r8, asr r8
    36b4:	000002af 	andeq	r0, r0, pc, lsr #5
    36b8:	00000229 	andeq	r0, r0, r9, lsr #4
    36bc:	02500112 	subseq	r0, r0, #-2147483644	; 0x80000004
    36c0:	11005308 	tstne	r0, r8, lsl #6
    36c4:	81801864 	orrhi	r1, r0, r4, ror #16
    36c8:	000002af 	andeq	r0, r0, pc, lsr #5
    36cc:	0000023d 	andeq	r0, r0, sp, lsr r2
    36d0:	02500112 	subseq	r0, r0, #-2147483644	; 0x80000004
    36d4:	11005008 	tstne	r0, r8
    36d8:	8180186c 	orrhi	r1, r0, ip, ror #16
    36dc:	000002af 	andeq	r0, r0, pc, lsr #5
    36e0:	00000251 	andeq	r0, r0, r1, asr r2
    36e4:	02500112 	subseq	r0, r0, #-2147483644	; 0x80000004
    36e8:	11004908 	tstne	r0, r8, lsl #18
    36ec:	81801874 	orrhi	r1, r0, r4, ror r8
    36f0:	000002af 	andeq	r0, r0, pc, lsr #5
    36f4:	00000264 	andeq	r0, r0, r4, ror #4
    36f8:	01500112 	cmpeq	r0, r2, lsl r1
    36fc:	8011003d 	andshi	r0, r1, sp, lsr r0
    3700:	af818018 	svcge	0x00818018
    3704:	77000002 	strvc	r0, [r0, -r2]
    3708:	12000002 	andne	r0, r0, #2
    370c:	3a015001 	bcc	57718 <STACK_SRV_SIZE+0x17718>
    3710:	18841300 	stmne	r4, {r8, r9, ip}
    3714:	02ba8180 	adcseq	r8, sl, #128, 2
    3718:	94110000 	ldrls	r0, [r1], #-0
    371c:	c5818018 	strgt	r8, [r1, #24]
    3720:	9f000002 	svcls	0x00000002
    3724:	12000002 	andne	r0, r0, #2
    3728:	30015001 	andcc	r5, r1, r1
    372c:	02510112 	subseq	r0, r1, #-2147483644	; 0x80000004
    3730:	01120075 	tsteq	r2, r5, ror r0
    3734:	00740252 	rsbseq	r0, r4, r2, asr r2
    3738:	189c1400 	ldmne	ip, {sl, ip}
    373c:	02d08180 	sbcseq	r8, r0, #128, 2
    3740:	15000000 	strne	r0, [r0, #-0]
    3744:	0000da04 	andeq	sp, r0, r4, lsl #20
    3748:	05631600 	strbeq	r1, [r3, #-1536]!	; 0xfffffa00
    374c:	05630000 	strbeq	r0, [r3, #-0]!
    3750:	26010000 	strcs	r0, [r1], -r0
    3754:	00063d16 	andeq	r3, r6, r6, lsl sp
    3758:	00063d00 	andeq	r3, r6, r0, lsl #26
    375c:	162b0100 	strtne	r0, [fp], -r0, lsl #2
    3760:	00000686 	andeq	r0, r0, r6, lsl #13
    3764:	00000686 	andeq	r0, r0, r6, lsl #13
    3768:	07162d01 	ldreq	r2, [r6, -r1, lsl #26]
    376c:	07000006 	streq	r0, [r0, -r6]
    3770:	01000006 	tsteq	r0, r6
    3774:	00c4002c 	sbceq	r0, r4, ip, lsr #32
    3778:	00040000 	andeq	r0, r4, r0
    377c:	00000c7c 	andeq	r0, r0, ip, ror ip
    3780:	00cb0104 	sbceq	r0, fp, r4, lsl #2
    3784:	d50c0000 	strle	r0, [ip, #-0]
    3788:	0d000007 	stceq	0, cr0, [r0, #-28]	; 0xffffffe4
    378c:	48000000 	stmdami	r0, {}	; <UNPREDICTABLE>
    3790:	2c818005 	stccs	0, cr8, [r1], {5}
    3794:	3d000000 	stccc	0, cr0, [r0, #-0]
    3798:	0200000f 	andeq	r0, r0, #15
    379c:	00bf0601 	adcseq	r0, pc, r1, lsl #12
    37a0:	01020000 	mrseq	r0, (UNDEF: 2)
    37a4:	0000bd08 	andeq	fp, r0, r8, lsl #26
    37a8:	05020200 	streq	r0, [r2, #-512]	; 0xfffffe00
    37ac:	00000059 	andeq	r0, r0, r9, asr r0
    37b0:	c7070202 	strgt	r0, [r7, -r2, lsl #4]
    37b4:	03000001 	movweq	r0, #1
    37b8:	6e690504 	cdpvs	5, 6, cr0, cr9, cr4, {0}
    37bc:	04020074 	streq	r0, [r2], #-116	; 0xffffff8c
    37c0:	00019207 	andeq	r9, r1, r7, lsl #4
    37c4:	05080200 	streq	r0, [r8, #-512]	; 0xfffffe00
    37c8:	00000096 	muleq	r0, r6, r0
    37cc:	88070802 	stmdahi	r7, {r1, fp}
    37d0:	02000001 	andeq	r0, r0, #1
    37d4:	009b0504 	addseq	r0, fp, r4, lsl #10
    37d8:	04020000 	streq	r0, [r2], #-0
    37dc:	00018d07 	andeq	r8, r1, r7, lsl #26
    37e0:	08010200 	stmdaeq	r1, {r9}
    37e4:	000000c6 	andeq	r0, r0, r6, asr #1
    37e8:	00006b04 	andeq	r6, r0, r4, lsl #22
    37ec:	72040500 	andvc	r0, r4, #0, 10
    37f0:	02000000 	andeq	r0, r0, #0
    37f4:	00900404 	addseq	r0, r0, r4, lsl #8
    37f8:	08020000 	stmdaeq	r2, {}	; <UNPREDICTABLE>
    37fc:	0001e104 	andeq	lr, r1, r4, lsl #2
    3800:	07ce0600 	strbeq	r0, [lr, r0, lsl #12]
    3804:	5b020000 	blpl	8380c <STACK_SRV_SIZE+0x4380c>
    3808:	00000048 	andeq	r0, r0, r8, asr #32
    380c:	0004e207 	andeq	lr, r4, r7, lsl #4
    3810:	8b0c0100 	blhi	303c18 <STACK_SRV_SIZE+0x2c3c18>
    3814:	48000000 	stmdami	r0, {}	; <UNPREDICTABLE>
    3818:	2c818005 	stccs	0, cr8, [r1], {5}
    381c:	01000000 	mrseq	r0, (UNDEF: 0)
    3820:	0073089c 			; <UNDEFINED> instruction: 0x0073089c
    3824:	00770c01 	rsbseq	r0, r7, r1, lsl #24
    3828:	32c70000 	sbccc	r0, r7, #0
    382c:	73090000 	movwvc	r0, #36864	; 0x9000
    3830:	0e010063 	cdpeq	0, 0, cr0, cr1, cr3, {3}
    3834:	00000077 	andeq	r0, r0, r7, ror r0
    3838:	000032fb 	strdeq	r3, [r0], -fp
	...

Disassembly of section .debug_line:

00000000 <.debug_line>:
   0:	000000ca 	andeq	r0, r0, sl, asr #1
   4:	00230002 	eoreq	r0, r3, r2
   8:	01020000 	mrseq	r0, (UNDEF: 2)
   c:	000d0efb 	strdeq	r0, [sp], -fp
  10:	01010101 	tsteq	r1, r1, lsl #2
  14:	01000000 	mrseq	r0, (UNDEF: 0)
  18:	62010000 	andvs	r0, r1, #0
  1c:	00746f6f 	rsbseq	r6, r4, pc, ror #30
  20:	61747300 	cmnvs	r4, r0, lsl #6
  24:	532e7472 			; <UNDEFINED> instruction: 0x532e7472
  28:	00000100 	andeq	r0, r0, r0, lsl #2
  2c:	02050000 	andeq	r0, r5, #0
  30:	81800060 	orrhi	r0, r0, r0, rrx
  34:	0100e203 	tsteq	r0, r3, lsl #4
  38:	2f2f2f2f 	svccs	0x002f2f2f
  3c:	032f2f2f 			; <UNDEFINED> instruction: 0x032f2f2f
  40:	2f2ff216 	svccs	0x002ff216
  44:	2f2f2f2f 	svccs	0x002f2f2f
  48:	2f312f2f 	svccs	0x00312f2f
  4c:	2f2f2f2f 	svccs	0x002f2f2f
  50:	2f312f2f 	svccs	0x00312f2f
  54:	2f312f2f 	svccs	0x00312f2f
  58:	2f2f312f 	svccs	0x002f312f
  5c:	2f2f2f2f 	svccs	0x002f2f2f
  60:	2f322f2f 	svccs	0x00322f2f
  64:	2e15032f 	cdpcs	3, 1, cr0, cr5, cr15, {1}
  68:	2f2f2f2f 	svccs	0x002f2f2f
  6c:	2f2f312f 	svccs	0x002f312f
  70:	2f302f2f 	svccs	0x00302f2f
  74:	2f302f2f 	svccs	0x00302f2f
  78:	2f302f2f 	svccs	0x00302f2f
  7c:	2f302f2f 	svccs	0x00302f2f
  80:	2f312f2f 	svccs	0x00312f2f
  84:	312f2f2f 			; <UNDEFINED> instruction: 0x312f2f2f
  88:	2f2f302f 	svccs	0x002f302f
  8c:	2f2f322f 	svccs	0x002f322f
  90:	2f2f2f2f 	svccs	0x002f2f2f
  94:	2f2f2f2f 	svccs	0x002f2f2f
  98:	2f2f2f2f 	svccs	0x002f2f2f
  9c:	2f2f2f2f 	svccs	0x002f2f2f
  a0:	2f2f2f2f 	svccs	0x002f2f2f
  a4:	2f2f2f2f 	svccs	0x002f2f2f
  a8:	f6f6f6a5 			; <UNDEFINED> instruction: 0xf6f6f6a5
  ac:	022ff6f6 	eoreq	pc, pc, #257949696	; 0xf600000
  b0:	082f133e 	stmdaeq	pc!, {r1, r2, r3, r4, r5, r8, r9, ip}	; <UNPREDICTABLE>
  b4:	3e022fcc 	cdpcc	15, 0, cr2, cr2, cr12, {6}
  b8:	d7032f13 	smladle	r3, r3, pc, r2	; <UNPREDICTABLE>
  bc:	0134027e 	teqeq	r4, lr, ror r2
  c0:	032e1703 			; <UNDEFINED> instruction: 0x032e1703
  c4:	29032e20 	stmdbcs	r3, {r5, r9, sl, fp, sp}
  c8:	0002022e 	andeq	r0, r2, lr, lsr #4
  cc:	00610101 	rsbeq	r0, r1, r1, lsl #2
  d0:	00020000 	andeq	r0, r2, r0
  d4:	00000023 	andeq	r0, r0, r3, lsr #32
  d8:	0efb0102 	cdpeq	1, 15, cr0, cr11, cr2, {0}
  dc:	0101000d 	tsteq	r1, sp
  e0:	00000101 	andeq	r0, r0, r1, lsl #2
  e4:	00000100 	andeq	r0, r0, r0, lsl #2
  e8:	62696c01 	rsbvs	r6, r9, #256	; 0x100
  ec:	656d0000 	strbvs	r0, [sp, #-0]!
  f0:	7465736d 	strbtvc	r7, [r5], #-877	; 0xfffffc93
  f4:	0100532e 	tsteq	r0, lr, lsr #6
  f8:	00000000 	andeq	r0, r0, r0
  fc:	04a00205 	strteq	r0, [r0], #517	; 0x205
 100:	0a038180 	beq	e0708 <STACK_SRV_SIZE+0xa0708>
 104:	2f302f01 	svccs	0x00302f01
 108:	2f302f31 	svccs	0x00302f31
 10c:	2f2f2f2f 	svccs	0x002f2f2f
 110:	2f322f30 	svccs	0x00322f30
 114:	2f312f31 	svccs	0x00312f31
 118:	2f312f2f 	svccs	0x00312f2f
 11c:	31302f2f 	teqcc	r0, pc, lsr #30
 120:	2f2f352f 	svccs	0x002f352f
 124:	2f2f312f 	svccs	0x002f312f
 128:	2f2f2f30 	svccs	0x002f2f30
 12c:	02022f30 	andeq	r2, r2, #48, 30	; 0xc0
 130:	19010100 	stmdbne	r1, {r8}
 134:	02000001 	andeq	r0, r0, #1
 138:	00005500 	andeq	r5, r0, r0, lsl #10
 13c:	fb010200 	blx	40946 <STACK_SRV_SIZE+0x946>
 140:	01000d0e 	tsteq	r0, lr, lsl #26
 144:	00010101 	andeq	r0, r1, r1, lsl #2
 148:	00010000 	andeq	r0, r1, r0
 14c:	6f620100 	svcvs	0x00620100
 150:	6200746f 	andvs	r7, r0, #1862270976	; 0x6f000000
 154:	2f746f6f 	svccs	0x00746f6f
 158:	6c636e69 	stclvs	14, cr6, [r3], #-420	; 0xfffffe5c
 15c:	00656475 	rsbeq	r6, r5, r5, ror r4
 160:	336d7261 	cmncc	sp, #268435462	; 0x10000006
 164:	6e692f32 	mcrvs	15, 3, r2, cr9, cr2, {1}
 168:	64756c63 	ldrbtvs	r6, [r5], #-3171	; 0xfffff39d
 16c:	73000065 	movwvc	r0, #101	; 0x65
 170:	632d7379 			; <UNDEFINED> instruction: 0x632d7379
 174:	6b636f6c 	blvs	18dbf2c <STACK_SRV_SIZE+0x189bf2c>
 178:	0100632e 	tsteq	r0, lr, lsr #6
 17c:	6f690000 	svcvs	0x00690000
 180:	0200682e 	andeq	r6, r0, #3014656	; 0x2e0000
 184:	79740000 	ldmdbvc	r4!, {}^	; <UNPREDICTABLE>
 188:	2e736570 	mrccs	5, 3, r6, cr3, cr0, {3}
 18c:	00030068 	andeq	r0, r3, r8, rrx
 190:	05000000 	streq	r0, [r0, #-0]
 194:	800b7802 	andhi	r7, fp, r2, lsl #16
 198:	00e10381 	rsceq	r0, r1, r1, lsl #7
 19c:	03020401 	movweq	r0, #9217	; 0x2401
 1a0:	01040148 	tsteq	r4, r8, asr #2
 1a4:	044a7a03 	strbeq	r7, [sl], #-2563	; 0xfffff5fd
 1a8:	6c033402 	cfstrsvs	mvf3, [r3], {2}
 1ac:	0301044a 	movweq	r0, #5194	; 0x144a
 1b0:	c5032e0e 	strgt	r2, [r3, #-3598]	; 0xfffff1f2
 1b4:	042f2e00 	strteq	r2, [pc], #-3584	; 1bc <__spl_size-0x16e8>
 1b8:	2e400302 	cdpcs	3, 4, cr0, cr0, cr2, {0}
 1bc:	7a030104 	bvc	c05d4 <STACK_SRV_SIZE+0x805d4>
 1c0:	5002042e 	andpl	r0, r2, lr, lsr #8
 1c4:	7a030104 	bvc	c05dc <STACK_SRV_SIZE+0x805dc>
 1c8:	3402042e 	strcc	r0, [r2], #-1070	; 0xfffffbd2
 1cc:	7a030104 	bvc	c05e4 <STACK_SRV_SIZE+0x805e4>
 1d0:	5002042e 	andpl	r0, r2, lr, lsr #8
 1d4:	7a030104 	bvc	c05ec <STACK_SRV_SIZE+0x805ec>
 1d8:	3402042e 	strcc	r0, [r2], #-1070	; 0xfffffbd2
 1dc:	7a030104 	bvc	c05f4 <STACK_SRV_SIZE+0x805f4>
 1e0:	5002042e 	andpl	r0, r2, lr, lsr #8
 1e4:	7a030104 	bvc	c05fc <STACK_SRV_SIZE+0x805fc>
 1e8:	0302044a 	movweq	r0, #9290	; 0x244a
 1ec:	01046672 	tsteq	r4, r2, ror r6
 1f0:	2e00e003 	cdpcs	0, 0, cr14, cr0, cr3, {0}
 1f4:	b4030204 	strlt	r0, [r3], #-516	; 0xfffffdfc
 1f8:	01044a7f 	tsteq	r4, pc, ror sl
 1fc:	032e7a03 			; <UNDEFINED> instruction: 0x032e7a03
 200:	02044a37 	andeq	r4, r4, #225280	; 0x37000
 204:	2e7fbb03 	vaddcs.f64	d27, d15, d3
 208:	c5030104 	strgt	r0, [r3, #-260]	; 0xfffffefc
 20c:	042f4a00 	strteq	r4, [pc], #-2560	; 214 <__spl_size-0x1690>
 210:	4a4e0302 	bmi	1380e20 <STACK_SRV_SIZE+0x1340e20>
 214:	042e6c03 	strteq	r6, [lr], #-3075	; 0xfffff3fd
 218:	661a0301 	ldrvs	r0, [sl], -r1, lsl #6
 21c:	66030204 	strvs	r0, [r3], -r4, lsl #4
 220:	0301042e 	movweq	r0, #5166	; 0x142e
 224:	02042e1a 	andeq	r2, r4, #416	; 0x1a0
 228:	04666603 	strbteq	r6, [r6], #-1539	; 0xfffff9fd
 22c:	2e0e0301 	cdpcs	3, 0, cr0, cr14, cr1, {0}
 230:	72030204 	andvc	r0, r3, #4, 4	; 0x40000000
 234:	0301042e 	movweq	r0, #5166	; 0x142e
 238:	2f2e00e6 	svccs	0x002e00e6
 23c:	ad030204 	sfmge	f0, 4, [r3, #-16]
 240:	01042e7f 	tsteq	r4, pc, ror lr
 244:	032e7a03 			; <UNDEFINED> instruction: 0x032e7a03
 248:	024a00dc 	subeq	r0, sl, #220	; 0xdc
 24c:	0101000e 	tsteq	r1, lr
 250:	00000069 	andeq	r0, r0, r9, rrx
 254:	00520002 	subseq	r0, r2, r2
 258:	01020000 	mrseq	r0, (UNDEF: 2)
 25c:	000d0efb 	strdeq	r0, [sp], -fp
 260:	01010101 	tsteq	r1, r1, lsl #2
 264:	01000000 	mrseq	r0, (UNDEF: 0)
 268:	62010000 	andvs	r0, r1, #0
 26c:	00746f6f 	rsbseq	r6, r4, pc, ror #30
 270:	336d7261 	cmncc	sp, #268435462	; 0x10000006
 274:	6e692f32 	mcrvs	15, 3, r2, cr9, cr2, {1}
 278:	64756c63 	ldrbtvs	r6, [r5], #-3171	; 0xfffff39d
 27c:	696c0065 	stmdbvs	ip!, {r0, r2, r5, r6}^
 280:	6e692f62 	cdpvs	15, 6, cr2, cr9, cr2, {3}
 284:	64756c63 	ldrbtvs	r6, [r5], #-3171	; 0xfffff39d
 288:	6d000065 	stcvs	0, cr0, [r0, #-404]	; 0xfffffe6c
 28c:	632e756d 			; <UNDEFINED> instruction: 0x632e756d
 290:	00000100 	andeq	r0, r0, r0, lsl #2
 294:	65707974 	ldrbvs	r7, [r0, #-2420]!	; 0xfffff68c
 298:	00682e73 	rsbeq	r2, r8, r3, ror lr
 29c:	73000002 	movwvc	r0, #2
 2a0:	6e696474 	mcrvs	4, 3, r6, cr9, cr4, {3}
 2a4:	00682e74 	rsbeq	r2, r8, r4, ror lr
 2a8:	00000003 	andeq	r0, r0, r3
 2ac:	a4020500 	strge	r0, [r2], #-1280	; 0xfffffb00
 2b0:	03818018 	orreq	r8, r1, #24
 2b4:	1a0100c9 	bne	405e0 <STACK_SRV_SIZE+0x5e0>
 2b8:	01000402 	tsteq	r0, r2, lsl #8
 2bc:	00051d01 	andeq	r1, r5, r1, lsl #26
 2c0:	54000200 	strpl	r0, [r0], #-512	; 0xfffffe00
 2c4:	02000000 	andeq	r0, r0, #0
 2c8:	0d0efb01 	vstreq	d15, [lr, #-4]
 2cc:	01010100 	mrseq	r0, (UNDEF: 17)
 2d0:	00000001 	andeq	r0, r0, r1
 2d4:	01000001 	tsteq	r0, r1
 2d8:	746f6f62 	strbtvc	r6, [pc], #-3938	; 2e0 <__spl_size-0x15c4>
 2dc:	6f6f6200 	svcvs	0x006f6200
 2e0:	6e692f74 	mcrvs	15, 3, r2, cr9, cr4, {3}
 2e4:	64756c63 	ldrbtvs	r6, [r5], #-3171	; 0xfffff39d
 2e8:	72610065 	rsbvc	r0, r1, #101	; 0x65
 2ec:	2f32336d 	svccs	0x0032336d
 2f0:	6c636e69 	stclvs	14, cr6, [r3], #-420	; 0xfffffe5c
 2f4:	00656475 	rsbeq	r6, r5, r5, ror r4
 2f8:	73797300 	cmnvc	r9, #0, 6
 2fc:	6172642d 	cmnvs	r2, sp, lsr #8
 300:	00632e6d 	rsbeq	r2, r3, sp, ror #28
 304:	69000001 	stmdbvs	r0, {r0}
 308:	00682e6f 	rsbeq	r2, r8, pc, ror #28
 30c:	74000002 	strvc	r0, [r0], #-2
 310:	73657079 	cmnvc	r5, #121	; 0x79
 314:	0300682e 	movweq	r6, #2094	; 0x82e
 318:	00000000 	andeq	r0, r0, r0
 31c:	0c740205 	lfmeq	f0, 2, [r4], #-20	; 0xffffffec
 320:	9b038180 	blls	e0928 <STACK_SRV_SIZE+0xa0928>
 324:	29170101 	ldmdbcs	r7, {r0, r8}
 328:	2a2e0903 	bcs	b8273c <STACK_SRV_SIZE+0xb4273c>
 32c:	2f317f6a 	svccs	0x00317f6a
 330:	31452f2b 	cmpcc	r5, fp, lsr #30
 334:	302d322b 	eorcc	r3, sp, fp, lsr #4
 338:	29332a2d 	ldmdbcs	r3!, {r0, r2, r3, r5, r9, fp, sp}
 33c:	8b030204 	blhi	c0b54 <STACK_SRV_SIZE+0x80b54>
 340:	01042e7f 	tsteq	r4, pc, ror lr
 344:	2e00f503 	cfsh32cs	mvfx15, mvfx0, #3
 348:	8b030204 	blhi	c0b60 <STACK_SRV_SIZE+0x80b60>
 34c:	6c03667f 	stcvs	6, cr6, [r3], {127}	; 0x7f
 350:	0301042e 	movweq	r0, #5166	; 0x142e
 354:	044a0194 	strbeq	r0, [sl], #-404	; 0xfffffe6c
 358:	7f800302 	svcvc	0x00800302
 35c:	2e6c032e 	cdpcs	3, 6, cr0, cr12, cr14, {1}
 360:	042e1403 	strteq	r1, [lr], #-1027	; 0xfffffbfd
 364:	2e2e0301 	cdpcs	3, 2, cr0, cr14, cr1, {0}
 368:	52030204 	andpl	r0, r3, #4, 4	; 0x40000000
 36c:	0301042e 	movweq	r0, #5166	; 0x142e
 370:	02044a31 	andeq	r4, r4, #200704	; 0x31000
 374:	4a7fbb03 	bmi	1feef88 <STACK_SRV_SIZE+0x1faef88>
 378:	c3030104 	movwgt	r0, #12548	; 0x3104
 37c:	034f2e00 	movteq	r2, #65024	; 0xfe00
 380:	032e00ce 			; <UNDEFINED> instruction: 0x032e00ce
 384:	184a00dd 	stmdane	sl, {r0, r2, r3, r4, r6, r7}^
 388:	87030204 	strhi	r0, [r3, -r4, lsl #4]
 38c:	01044a7e 	tsteq	r4, lr, ror sl
 390:	2e01f303 	cdpcs	3, 0, cr15, cr1, cr3, {0}
 394:	02045030 	andeq	r5, r4, #48	; 0x30
 398:	2e7e8503 	cdpcs	5, 7, cr8, cr14, cr3, {0}
 39c:	042e1403 	strteq	r1, [lr], #-1027	; 0xfffffbfd
 3a0:	01ea0301 	mvneq	r0, r1, lsl #6
 3a4:	02042f2e 	andeq	r2, r4, #46, 30	; 0xb8
 3a8:	2e7e9503 	cdpcs	5, 7, cr9, cr14, cr3, {0}
 3ac:	042e6c03 	strteq	r6, [lr], #-3075	; 0xfffff3fd
 3b0:	00cf0301 	sbceq	r0, pc, r1, lsl #6
 3b4:	0302042e 	movweq	r0, #9262	; 0x242e
 3b8:	01042e45 	tsteq	r4, r5, asr #28
 3bc:	044a3e03 	strbeq	r3, [sl], #-3587	; 0xfffff1fd
 3c0:	7fae0302 	svcvc	0x00ae0302
 3c4:	0301044a 	movweq	r0, #5194	; 0x144a
 3c8:	042e00d0 	strteq	r0, [lr], #-208	; 0xffffff30
 3cc:	7fb00302 	svcvc	0x00b00302
 3d0:	0301044a 	movweq	r0, #5194	; 0x144a
 3d4:	042e0283 	strteq	r0, [lr], #-643	; 0xfffffd7d
 3d8:	7dfd0302 	ldclvc	3, cr0, [sp, #8]!
 3dc:	0301044a 	movweq	r0, #5194	; 0x144a
 3e0:	032e0283 			; <UNDEFINED> instruction: 0x032e0283
 3e4:	02044a78 	andeq	r4, r4, #120, 20	; 0x78000
 3e8:	667e8503 	ldrbtvs	r8, [lr], -r3, lsl #10
 3ec:	032e1403 			; <UNDEFINED> instruction: 0x032e1403
 3f0:	01042e6c 	tsteq	r4, ip, ror #28
 3f4:	4a028f03 	bmi	a4008 <STACK_SRV_SIZE+0x64008>
 3f8:	0302042f 	movweq	r0, #9263	; 0x242f
 3fc:	032e7e84 			; <UNDEFINED> instruction: 0x032e7e84
 400:	01042e6c 	tsteq	r4, ip, ror #28
 404:	2e00cf03 	cdpcs	15, 0, cr12, cr0, cr3, {0}
 408:	45030204 	strmi	r0, [r3, #-516]	; 0xfffffdfc
 40c:	0301042e 	movweq	r0, #5166	; 0x142e
 410:	02044a3e 	andeq	r4, r4, #253952	; 0x3e000
 414:	4a7fae03 	bmi	1febc28 <STACK_SRV_SIZE+0x1fabc28>
 418:	d0030104 	andle	r0, r3, r4, lsl #2
 41c:	d1032e00 	tstle	r3, r0, lsl #28
 420:	fe034a01 	vseleq.f32	s8, s6, s2
 424:	2d2f4a7e 	vstmdbcs	pc!, {s8-s133}
 428:	03020469 	movweq	r0, #9321	; 0x2469
 42c:	042e7ede 	strteq	r7, [lr], #-3806	; 0xfffff122
 430:	01a20301 			; <UNDEFINED> instruction: 0x01a20301
 434:	0204302e 	andeq	r3, r4, #46	; 0x2e
 438:	2e7edc03 	cdpcs	12, 7, cr13, cr14, cr3, {0}
 43c:	a4030104 	strge	r0, [r3], #-260	; 0xfffffefc
 440:	04302e01 	ldrteq	r2, [r0], #-3585	; 0xfffff1ff
 444:	7eda0302 	cdpvc	3, 13, cr0, cr10, cr2, {0}
 448:	0301042e 	movweq	r0, #5166	; 0x142e
 44c:	034a01a0 	movteq	r0, #41376	; 0xa1a0
 450:	2b2f2e0d 	blcs	bcbc8c <STACK_SRV_SIZE+0xb8bc8c>
 454:	75032a32 	strvc	r2, [r3, #-2610]	; 0xfffff5ce
 458:	00e8032e 	rsceq	r0, r8, lr, lsr #6
 45c:	03020466 	movweq	r0, #9318	; 0x2466
 460:	03827df8 	orreq	r7, r2, #248, 26	; 0x3e00
 464:	6c032e14 	stcvs	14, cr2, [r3], {20}
 468:	0301042e 	movweq	r0, #5166	; 0x142e
 46c:	044a0298 	strbeq	r0, [sl], #-664	; 0xfffffd68
 470:	7dfc0302 	ldclvc	3, cr0, [ip, #8]!
 474:	2e6c032e 	cdpcs	3, 6, cr0, cr12, cr14, {1}
 478:	042e1403 	strteq	r1, [lr], #-1027	; 0xfffffbfd
 47c:	01b70301 			; <UNDEFINED> instruction: 0x01b70301
 480:	4a6e032e 	bmi	1b81140 <STACK_SRV_SIZE+0x1b41140>
 484:	db030204 	blle	c0c9c <STACK_SRV_SIZE+0x80c9c>
 488:	01042e7e 	tsteq	r4, lr, ror lr
 48c:	4a01a503 	bmi	698a0 <STACK_SRV_SIZE+0x298a0>
 490:	03020486 	movweq	r0, #9350	; 0x2486
 494:	04827ec3 	streq	r7, [r2], #3779	; 0xec3
 498:	01bf0301 			; <UNDEFINED> instruction: 0x01bf0301
 49c:	03302c4a 	teqeq	r0, #18944	; 0x4a00
 4a0:	02044a0a 	andeq	r4, r4, #40960	; 0xa000
 4a4:	667eb703 	ldrbtvs	fp, [lr], -r3, lsl #14
 4a8:	9c030104 	stflss	f0, [r3], {4}
 4ac:	042f4a02 	strteq	r4, [pc], #-2562	; 4b4 <__spl_size-0x13f0>
 4b0:	7df70302 	ldclvc	3, cr0, [r7, #8]!
 4b4:	0301042e 	movweq	r0, #5166	; 0x142e
 4b8:	032e028d 			; <UNDEFINED> instruction: 0x032e028d
 4bc:	336601b4 	cmncc	r6, #180, 2	; 0x2d
 4c0:	33303229 	teqcc	r0, #-1879048190	; 0x90000002
 4c4:	2f29302a 	svccs	0x0029302a
 4c8:	2f2f332f 	svccs	0x002f332f
 4cc:	78032f2f 	stmdavc	r3, {r0, r1, r2, r3, r5, r8, r9, sl, fp, sp}
 4d0:	2f31302e 	svccs	0x0031302e
 4d4:	79033030 	stmdbvc	r3, {r4, r5, ip, sp}
 4d8:	046a352e 	strbteq	r3, [sl], #-1326	; 0xfffffad2
 4dc:	7c960302 	ldcvc	3, cr0, [r6], {2}
 4e0:	0301044a 	movweq	r0, #5194	; 0x144a
 4e4:	02042e35 	andeq	r2, r4, #848	; 0x350
 4e8:	042e4b03 	strteq	r4, [lr], #-2819	; 0xfffff4fd
 4ec:	02ff0301 	rscseq	r0, pc, #67108864	; 0x4000000
 4f0:	0302042e 	movweq	r0, #9262	; 0x242e
 4f4:	042e7d95 	strteq	r7, [lr], #-3477	; 0xfffff26b
 4f8:	2e210301 	cdpcs	3, 2, cr0, cr1, cr1, {0}
 4fc:	4a02cc03 	bmi	b3510 <STACK_SRV_SIZE+0x73510>
 500:	ff030204 			; <UNDEFINED> instruction: 0xff030204
 504:	01044a7c 	tsteq	r4, ip, ror sl
 508:	2e038303 	cdpcs	3, 0, cr8, cr3, cr3, {0}
 50c:	91030204 	tstls	r3, r4, lsl #4
 510:	01042e7d 	tsteq	r4, sp, ror lr
 514:	2e02f103 	mvfcss	f7, f3
 518:	8f030204 	svchi	0x00030204
 51c:	0104667d 	tsteq	r4, sp, ror r6
 520:	8202f503 	andhi	pc, r2, #12582912	; 0xc00000
 524:	8b030204 	blhi	c0d3c <STACK_SRV_SIZE+0x80d3c>
 528:	01042e7d 	tsteq	r4, sp, ror lr
 52c:	8202fb03 	andhi	pc, r2, #3072	; 0xc00
 530:	03354c2c 	teqeq	r5, #44, 24	; 0x2c00
 534:	2a322e79 	bcs	c8bf20 <STACK_SRV_SIZE+0xc4bf20>
 538:	2a322a32 	bcs	c8ae08 <STACK_SRV_SIZE+0xc4ae08>
 53c:	02043132 	andeq	r3, r4, #-2147483636	; 0x8000000c
 540:	4a7cfe03 	bmi	1f3fd54 <STACK_SRV_SIZE+0x1effd54>
 544:	92030104 	andls	r0, r3, #4, 2
 548:	02048203 	andeq	r8, r4, #805306368	; 0x30000000
 54c:	2e7cee03 	cdpcs	14, 7, cr14, cr12, cr3, {0}
 550:	94030104 	strls	r0, [r3], #-260	; 0xfffffefc
 554:	02042e03 	andeq	r2, r4, #3, 28	; 0x30
 558:	2e7cec03 	cdpcs	12, 7, cr14, cr12, cr3, {0}
 55c:	042e6c03 	strteq	r6, [lr], #-3075	; 0xfffff3fd
 560:	03ab0301 			; <UNDEFINED> instruction: 0x03ab0301
 564:	0302044a 	movweq	r0, #9290	; 0x244a
 568:	032e7ce9 			; <UNDEFINED> instruction: 0x032e7ce9
 56c:	01042e6c 	tsteq	r4, ip, ror #28
 570:	2e03ac03 	cdpcs	12, 0, cr10, cr3, cr3, {0}
 574:	4a7d8903 	bmi	1f62988 <STACK_SRV_SIZE+0x1f22988>
 578:	4b030204 	blmi	c0d90 <STACK_SRV_SIZE+0x80d90>
 57c:	2e140366 	cdpcs	3, 1, cr0, cr4, cr6, {3}
 580:	9a030104 	bls	c0998 <STACK_SRV_SIZE+0x80998>
 584:	02042e03 	andeq	r2, r4, #3, 28	; 0x30
 588:	2e7ce603 	cdpcs	6, 7, cr14, cr12, cr3, {0}
 58c:	032e6c03 			; <UNDEFINED> instruction: 0x032e6c03
 590:	01042e14 	tsteq	r4, r4, lsl lr
 594:	2e039b03 	vmlacs.f64	d9, d3, d3
 598:	e5030204 	str	r0, [r3, #-516]	; 0xfffffdfc
 59c:	6c032e7c 	stcvs	14, cr2, [r3], {124}	; 0x7c
 5a0:	2e14032e 	cdpcs	3, 1, cr0, cr4, cr14, {1}
 5a4:	9e030104 	adflss	f0, f3, f4
 5a8:	02042e03 	andeq	r2, r4, #3, 28	; 0x30
 5ac:	2e7ce203 	cdpcs	2, 7, cr14, cr12, cr3, {0}
 5b0:	042e6c03 	strteq	r6, [lr], #-3075	; 0xfffff3fd
 5b4:	03bc0301 			; <UNDEFINED> instruction: 0x03bc0301
 5b8:	2e79032e 	cdpcs	3, 7, cr0, cr9, cr14, {1}
 5bc:	df030204 	svcle	0x00030204
 5c0:	01042e7c 	tsteq	r4, ip, ror lr
 5c4:	6603a803 	strvs	sl, [r3], -r3, lsl #16
 5c8:	c4030204 	strgt	r0, [r3], #-516	; 0xfffffdfc
 5cc:	01044a7c 	tsteq	r4, ip, ror sl
 5d0:	2e01d803 	cdpcs	8, 0, cr13, cr1, cr3, {0}
 5d4:	a8030204 	stmdage	r3, {r2, r9}
 5d8:	14032e7e 	strne	r2, [r3], #-3710	; 0xfffff182
 5dc:	0301042e 	movweq	r0, #5166	; 0x142e
 5e0:	2f2e01ca 	svccs	0x002e01ca
 5e4:	b5030204 	strlt	r0, [r3, #-516]	; 0xfffffdfc
 5e8:	6c032e7e 	stcvs	14, cr2, [r3], {126}	; 0x7e
 5ec:	0301042e 	movweq	r0, #5166	; 0x142e
 5f0:	042e00cf 	strteq	r0, [lr], #-207	; 0xffffff31
 5f4:	2e450302 	cdpcs	3, 4, cr0, cr5, cr2, {0}
 5f8:	3e030104 	adfccs	f0, f3, f4
 5fc:	0302044a 	movweq	r0, #9290	; 0x244a
 600:	044a7fae 	strbeq	r7, [sl], #-4014	; 0xfffff052
 604:	00d00301 	sbcseq	r0, r0, r1, lsl #6
 608:	0302042e 	movweq	r0, #9262	; 0x242e
 60c:	044a7fb0 	strbeq	r7, [sl], #-4016	; 0xfffff050
 610:	01e30301 	mvneq	r0, r1, lsl #6
 614:	77032f4a 	strvc	r2, [r3, -sl, asr #30]
 618:	0302042e 	movweq	r0, #9262	; 0x242e
 61c:	034a7ea5 	movteq	r7, #44709	; 0xaea5
 620:	6c032e14 	stcvs	14, cr2, [r3], {20}
 624:	0301042e 	movweq	r0, #5166	; 0x142e
 628:	034a01e7 	movteq	r0, #41447	; 0xa1e7
 62c:	032e01d9 			; <UNDEFINED> instruction: 0x032e01d9
 630:	044a7ea9 	strbeq	r7, [sl], #-3753	; 0xfffff157
 634:	7eab0302 	cdpvc	3, 10, cr0, cr11, cr2, {0}
 638:	2e6c0366 	cdpcs	3, 6, cr0, cr12, cr6, {3}
 63c:	c3030104 	movwgt	r0, #12548	; 0x3104
 640:	9d032e03 	stcls	14, cr2, [r3, #-12]
 644:	034c2e7d 	movteq	r2, #52861	; 0xce7d
 648:	68034a10 	stmdavs	r3, {r4, r9, fp, lr}
 64c:	0302044a 	movweq	r0, #9290	; 0x244a
 650:	042e7fba 	strteq	r7, [lr], #-4026	; 0xfffff046
 654:	03b00301 	movseq	r0, #67108864	; 0x4000000
 658:	0302042e 	movweq	r0, #9262	; 0x242e
 65c:	042e7cd0 	strteq	r7, [lr], #-3280	; 0xfffff330
 660:	03b00301 	movseq	r0, #67108864	; 0x4000000
 664:	7dc7032e 	stclvc	3, cr0, [r7, #184]	; 0xb8
 668:	322b324a 	eorcc	r3, fp, #-1610612732	; 0xa0000004
 66c:	2e019b03 	vmlacs.f64	d9, d1, d3
 670:	667ee403 	ldrbtvs	lr, [lr], -r3, lsl #8
 674:	2d2b4e2a 	stccs	14, cr4, [fp, #-168]!	; 0xffffff58
 678:	01a3032c 			; <UNDEFINED> instruction: 0x01a3032c
 67c:	7ee3032e 	cdpvc	3, 14, cr0, cr3, cr14, {1}
 680:	032b2b2e 			; <UNDEFINED> instruction: 0x032b2b2e
 684:	032e01a3 			; <UNDEFINED> instruction: 0x032e01a3
 688:	042e7ee3 	strteq	r7, [lr], #-3811	; 0xfffff11d
 68c:	7f850302 	svcvc	0x00850302
 690:	0301044a 	movweq	r0, #5194	; 0x144a
 694:	342e00f5 	strtcc	r0, [lr], #-245	; 0xffffff0b
 698:	042e7a03 	strteq	r7, [lr], #-2563	; 0xfffff5fd
 69c:	7f8b0302 	svcvc	0x008b0302
 6a0:	2e6c034a 	cdpcs	3, 6, cr0, cr12, cr10, {2}
 6a4:	94030104 	strls	r0, [r3], #-260	; 0xfffffefc
 6a8:	02044a01 	andeq	r4, r4, #4096	; 0x1000
 6ac:	2e7f8003 	cdpcs	0, 7, cr8, cr15, cr3, {0}
 6b0:	032e6c03 			; <UNDEFINED> instruction: 0x032e6c03
 6b4:	01042e14 	tsteq	r4, r4, lsl lr
 6b8:	042e2e03 	strteq	r2, [lr], #-3587	; 0xfffff1fd
 6bc:	2e520302 	cdpcs	3, 5, cr0, cr2, cr2, {0}
 6c0:	31030104 	tstcc	r3, r4, lsl #2
 6c4:	0302044a 	movweq	r0, #9290	; 0x244a
 6c8:	044a7fbb 	strbeq	r7, [sl], #-4027	; 0xfffff045
 6cc:	00c30301 	sbceq	r0, r3, r1, lsl #6
 6d0:	01eb032e 	mvneq	r0, lr, lsr #6
 6d4:	2b2f694a 	blcs	bdac04 <STACK_SRV_SIZE+0xb9ac04>
 6d8:	6e472f30 	mcrvs	15, 2, r2, cr7, cr0, {1}
 6dc:	2e74032b 	cdpcs	3, 7, cr0, cr4, cr11, {1}
 6e0:	672e0f03 	strvs	r0, [lr, -r3, lsl #30]!
 6e4:	0a03502a 	beq	d4794 <STACK_SRV_SIZE+0x94794>
 6e8:	2c302d4a 	ldccs	13, cr2, [r0], #-296	; 0xfffffed8
 6ec:	2d322f2f 	ldccs	15, cr2, [r2, #-188]!	; 0xffffff44
 6f0:	2f2e0a03 	svccs	0x002e0a03
 6f4:	33667a03 	cmncc	r6, #12288	; 0x3000
 6f8:	0352472f 	cmpeq	r2, #12320768	; 0xbc0000
 6fc:	16032e6a 	strne	r2, [r3], -sl, ror #28
 700:	5229682e 	eorpl	r6, r9, #3014656	; 0x2e0000
 704:	334a0903 	movtcc	r0, #43267	; 0xa903
 708:	2e0b0329 	cdpcs	3, 0, cr0, cr11, cr9, {1}
 70c:	032e7403 			; <UNDEFINED> instruction: 0x032e7403
 710:	7a032e0c 	bvc	cbf48 <STACK_SRV_SIZE+0x8bf48>
 714:	0302042e 	movweq	r0, #9262	; 0x242e
 718:	042e7d95 	strteq	r7, [lr], #-3477	; 0xfffff26b
 71c:	02f30301 	rscseq	r0, r3, #67108864	; 0x4000000
 720:	0302042e 	movweq	r0, #9262	; 0x242e
 724:	042e7d8d 	strteq	r7, [lr], #-3469	; 0xfffff273
 728:	00e00301 	rsceq	r0, r0, r1, lsl #6
 72c:	10034c2e 	andne	r4, r3, lr, lsr #24
 730:	4a68034a 	bmi	1a01460 <STACK_SRV_SIZE+0x19c1460>
 734:	ba030204 	blt	c0f4c <STACK_SRV_SIZE+0x80f4c>
 738:	01042e7f 	tsteq	r4, pc, ror lr
 73c:	2e02e003 	cdpcs	0, 0, cr14, cr2, cr3, {0}
 740:	a0030204 	andge	r0, r3, r4, lsl #4
 744:	01042e7d 	tsteq	r4, sp, ror lr
 748:	2e02e103 	mvfcss	f6, f3
 74c:	d4032f2d 	strle	r2, [r3], #-3885	; 0xfffff0d3
 750:	51804a00 	orrpl	r4, r0, r0, lsl #20
 754:	4a1d03b8 	bmi	74163c <STACK_SRV_SIZE+0x70163c>
 758:	9e7efd03 	cdpls	13, 7, cr15, cr14, cr3, {0}
 75c:	312f2a31 			; <UNDEFINED> instruction: 0x312f2a31
 760:	4e4a3103 	dvfmie	f3, f2, f3
 764:	f6030204 			; <UNDEFINED> instruction: 0xf6030204
 768:	01044a7c 	tsteq	r4, ip, ror sl
 76c:	0800d003 	stmdaeq	r0, {r0, r1, ip, lr, pc}
 770:	2d4b683c 	stclcs	8, cr6, [fp, #-240]	; 0xffffff10
 774:	71034c4b 	tstvc	r3, fp, asr #24
 778:	2e0f032e 	cdpcs	3, 0, cr0, cr15, cr14, {1}
 77c:	032b312c 			; <UNDEFINED> instruction: 0x032b312c
 780:	2d4a01dd 	stfcse	f0, [sl, #-884]	; 0xfffffc8c
 784:	2f2f2c30 	svccs	0x002f2c30
 788:	2d2e0903 			; <UNDEFINED> instruction: 0x2d2e0903
 78c:	4a7e9703 	bmi	1fa63a0 <STACK_SRV_SIZE+0x1f663a0>
 790:	4b2d4b68 	blmi	b53538 <STACK_SRV_SIZE+0xb13538>
 794:	2e71034c 	cdpcs	3, 7, cr0, cr1, cr12, {2}
 798:	2c2e0f03 	stccs	15, cr0, [lr], #-12
 79c:	0d032b31 	vstreq	d2, [r3, #-196]	; 0xffffff3c
 7a0:	2d4b844a 	cfstrdcs	mvd8, [fp, #-296]	; 0xfffffed8
 7a4:	61034c4b 	tstvs	r3, fp, asr #24
 7a8:	2e1f032e 	cdpcs	3, 1, cr0, cr15, cr14, {1}
 7ac:	472b312c 	strmi	r3, [fp, -ip, lsr #2]!
 7b0:	4b2d4b84 	blmi	b535c8 <STACK_SRV_SIZE+0xb135c8>
 7b4:	2e61034c 	cdpcs	3, 6, cr0, cr1, cr12, {2}
 7b8:	2c2e1f03 	stccs	15, cr1, [lr], #-12
 7bc:	78032b31 	stmdavc	r3, {r0, r4, r5, r8, r9, fp, sp}
 7c0:	0810034a 	ldmdaeq	r0, {r1, r3, r6, r8, r9}
 7c4:	02a3033c 	adceq	r0, r3, #60, 6	; 0xf0000000
 7c8:	0302049e 	movweq	r0, #9374	; 0x249e
 7cc:	042e7cf2 	strteq	r7, [lr], #-3314	; 0xfffff30e
 7d0:	00eb0301 	rsceq	r0, fp, r1, lsl #6
 7d4:	01ee039e 			; <UNDEFINED> instruction: 0x01ee039e
 7d8:	003c029e 	mlaseq	ip, lr, r2, r0
 7dc:	008c0101 	addeq	r0, ip, r1, lsl #2
 7e0:	00020000 	andeq	r0, r2, r0
 7e4:	00000058 	andeq	r0, r0, r8, asr r0
 7e8:	0efb0102 	cdpeq	1, 15, cr0, cr11, cr2, {0}
 7ec:	0101000d 	tsteq	r1, sp
 7f0:	00000101 	andeq	r0, r0, r1, lsl #2
 7f4:	00000100 	andeq	r0, r0, r0, lsl #2
 7f8:	6f6f6201 	svcvs	0x006f6201
 7fc:	72610074 	rsbvc	r0, r1, #116	; 0x74
 800:	2f32336d 	svccs	0x0032336d
 804:	6c636e69 	stclvs	14, cr6, [r3], #-420	; 0xfffffe5c
 808:	00656475 	rsbeq	r6, r5, r5, ror r4
 80c:	2f62696c 	svccs	0x0062696c
 810:	6c636e69 	stclvs	14, cr6, [r3], #-420	; 0xfffffe5c
 814:	00656475 	rsbeq	r6, r5, r5, ror r4
 818:	63786500 	cmnvs	r8, #0, 10
 81c:	69747065 	ldmdbvs	r4!, {r0, r2, r5, r6, ip, sp, lr}^
 820:	632e6e6f 			; <UNDEFINED> instruction: 0x632e6e6f
 824:	00000100 	andeq	r0, r0, r0, lsl #2
 828:	65707974 	ldrbvs	r7, [r0, #-2420]!	; 0xfffff68c
 82c:	00682e73 	rsbeq	r2, r8, r3, ror lr
 830:	73000002 	movwvc	r0, #2
 834:	6e696474 	mcrvs	4, 3, r6, cr9, cr4, {3}
 838:	00682e74 	rsbeq	r2, r8, r4, ror lr
 83c:	00000003 	andeq	r0, r0, r3
 840:	ac020500 	cfstr32ge	mvfx0, [r2], {-0}
 844:	03818018 	orreq	r8, r1, #24
 848:	74030139 	strvc	r0, [r3], #-313	; 0xfffffec7
 84c:	2e0c032e 	cdpcs	3, 0, cr0, cr12, cr14, {1}
 850:	4b2e7403 	blmi	b9d864 <STACK_SRV_SIZE+0xb5d864>
 854:	30854b2d 	addcc	r4, r5, sp, lsr #22
 858:	2b83842a 	blcs	fe0e1908 <__stack_srv_end+0x7c85fd00>
 85c:	50462f31 	subpl	r2, r6, r1, lsr pc
 860:	15036750 	strne	r6, [r3, #-1872]	; 0xfffff8b0
 864:	0101f402 	tsteq	r1, r2, lsl #8	; <UNPREDICTABLE>
 868:	00040213 	andeq	r0, r4, r3, lsl r2
 86c:	03730101 	cmneq	r3, #1073741824	; 0x40000000
 870:	00020000 	andeq	r0, r2, r0
 874:	0000006c 	andeq	r0, r0, ip, rrx
 878:	0efb0102 	cdpeq	1, 15, cr0, cr11, cr2, {0}
 87c:	0101000d 	tsteq	r1, sp
 880:	00000101 	andeq	r0, r0, r1, lsl #2
 884:	00000100 	andeq	r0, r0, r0, lsl #2
 888:	6f6f6201 	svcvs	0x006f6201
 88c:	6f620074 	svcvs	0x00620074
 890:	692f746f 	stmdbvs	pc!, {r0, r1, r2, r3, r5, r6, sl, ip, sp, lr}	; <UNPREDICTABLE>
 894:	756c636e 	strbvc	r6, [ip, #-878]!	; 0xfffffc92
 898:	61006564 	tstvs	r0, r4, ror #10
 89c:	32336d72 	eorscc	r6, r3, #7296	; 0x1c80
 8a0:	636e692f 	cmnvs	lr, #770048	; 0xbc000
 8a4:	6564756c 	strbvs	r7, [r4, #-1388]!	; 0xfffffa94
 8a8:	62696c00 	rsbvs	r6, r9, #0, 24
 8ac:	636e692f 	cmnvs	lr, #770048	; 0xbc000
 8b0:	6564756c 	strbvs	r7, [r4, #-1388]!	; 0xfffffa94
 8b4:	79730000 	ldmdbvc	r3!, {}^	; <UNPREDICTABLE>
 8b8:	61752d73 	cmnvs	r5, r3, ror sp
 8bc:	632e7472 			; <UNDEFINED> instruction: 0x632e7472
 8c0:	00000100 	andeq	r0, r0, r0, lsl #2
 8c4:	682e6f69 	stmdavs	lr!, {r0, r3, r5, r6, r8, r9, sl, fp, sp, lr}
 8c8:	00000200 	andeq	r0, r0, r0, lsl #4
 8cc:	65707974 	ldrbvs	r7, [r0, #-2420]!	; 0xfffff68c
 8d0:	00682e73 	rsbeq	r2, r8, r3, ror lr
 8d4:	73000003 	movwvc	r0, #3
 8d8:	65646474 	strbvs	r6, [r4, #-1140]!	; 0xfffffb8c
 8dc:	00682e66 	rsbeq	r2, r8, r6, ror #28
 8e0:	00000004 	andeq	r0, r0, r4
 8e4:	74020500 	strvc	r0, [r2], #-1280	; 0xfffffb00
 8e8:	03818005 	orreq	r8, r1, #5
 8ec:	02040125 	andeq	r0, r4, #1073741833	; 0x40000009
 8f0:	04017003 	streq	r7, [r1], #-3
 8f4:	2e100301 	cdpcs	3, 1, cr0, cr0, cr1, {0}
 8f8:	70030204 	andvc	r0, r3, r4, lsl #4
 8fc:	2e14032e 	cdpcs	3, 1, cr0, cr4, cr14, {1}
 900:	2f310104 	svccs	0x00310104
 904:	032a0204 			; <UNDEFINED> instruction: 0x032a0204
 908:	14032e6c 	strne	r2, [r3], #-3692	; 0xfffff194
 90c:	3601042e 	strcc	r0, [r1], -lr, lsr #8
 910:	0302042f 	movweq	r0, #9263	; 0x242f
 914:	6c032e77 	stcvs	14, cr2, [r3], {119}	; 0x77
 918:	2e14032e 	cdpcs	3, 1, cr0, cr4, cr14, {1}
 91c:	0f030104 	svceq	0x00030104
 920:	0302042e 	movweq	r0, #9262	; 0x242e
 924:	6c032e71 	stcvs	14, cr2, [r3], {113}	; 0x71
 928:	2e14032e 	cdpcs	3, 1, cr0, cr4, cr14, {1}
 92c:	15030104 	strne	r0, [r3, #-260]	; 0xfffffefc
 930:	0302042e 	movweq	r0, #9262	; 0x242e
 934:	6c032e6b 	stcvs	14, cr2, [r3], {107}	; 0x6b
 938:	03010482 	movweq	r0, #5250	; 0x1482
 93c:	02042e32 	andeq	r2, r4, #800	; 0x320
 940:	032e6203 			; <UNDEFINED> instruction: 0x032e6203
 944:	0104666c 	tsteq	r4, ip, ror #12
 948:	042e3703 	strteq	r3, [lr], #-1795	; 0xfffff8fd
 94c:	2e5d0302 	cdpcs	3, 5, cr0, cr13, cr2, {0}
 950:	042e6c03 	strteq	r6, [lr], #-3075	; 0xfffff3fd
 954:	2e3a0301 	cdpcs	3, 3, cr0, cr10, cr1, {0}
 958:	0302042f 	movweq	r0, #9263	; 0x242f
 95c:	01042e59 	tsteq	r4, r9, asr lr
 960:	692e2903 	stmdbvs	lr!, {r0, r1, r8, fp, sp}
 964:	40030204 	andmi	r0, r3, r4, lsl #4
 968:	04020001 	streq	r0, [r2], #-1
 96c:	042e0601 	strteq	r0, [lr], #-1537	; 0xfffff9ff
 970:	04020001 	streq	r0, [r2], #-1
 974:	c3030601 	movwgt	r0, #13825	; 0x3601
 978:	02042e00 	andeq	r2, r4, #0, 28
 97c:	044a5103 	strbeq	r5, [sl], #-259	; 0xfffffefd
 980:	2e310301 	cdpcs	3, 3, cr0, cr1, cr1, {0}
 984:	0204134d 	andeq	r1, r4, #872415233	; 0x34000001
 988:	667fb703 	ldrbtvs	fp, [pc], -r3, lsl #14
 98c:	c3030104 	movwgt	r0, #12548	; 0x3104
 990:	02044a00 	andeq	r4, r4, #0, 20
 994:	044a5103 	strbeq	r5, [sl], #-259	; 0xfffffefd
 998:	2e350301 	cdpcs	3, 3, cr0, cr5, cr1, {0}
 99c:	9e01bb03 	vmlals.f64	d11, d1, d3
 9a0:	fc030204 	stc2	2, cr0, [r3], {4}
 9a4:	01044a7d 	tsteq	r4, sp, ror sl
 9a8:	2e028403 	cdpcs	4, 0, cr8, cr2, cr3, {0}
 9ac:	7f85034d 	svcvc	0x0085034d
 9b0:	f403364a 	vst1.16	{d3-d5}, [r3], sl
 9b4:	4d4c2e00 	stclmi	14, cr2, [ip, #-0]
 9b8:	0302042b 	movweq	r0, #9259	; 0x242b
 9bc:	042e7df6 	strteq	r7, [lr], #-3574	; 0xfffff20a
 9c0:	00c30301 	sbceq	r0, r3, r1, lsl #6
 9c4:	0302042e 	movweq	r0, #9262	; 0x242e
 9c8:	01044a51 	tsteq	r4, r1, asr sl
 9cc:	6601f403 	strvs	pc, [r1], -r3, lsl #8
 9d0:	7fa70351 	svcvc	0x00a70351
 9d4:	00d50382 	sbcseq	r0, r5, r2, lsl #7
 9d8:	7fab032e 	svcvc	0x00ab032e
 9dc:	2e12032e 	cdpcs	3, 1, cr0, cr2, cr14, {1}
 9e0:	032e6e03 			; <UNDEFINED> instruction: 0x032e6e03
 9e4:	c3034a12 	movwgt	r4, #14866	; 0x3a12
 9e8:	ae032e00 	cdpge	14, 0, cr2, cr3, cr0, {0}
 9ec:	2c4e2e7f 	mcrrcs	14, 7, r2, lr, cr15
 9f0:	302c302c 	eorcc	r3, ip, ip, lsr #32
 9f4:	04332c30 	ldrteq	r2, [r3], #-3120	; 0xfffff3d0
 9f8:	7ec00302 	cdpvc	3, 12, cr0, cr0, cr2, {0}
 9fc:	01045808 	tsteq	r4, r8, lsl #16
 a00:	2e00c303 	cdpcs	3, 0, cr12, cr0, cr3, {0}
 a04:	51030204 	tstpl	r3, r4, lsl #4
 a08:	0301044a 	movweq	r0, #5194	; 0x144a
 a0c:	036601f7 	cmneq	r6, #-1073741763	; 0xc000003d
 a10:	03667fbd 	cmneq	r6, #756	; 0x2f4
 a14:	27036678 	smlsdxcs	r3, r8, r6, r6
 a18:	2e590382 	cdpcs	3, 5, cr0, cr9, cr2, {4}
 a1c:	03662d03 	cmneq	r6, #3, 26	; 0xc0
 a20:	f7032e0d 			; <UNDEFINED> instruction: 0xf7032e0d
 a24:	034c4a7e 	movteq	r4, #51838	; 0xca7e
 a28:	6403660a 	strvs	r6, [r3], #-1546	; 0xfffff9f6
 a2c:	4a28034a 	bmi	a0175c <STACK_SRV_SIZE+0x9c175c>
 a30:	4d306431 	cfldrsmi	mvf6, [r0, #-196]!	; 0xffffff3c
 a34:	03302f2b 	teqeq	r0, #43, 30	; 0xac
 a38:	2d4f2e11 	stclcs	14, cr2, [pc, #-68]	; 9fc <__spl_size-0xea8>
 a3c:	7fb6032f 	svcvc	0x00b6032f
 a40:	03020466 	movweq	r0, #9318	; 0x2466
 a44:	042e7fa5 	strteq	r7, [lr], #-4005	; 0xfffff05b
 a48:	00c30301 	sbceq	r0, r3, r1, lsl #6
 a4c:	4a17032e 	bmi	5c170c <STACK_SRV_SIZE+0x58170c>
 a50:	ba030204 	blt	c1268 <STACK_SRV_SIZE+0x81268>
 a54:	01042e7f 	tsteq	r4, pc, ror lr
 a58:	2e00c603 	cfmadd32cs	mvax0, mvfx12, mvfx0, mvfx3
 a5c:	2e00ce03 	cdpcs	14, 0, cr12, cr0, cr3, {0}
 a60:	4a7fab03 	bmi	1feb674 <STACK_SRV_SIZE+0x1fab674>
 a64:	ad030204 	sfmge	f0, 4, [r3, #-16]
 a68:	0104667f 	tsteq	r4, pc, ror r6
 a6c:	2e00c303 	cdpcs	3, 0, cr12, cr0, cr3, {0}
 a70:	044a1003 	strbeq	r1, [sl], #-3
 a74:	4a410302 	bmi	1041684 <STACK_SRV_SIZE+0x1001684>
 a78:	3f030104 	svccc	0x00030104
 a7c:	00ed032e 	rsceq	r0, sp, lr, lsr #6
 a80:	820c034a 	andhi	r0, ip, #671088641	; 0x28000001
 a84:	7f84034d 	svcvc	0x0084034d
 a88:	0302044a 	movweq	r0, #9290	; 0x244a
 a8c:	04667fad 	strbteq	r7, [r6], #-4013	; 0xfffff053
 a90:	00c30301 	sbceq	r0, r3, r1, lsl #6
 a94:	4a10032e 	bmi	401754 <STACK_SRV_SIZE+0x3c1754>
 a98:	41030204 	tstmi	r3, r4, lsl #4
 a9c:	0301044a 	movweq	r0, #5194	; 0x144a
 aa0:	ff032e3f 			; <UNDEFINED> instruction: 0xff032e3f
 aa4:	044b2e00 	strbeq	r2, [fp], #-3584	; 0xfffff200
 aa8:	7ead0302 	cdpvc	3, 10, cr0, cr13, cr2, {0}
 aac:	0301042e 	movweq	r0, #5166	; 0x142e
 ab0:	042e00c3 	strteq	r0, [lr], #-195	; 0xffffff3d
 ab4:	4a510302 	bmi	14416c4 <STACK_SRV_SIZE+0x14016c4>
 ab8:	f7030104 			; <UNDEFINED> instruction: 0xf7030104
 abc:	b5032e01 	strlt	r2, [r3, #-3585]	; 0xfffff1ff
 ac0:	3003827f 	andcc	r8, r3, pc, ror r2
 ac4:	2e500366 	cdpcs	3, 5, cr0, cr0, cr6, {3}
 ac8:	032e3a03 			; <UNDEFINED> instruction: 0x032e3a03
 acc:	03352e79 	teqeq	r5, #1936	; 0x790
 ad0:	032e7ef0 			; <UNDEFINED> instruction: 0x032e7ef0
 ad4:	31342e7a 	teqcc	r4, sl, ror lr
 ad8:	4a00f703 	bmi	3e6ec <STACK_ABT_SIZE+0x2e6ec>
 adc:	4a7fab03 	bmi	1feb6f0 <STACK_SRV_SIZE+0x1fab6f0>
 ae0:	2c302f2b 	ldccs	15, cr2, [r0], #-172	; 0xffffff54
 ae4:	2d4a6903 	vstrcs.16	s13, [sl, #-6]	; <UNPREDICTABLE>
 ae8:	032c2d32 			; <UNDEFINED> instruction: 0x032c2d32
 aec:	037e2e6f 	cmneq	lr, #1776	; 0x6f0
 af0:	2f2b2e2e 	svccs	0x002b2e2e
 af4:	2b302c30 	blcs	c0bbbc <STACK_SRV_SIZE+0xbcbbbc>
 af8:	0b03302f 	bleq	ccbbc <STACK_SRV_SIZE+0x8cbbc>
 afc:	2d4b4c2e 	stclcs	12, cr4, [fp, #-184]	; 0xffffff48
 b00:	03322a32 	teqeq	r2, #204800	; 0x32000
 b04:	04667fbb 	strbteq	r7, [r6], #-4027	; 0xfffff045
 b08:	7fa50302 	svcvc	0x00a50302
 b0c:	0301042e 	movweq	r0, #5166	; 0x142e
 b10:	032e00c3 			; <UNDEFINED> instruction: 0x032e00c3
 b14:	02044a17 	andeq	r4, r4, #94208	; 0x17000
 b18:	2e7fba03 	vaddcs.f32	s23, s30, s6
 b1c:	c6030104 	strgt	r0, [r3], -r4, lsl #2
 b20:	fe032e00 	cdp2	14, 0, cr2, cr3, cr0, {0}
 b24:	f1034a00 			; <UNDEFINED> instruction: 0xf1034a00
 b28:	0204667e 	andeq	r6, r4, #132120576	; 0x7e00000
 b2c:	827fb703 	rsbshi	fp, pc, #786432	; 0xc0000
 b30:	c3030104 	movwgt	r0, #12548	; 0x3104
 b34:	02042e00 	andeq	r2, r4, #0, 28
 b38:	044a5103 	strbeq	r5, [sl], #-259	; 0xfffffefd
 b3c:	2e350301 	cdpcs	3, 3, cr0, cr5, cr1, {0}
 b40:	66019203 	strvs	r9, [r1], -r3, lsl #4
 b44:	7ef703f3 	mrcvc	3, 7, r0, cr7, cr3, {7}
 b48:	01890382 	orreq	r0, r9, r2, lsl #7
 b4c:	7ef7034a 	cdpvc	3, 15, cr0, cr7, cr10, {2}
 b50:	0302042e 	movweq	r0, #9262	; 0x242e
 b54:	04667fad 	strbteq	r7, [r6], #-4013	; 0xfffff053
 b58:	00c30301 	sbceq	r0, r3, r1, lsl #6
 b5c:	4a10032e 	bmi	40181c <STACK_SRV_SIZE+0x3c181c>
 b60:	41030204 	tstmi	r3, r4, lsl #4
 b64:	0301044a 	movweq	r0, #5194	; 0x144a
 b68:	8b032e3f 	blhi	cc46c <STACK_SRV_SIZE+0x8c46c>
 b6c:	6f032e01 	svcvs	0x00032e01
 b70:	03020466 	movweq	r0, #9318	; 0x2466
 b74:	042e7eb3 	strteq	r7, [lr], #-3763	; 0xfffff14d
 b78:	00c30301 	sbceq	r0, r3, r1, lsl #6
 b7c:	018c032e 	orreq	r0, ip, lr, lsr #6
 b80:	0302044a 	movweq	r0, #9290	; 0x244a
 b84:	042e7ec5 	strteq	r7, [lr], #-3781	; 0xfffff13b
 b88:	01bb0301 			; <UNDEFINED> instruction: 0x01bb0301
 b8c:	4a3c032e 	bmi	f0184c <STACK_SRV_SIZE+0xec184c>
 b90:	03665003 	cmneq	r6, #3
 b94:	04f27eee 	ldrbteq	r7, [r2], #3822	; 0xeee
 b98:	7fb70302 	svcvc	0x00b70302
 b9c:	03010466 	movweq	r0, #5222	; 0x1466
 ba0:	042e00c3 	strteq	r0, [lr], #-195	; 0xffffff3d
 ba4:	4a510302 	bmi	14417b4 <STACK_SRV_SIZE+0x14017b4>
 ba8:	35030104 	strcc	r0, [r3, #-260]	; 0xfffffefc
 bac:	820a032e 	andhi	r0, sl, #-1207959552	; 0xb8000000
 bb0:	ad030204 	sfmge	f0, 4, [r3, #-16]
 bb4:	0104667f 	tsteq	r4, pc, ror r6
 bb8:	2e00c303 	cdpcs	3, 0, cr12, cr0, cr3, {0}
 bbc:	044a1003 	strbeq	r1, [sl], #-3
 bc0:	4a410302 	bmi	10417d0 <STACK_SRV_SIZE+0x10017d0>
 bc4:	3f030104 	svccc	0x00030104
 bc8:	4a0e032e 	bmi	381888 <STACK_SRV_SIZE+0x341888>
 bcc:	4d2e2b03 	fstmdbxmi	lr!, {d2}	;@ Deprecated
 bd0:	3029342b 	eorcc	r3, r9, fp, lsr #8
 bd4:	0d803031 	stceq	0, cr3, [r0, #196]	; 0xc4
 bd8:	4a00cf03 	bmi	347ec <STACK_ABT_SIZE+0x247ec>
 bdc:	827ef703 	rsbshi	pc, lr, #786432	; 0xc0000
 be0:	01001602 	tsteq	r0, r2, lsl #12
 be4:	00026101 	andeq	r6, r2, r1, lsl #2
 be8:	56000200 	strpl	r0, [r0], -r0, lsl #4
 bec:	02000000 	andeq	r0, r0, #0
 bf0:	0d0efb01 	vstreq	d15, [lr, #-4]
 bf4:	01010100 	mrseq	r0, (UNDEF: 17)
 bf8:	00000001 	andeq	r0, r0, r1
 bfc:	01000001 	tsteq	r0, r1
 c00:	746f6f62 	strbtvc	r6, [pc], #-3938	; c08 <__spl_size-0xc9c>
 c04:	6f6f6200 	svcvs	0x006f6200
 c08:	6e692f74 	mcrvs	15, 3, r2, cr9, cr4, {3}
 c0c:	64756c63 	ldrbtvs	r6, [r5], #-3171	; 0xfffff39d
 c10:	72610065 	rsbvc	r0, r1, #101	; 0x65
 c14:	2f32336d 	svccs	0x0032336d
 c18:	6c636e69 	stclvs	14, cr6, [r3], #-420	; 0xfffffe5c
 c1c:	00656475 	rsbeq	r6, r5, r5, ror r4
 c20:	73797300 	cmnvc	r9, #0, 6
 c24:	6970732d 	ldmdbvs	r0!, {r0, r2, r3, r5, r8, r9, ip, sp, lr}^
 c28:	2e726f6e 	cdpcs	15, 7, cr6, cr2, cr14, {3}
 c2c:	00010063 	andeq	r0, r1, r3, rrx
 c30:	2e6f6900 	vmulcs.f16	s13, s30, s0	; <UNPREDICTABLE>
 c34:	00020068 	andeq	r0, r2, r8, rrx
 c38:	70797400 	rsbsvc	r7, r9, r0, lsl #8
 c3c:	682e7365 	stmdavs	lr!, {r0, r2, r5, r6, r8, r9, ip, sp, lr}
 c40:	00000300 	andeq	r0, r0, r0, lsl #6
 c44:	02050000 	andeq	r0, r5, #0
 c48:	818015e0 	orrhi	r1, r0, r0, ror #11
 c4c:	04013203 	streq	r3, [r1], #-515	; 0xfffffdfd
 c50:	01630302 	cmneq	r3, r2, lsl #6
 c54:	032e1403 			; <UNDEFINED> instruction: 0x032e1403
 c58:	14032e6c 	strne	r2, [r3], #-3692	; 0xfffff194
 c5c:	0301042e 	movweq	r0, #5166	; 0x142e
 c60:	042f2e10 	strteq	r2, [pc], #-3600	; c68 <__spl_size-0xc3c>
 c64:	2e6f0302 	cdpcs	3, 6, cr0, cr15, cr2, {0}
 c68:	042e6c03 	strteq	r6, [lr], #-3075	; 0xfffff3fd
 c6c:	4a290301 	bmi	a41878 <STACK_SRV_SIZE+0xa01878>
 c70:	0302042f 	movweq	r0, #9263	; 0x242f
 c74:	6c032e6a 	stcvs	14, cr2, [r3], {106}	; 0x6a
 c78:	0301042e 	movweq	r0, #5166	; 0x142e
 c7c:	042f2e2e 	strteq	r2, [pc], #-3630	; c84 <__spl_size-0xc20>
 c80:	2e650302 	cdpcs	3, 6, cr0, cr5, cr2, {0}
 c84:	042e6c03 	strteq	r6, [lr], #-3075	; 0xfffff3fd
 c88:	2e330301 	cdpcs	3, 3, cr0, cr3, cr1, {0}
 c8c:	0302042f 	movweq	r0, #9263	; 0x242f
 c90:	6c032e60 	stcvs	14, cr2, [r3], {96}	; 0x60
 c94:	0301042e 	movweq	r0, #5166	; 0x142e
 c98:	02042e3a 	andeq	r2, r4, #928	; 0x3a0
 c9c:	032e5a03 			; <UNDEFINED> instruction: 0x032e5a03
 ca0:	01042e6c 	tsteq	r4, ip, ror #28
 ca4:	2e00c003 	cdpcs	0, 0, cr12, cr0, cr3, {0}
 ca8:	54030204 	strpl	r0, [r3], #-516	; 0xfffffdfc
 cac:	4a6c032e 	bmi	1b0196c <STACK_SRV_SIZE+0x1ac196c>
 cb0:	ca030104 	bgt	c10c8 <STACK_SRV_SIZE+0x810c8>
 cb4:	02042e00 	andeq	r2, r4, #0, 28
 cb8:	004a4a03 	subeq	r4, sl, r3, lsl #20
 cbc:	03010402 	movweq	r0, #5122	; 0x1402
 cc0:	01042e6c 	tsteq	r4, ip, ror #28
 cc4:	01040200 	mrseq	r0, R12_usr
 cc8:	2e00cc03 	cdpcs	12, 0, cr12, cr0, cr3, {0}
 ccc:	b4030204 	strlt	r0, [r3], #-516	; 0xfffffdfc
 cd0:	01044a7f 	tsteq	r4, pc, ror sl
 cd4:	2e00cf03 	cdpcs	15, 0, cr12, cr0, cr3, {0}
 cd8:	0302042f 	movweq	r0, #9263	; 0x242f
 cdc:	6c032e44 	stcvs	14, cr2, [r3], {68}	; 0x44
 ce0:	0301042e 	movweq	r0, #5166	; 0x142e
 ce4:	042e00d4 	strteq	r0, [lr], #-212	; 0xffffff2c
 ce8:	4a400302 	bmi	10018f8 <STACK_SRV_SIZE+0xfc18f8>
 cec:	c2030104 	andgt	r0, r3, #4, 2
 cf0:	04852e00 	streq	r2, [r5], #3584	; 0xe00
 cf4:	7fa70302 	svcvc	0x00a70302
 cf8:	03010401 	movweq	r0, #5121	; 0x1401
 cfc:	044a00df 	strbeq	r0, [sl], #-223	; 0xffffff21
 d00:	7fb50302 	svcvc	0x00b50302
 d04:	0301042e 	movweq	r0, #5166	; 0x142e
 d08:	032e00cd 			; <UNDEFINED> instruction: 0x032e00cd
 d0c:	044a00d4 	strbeq	r0, [sl], #-212	; 0xffffff2c
 d10:	7ecb0302 	cdpvc	3, 12, cr0, cr11, cr2, {0}
 d14:	03010401 	movweq	r0, #5121	; 0x1401
 d18:	502e01b5 	strhtpl	r0, [lr], -r5
 d1c:	2f2c2f2c 	svccs	0x002c2f2c
 d20:	0204302d 	andeq	r3, r4, #45	; 0x2d
 d24:	2e7ec603 	cdpcs	6, 7, cr12, cr14, cr3, {0}
 d28:	042e1403 	strteq	r1, [lr], #-1027	; 0xfffffbfd
 d2c:	00d50301 	sbcseq	r0, r5, r1, lsl #6
 d30:	0302042e 	movweq	r0, #9262	; 0x242e
 d34:	032e7fab 			; <UNDEFINED> instruction: 0x032e7fab
 d38:	0a034a76 	beq	d3718 <STACK_SRV_SIZE+0x93718>
 d3c:	0301042e 	movweq	r0, #5166	; 0x142e
 d40:	044a00ef 	strbeq	r0, [sl], #-239	; 0xffffff11
 d44:	7f870302 	svcvc	0x00870302
 d48:	0301042e 	movweq	r0, #5166	; 0x142e
 d4c:	042e00f9 	strteq	r0, [lr], #-249	; 0xffffff07
 d50:	7f870302 	svcvc	0x00870302
 d54:	0301042e 	movweq	r0, #5166	; 0x142e
 d58:	042e00f9 	strteq	r0, [lr], #-249	; 0xffffff07
 d5c:	7efd0302 	cdpvc	3, 15, cr0, cr13, cr2, {0}
 d60:	2e0a032e 	cdpcs	3, 0, cr0, cr10, cr14, {1}
 d64:	f9030104 			; <UNDEFINED> instruction: 0xf9030104
 d68:	02042e00 	andeq	r2, r4, #0, 28
 d6c:	2e7f8703 	cdpcs	7, 7, cr8, cr15, cr3, {0}
 d70:	042e7603 	strteq	r7, [lr], #-1539	; 0xfffff9fd
 d74:	019a0301 	orrseq	r0, sl, r1, lsl #6
 d78:	0302042e 	movweq	r0, #9262	; 0x242e
 d7c:	032e7efa 			; <UNDEFINED> instruction: 0x032e7efa
 d80:	01042e6c 	tsteq	r4, ip, ror #28
 d84:	2e019c03 	cdpcs	12, 0, cr9, cr1, cr3, {0}
 d88:	da030204 	ble	c15a0 <STACK_SRV_SIZE+0x815a0>
 d8c:	0104667e 	tsteq	r4, lr, ror r6
 d90:	2e019f03 	cdpcs	15, 0, cr9, cr1, cr3, {0}
 d94:	e1030204 	tst	r3, r4, lsl #4
 d98:	01042e7e 	tsteq	r4, lr, ror lr
 d9c:	82019f03 	andhi	r9, r1, #3, 30
 da0:	ff030204 			; <UNDEFINED> instruction: 0xff030204
 da4:	76032e7e 			; <UNDEFINED> instruction: 0x76032e7e
 da8:	0301042e 	movweq	r0, #5166	; 0x142e
 dac:	034a018d 	movteq	r0, #41357	; 0xa18d
 db0:	02046670 	andeq	r6, r4, #112, 12	; 0x7000000
 db4:	2e7f8303 	cdpcs	3, 7, cr8, cr15, cr3, {0}
 db8:	042e0a03 	strteq	r0, [lr], #-2563	; 0xfffff5fd
 dbc:	00f30301 	rscseq	r0, r3, r1, lsl #6
 dc0:	03020466 	movweq	r0, #9318	; 0x2466
 dc4:	044a7f83 	strbeq	r7, [sl], #-3971	; 0xfffff07d
 dc8:	00fd0301 	rscseq	r0, sp, r1, lsl #6
 dcc:	0302042e 	movweq	r0, #9262	; 0x242e
 dd0:	042e7ef9 	strteq	r7, [lr], #-3833	; 0xfffff107
 dd4:	019a0301 	orrseq	r0, sl, r1, lsl #6
 dd8:	0302042e 	movweq	r0, #9262	; 0x242e
 ddc:	032e7efa 			; <UNDEFINED> instruction: 0x032e7efa
 de0:	01042e6c 	tsteq	r4, ip, ror #28
 de4:	2e019c03 	cdpcs	12, 0, cr9, cr1, cr3, {0}
 de8:	03020467 	movweq	r0, #9319	; 0x2467
 dec:	042e7ed9 	strteq	r7, [lr], #-3801	; 0xfffff127
 df0:	01aa0301 			; <UNDEFINED> instruction: 0x01aa0301
 df4:	0302042e 	movweq	r0, #9262	; 0x242e
 df8:	044a7ed6 	strbeq	r7, [sl], #-3798	; 0xfffff12a
 dfc:	01aa0301 			; <UNDEFINED> instruction: 0x01aa0301
 e00:	322a2f2e 	eorcc	r2, sl, #46, 30	; 0xb8
 e04:	2e090346 	cdpcs	3, 0, cr0, cr9, cr6, {2}
 e08:	042e6f03 	strteq	r6, [lr], #-3843	; 0xfffff0fd
 e0c:	7eeb0302 	cdpvc	3, 14, cr0, cr11, cr2, {0}
 e10:	0301044a 	movweq	r0, #5194	; 0x144a
 e14:	2f4a00f4 	svccs	0x004a00f4
 e18:	9f030204 	svcls	0x00030204
 e1c:	01042e7f 	tsteq	r4, pc, ror lr
 e20:	2e01ab03 	vmlacs.f64	d10, d1, d3
 e24:	044a5e03 	strbeq	r5, [sl], #-3587	; 0xfffff1fd
 e28:	7ed90302 	cdpvc	3, 13, cr0, cr9, cr2, {0}
 e2c:	03010482 	movweq	r0, #5250	; 0x1482
 e30:	042e01a7 	strteq	r0, [lr], #-423	; 0xfffffe59
 e34:	7ed90302 	cdpvc	3, 13, cr0, cr9, cr2, {0}
 e38:	03010466 	movweq	r0, #5222	; 0x1466
 e3c:	032e01a7 			; <UNDEFINED> instruction: 0x032e01a7
 e40:	6f034a09 	svcvs	0x00034a09
 e44:	000c022e 	andeq	r0, ip, lr, lsr #4
 e48:	00660101 	rsbeq	r0, r6, r1, lsl #2
 e4c:	00020000 	andeq	r0, r2, r0
 e50:	0000003e 	andeq	r0, r0, lr, lsr r0
 e54:	0efb0102 	cdpeq	1, 15, cr0, cr11, cr2, {0}
 e58:	0101000d 	tsteq	r1, sp
 e5c:	00000101 	andeq	r0, r0, r1, lsl #2
 e60:	00000100 	andeq	r0, r0, r0, lsl #2
 e64:	6f6f6201 	svcvs	0x006f6201
 e68:	696c0074 	stmdbvs	ip!, {r2, r4, r5, r6}^
 e6c:	6e692f62 	cdpvs	15, 6, cr2, cr9, cr2, {3}
 e70:	64756c63 	ldrbtvs	r6, [r5], #-3171	; 0xfffff39d
 e74:	62000065 	andvs	r0, r0, #101	; 0x65
 e78:	5f746f6f 	svcpl	0x00746f6f
 e7c:	6e69616d 	powvsez	f6, f1, #5.0
 e80:	0100632e 	tsteq	r0, lr, lsr #6
 e84:	74730000 	ldrbtvc	r0, [r3], #-0
 e88:	2e6f6964 	vnmulcs.f16	s13, s30, s9	; <UNPREDICTABLE>
 e8c:	00020068 	andeq	r0, r2, r8, rrx
 e90:	05000000 	streq	r0, [r0, #-0]
 e94:	801b2402 	andshi	r2, fp, r2, lsl #8
 e98:	010b0381 	smlabbeq	fp, r1, r3, r0
 e9c:	4b4b4b2f 	blmi	12d3b60 <STACK_SRV_SIZE+0x1293b60>
 ea0:	034b4b4b 	movteq	r4, #47947	; 0xbb4b
 ea4:	0a034a26 	beq	d3744 <STACK_SRV_SIZE+0x93744>
 ea8:	0335349e 	teqeq	r5, #-1644167168	; 0x9e000000
 eac:	02132e0b 	andseq	r2, r3, #11, 28	; 0xb0
 eb0:	01010002 	tsteq	r1, r2
 eb4:	00000085 	andeq	r0, r0, r5, lsl #1
 eb8:	005b0002 	subseq	r0, fp, r2
 ebc:	01020000 	mrseq	r0, (UNDEF: 2)
 ec0:	000d0efb 	strdeq	r0, [sp], -fp
 ec4:	01010101 	tsteq	r1, r1, lsl #2
 ec8:	01000000 	mrseq	r0, (UNDEF: 0)
 ecc:	62010000 	andvs	r0, r1, #0
 ed0:	00746f6f 	rsbseq	r6, r4, pc, ror #30
 ed4:	336d7261 	cmncc	sp, #268435462	; 0x10000006
 ed8:	6e692f32 	mcrvs	15, 3, r2, cr9, cr2, {1}
 edc:	64756c63 	ldrbtvs	r6, [r5], #-3171	; 0xfffff39d
 ee0:	696c0065 	stmdbvs	ip!, {r0, r2, r5, r6}^
 ee4:	6e692f62 	cdpvs	15, 6, cr2, cr9, cr2, {3}
 ee8:	64756c63 	ldrbtvs	r6, [r5], #-3171	; 0xfffff39d
 eec:	73000065 	movwvc	r0, #101	; 0x65
 ef0:	632d7379 			; <UNDEFINED> instruction: 0x632d7379
 ef4:	7379706f 	cmnvc	r9, #111	; 0x6f
 ef8:	2e666c65 	cdpcs	12, 6, cr6, cr6, cr5, {3}
 efc:	00010063 	andeq	r0, r1, r3, rrx
 f00:	70797400 	rsbsvc	r7, r9, r0, lsl #8
 f04:	682e7365 	stmdavs	lr!, {r0, r2, r5, r6, r8, r9, ip, sp, lr}
 f08:	00000200 	andeq	r0, r0, r0, lsl #4
 f0c:	69647473 	stmdbvs	r4!, {r0, r1, r4, r5, r6, sl, ip, sp, lr}^
 f10:	682e746e 	stmdavs	lr!, {r1, r2, r3, r5, r6, sl, ip, sp, lr}
 f14:	00000300 	andeq	r0, r0, r0, lsl #6
 f18:	02050000 	andeq	r0, r5, #0
 f1c:	81801848 	orrhi	r1, r0, r8, asr #16
 f20:	0100ce03 	tsteq	r0, r3, lsl #28
 f24:	032e0f03 			; <UNDEFINED> instruction: 0x032e0f03
 f28:	03522e78 	cmpeq	r2, #120, 28	; 0x780
 f2c:	4b4b2e79 	blmi	12cc918 <STACK_SRV_SIZE+0x128c918>
 f30:	1e032a4f 	vmlsne.f32	s4, s6, s30
 f34:	2c852f4a 	stccs	15, cr2, [r5], {74}	; 0x4a
 f38:	01000602 	tsteq	r0, r2, lsl #12
 f3c:	00005b01 	andeq	r5, r0, r1, lsl #22
 f40:	3c000200 	sfmcc	f0, 4, [r0], {-0}
 f44:	02000000 	andeq	r0, r0, #0
 f48:	0d0efb01 	vstreq	d15, [lr, #-4]
 f4c:	01010100 	mrseq	r0, (UNDEF: 17)
 f50:	00000001 	andeq	r0, r0, r1
 f54:	01000001 	tsteq	r0, r1
 f58:	0062696c 	rsbeq	r6, r2, ip, ror #18
 f5c:	336d7261 	cmncc	sp, #268435462	; 0x10000006
 f60:	6e692f32 	mcrvs	15, 3, r2, cr9, cr2, {1}
 f64:	64756c63 	ldrbtvs	r6, [r5], #-3171	; 0xfffff39d
 f68:	73000065 	movwvc	r0, #101	; 0x65
 f6c:	656c7274 	strbvs	r7, [ip, #-628]!	; 0xfffffd8c
 f70:	00632e6e 	rsbeq	r2, r3, lr, ror #28
 f74:	74000001 	strvc	r0, [r0], #-1
 f78:	73657079 	cmnvc	r5, #121	; 0x79
 f7c:	0200682e 	andeq	r6, r0, #3014656	; 0x2e0000
 f80:	00000000 	andeq	r0, r0, r0
 f84:	05480205 	strbeq	r0, [r8, #-517]	; 0xfffffdfb
 f88:	0c038180 	stfeqd	f0, [r3], {128}	; 0x80
 f8c:	02001501 	andeq	r1, r0, #4194304	; 0x400000
 f90:	82060304 	andhi	r0, r6, #4, 6	; 0x10000000
 f94:	0230069e 	eorseq	r0, r0, #165675008	; 0x9e00000
 f98:	01010002 	tsteq	r1, r2

Disassembly of section .debug_aranges:

00000000 <.debug_aranges>:
   0:	0000001c 	andeq	r0, r0, ip, lsl r0
   4:	00000002 	andeq	r0, r0, r2
   8:	00040000 	andeq	r0, r4, r0
   c:	00000000 	andeq	r0, r0, r0
  10:	81800000 	orrhi	r0, r0, r0
  14:	0000049c 	muleq	r0, ip, r4
	...
  20:	0000001c 	andeq	r0, r0, ip, lsl r0
  24:	00260002 	eoreq	r0, r6, r2
  28:	00040000 	andeq	r0, r4, r0
  2c:	00000000 	andeq	r0, r0, r0
  30:	818004a0 	orrhi	r0, r0, r0, lsr #9
  34:	000000a8 	andeq	r0, r0, r8, lsr #1
	...
  40:	0000001c 	andeq	r0, r0, ip, lsl r0
  44:	004c0002 	subeq	r0, ip, r2
  48:	00040000 	andeq	r0, r4, r0
  4c:	00000000 	andeq	r0, r0, r0
  50:	81800b78 	orrhi	r0, r0, r8, ror fp
  54:	000000fc 	strdeq	r0, [r0], -ip
	...
  60:	0000001c 	andeq	r0, r0, ip, lsl r0
  64:	04eb0002 	strbteq	r0, [fp], #2
  68:	00040000 	andeq	r0, r4, r0
  6c:	00000000 	andeq	r0, r0, r0
  70:	818018a4 	orrhi	r1, r0, r4, lsr #17
  74:	00000008 	andeq	r0, r0, r8
	...
  80:	0000001c 	andeq	r0, r0, ip, lsl r0
  84:	05be0002 	ldreq	r0, [lr, #2]!
  88:	00040000 	andeq	r0, r4, r0
  8c:	00000000 	andeq	r0, r0, r0
  90:	81800c74 	orrhi	r0, r0, r4, ror ip
  94:	0000096c 	andeq	r0, r0, ip, ror #18
	...
  a0:	0000001c 	andeq	r0, r0, ip, lsl r0
  a4:	17c40002 	strbne	r0, [r4, r2]
  a8:	00040000 	andeq	r0, r4, r0
  ac:	00000000 	andeq	r0, r0, r0
  b0:	818018ac 	orrhi	r1, r0, ip, lsr #17
  b4:	00000278 	andeq	r0, r0, r8, ror r2
	...
  c0:	0000001c 	andeq	r0, r0, ip, lsl r0
  c4:	1a8a0002 	bne	fe2800d4 <__stack_srv_end+0x7c9fe4cc>
  c8:	00040000 	andeq	r0, r4, r0
  cc:	00000000 	andeq	r0, r0, r0
  d0:	81800574 	orrhi	r0, r0, r4, ror r5
  d4:	00000604 	andeq	r0, r0, r4, lsl #12
	...
  e0:	0000001c 	andeq	r0, r0, ip, lsl r0
  e4:	27c20002 	strbcs	r0, [r2, r2]
  e8:	00040000 	andeq	r0, r4, r0
  ec:	00000000 	andeq	r0, r0, r0
  f0:	818015e0 	orrhi	r1, r0, r0, ror #11
  f4:	00000268 	andeq	r0, r0, r8, ror #4
	...
 100:	0000001c 	andeq	r0, r0, ip, lsl r0
 104:	32500002 	subscc	r0, r0, #2
 108:	00040000 	andeq	r0, r4, r0
 10c:	00000000 	andeq	r0, r0, r0
 110:	81801b24 	orrhi	r1, r0, r4, lsr #22
 114:	00000060 	andeq	r0, r0, r0, rrx
	...
 120:	0000001c 	andeq	r0, r0, ip, lsl r0
 124:	349a0002 	ldrcc	r0, [sl], #2
 128:	00040000 	andeq	r0, r4, r0
 12c:	00000000 	andeq	r0, r0, r0
 130:	81801848 	orrhi	r1, r0, r8, asr #16
 134:	0000005c 	andeq	r0, r0, ip, asr r0
	...
 140:	0000001c 	andeq	r0, r0, ip, lsl r0
 144:	37760002 	ldrbcc	r0, [r6, -r2]!
 148:	00040000 	andeq	r0, r4, r0
 14c:	00000000 	andeq	r0, r0, r0
 150:	81800548 	orrhi	r0, r0, r8, asr #10
 154:	0000002c 	andeq	r0, r0, ip, lsr #32
	...

Disassembly of section .debug_str:

00000000 <.debug_str>:
   0:	746f6f62 	strbtvc	r6, [pc], #-3938	; 8 <__spl_size-0x189c>
   4:	6174732f 	cmnvs	r4, pc, lsr #6
   8:	532e7472 			; <UNDEFINED> instruction: 0x532e7472
   c:	6f682f00 	svcvs	0x00682f00
  10:	742f656d 	strtvc	r6, [pc], #-1389	; 18 <__spl_size-0x188c>
  14:	706e6968 	rsbvc	r6, lr, r8, ror #18
  18:	69622f76 	stmdbvs	r2!, {r1, r2, r4, r5, r6, r8, r9, sl, fp, sp}^
  1c:	63756274 	cmnvs	r5, #116, 4	; 0x40000007
  20:	2f74696b 	svccs	0x0074696b
  24:	31633166 	cmncc	r3, r6, ror #2
  28:	5f733030 	svcpl	0x00733030
  2c:	746f6f62 	strbtvc	r6, [pc], #-3938	; 34 <__spl_size-0x1870>
  30:	64616f6c 	strbtvs	r6, [r1], #-3948	; 0xfffff094
  34:	785f7265 	ldmdavc	pc, {r0, r2, r5, r6, r9, ip, sp, lr}^	; <UNPREDICTABLE>
  38:	746f6f62 	strbtvc	r6, [pc], #-3938	; 40 <__spl_size-0x1864>
  3c:	554e4700 	strbpl	r4, [lr, #-1792]	; 0xfffff900
  40:	20534120 	subscs	r4, r3, r0, lsr #2
  44:	39322e32 	ldmdbcc	r2!, {r1, r4, r5, r9, sl, fp, sp}
  48:	0031352e 	eorseq	r3, r1, lr, lsr #10
  4c:	2f62696c 	svccs	0x0062696c
  50:	736d656d 	cmnvc	sp, #457179136	; 0x1b400000
  54:	532e7465 			; <UNDEFINED> instruction: 0x532e7465
  58:	6f687300 	svcvs	0x00687300
  5c:	69207472 	stmdbvs	r0!, {r1, r4, r5, r6, sl, ip, sp, lr}
  60:	6c00746e 	cfstrsvs	mvf7, [r0], {110}	; 0x6e
  64:	73706f6f 	cmnvc	r0, #444	; 0x1bc
  68:	72697600 	rsbvc	r7, r9, #0, 12
  6c:	6c617574 	cfstr64vs	mvdx7, [r1], #-464	; 0xfffffe30
  70:	6464615f 	strbtvs	r6, [r4], #-351	; 0xfffffea1
  74:	00745f72 	rsbseq	r5, r4, r2, ror pc
  78:	74696177 	strbtvc	r6, [r9], #-375	; 0xfffffe89
  7c:	6c6c705f 	stclvs	0, cr7, [ip], #-380	; 0xfffffe84
  80:	6174735f 	cmnvs	r4, pc, asr r3
  84:	00656c62 	rsbeq	r6, r5, r2, ror #24
  88:	74697277 	strbtvc	r7, [r9], #-631	; 0xfffffd89
  8c:	00323365 	eorseq	r3, r2, r5, ror #6
  90:	616f6c66 	cmnvs	pc, r6, ror #24
  94:	6f6c0074 	svcvs	0x006c0074
  98:	6c20676e 	stcvs	7, cr6, [r0], #-440	; 0xfffffe48
  9c:	20676e6f 	rsbcs	r6, r7, pc, ror #28
  a0:	00746e69 	rsbseq	r6, r4, r9, ror #28
  a4:	72646461 	rsbvc	r6, r4, #1627389952	; 0x61000000
  a8:	61767200 	cmnvs	r6, r0, lsl #4
  ac:	7973006c 	ldmdbvc	r3!, {r2, r3, r5, r6}^
  b0:	6c635f73 	stclvs	15, cr5, [r3], #-460	; 0xfffffe34
  b4:	5f6b636f 	svcpl	0x006b636f
  b8:	74696e69 	strbtvc	r6, [r9], #-3689	; 0xfffff197
  bc:	736e7500 	cmnvc	lr, #0, 10
  c0:	656e6769 	strbvs	r6, [lr, #-1897]!	; 0xfffff897
  c4:	68632064 	stmdavs	r3!, {r2, r5, r6, sp}^
  c8:	47007261 	strmi	r7, [r0, -r1, ror #4]
  cc:	4320554e 			; <UNDEFINED> instruction: 0x4320554e
  d0:	37203131 			; <UNDEFINED> instruction: 0x37203131
  d4:	312e322e 			; <UNDEFINED> instruction: 0x312e322e
  d8:	31303220 	teqcc	r0, r0, lsr #4
  dc:	30393037 	eorscc	r3, r9, r7, lsr r0
  e0:	72282034 	eorvc	r2, r8, #52	; 0x34
  e4:	61656c65 	cmnvs	r5, r5, ror #24
  e8:	20296573 	eorcs	r6, r9, r3, ror r5
  ec:	4d52415b 	ldfmie	f4, [r2, #-364]	; 0xfffffe94
  f0:	626d652f 	rsbvs	r6, sp, #197132288	; 0xbc00000
  f4:	65646465 	strbvs	r6, [r4, #-1125]!	; 0xfffffb9b
  f8:	2d372d64 	ldccs	13, cr2, [r7, #-400]!	; 0xfffffe70
  fc:	6e617262 	cdpvs	2, 6, cr7, cr1, cr2, {3}
 100:	72206863 	eorvc	r6, r0, #6488064	; 0x630000
 104:	73697665 	cmnvc	r9, #105906176	; 0x6500000
 108:	206e6f69 	rsbcs	r6, lr, r9, ror #30
 10c:	32353532 	eorscc	r3, r5, #209715200	; 0xc800000
 110:	205d3430 	subscs	r3, sp, r0, lsr r4
 114:	72616d2d 	rsbvc	r6, r1, #2880	; 0xb40
 118:	613d6863 	teqvs	sp, r3, ror #16
 11c:	35766d72 	ldrbcc	r6, [r6, #-3442]!	; 0xfffff28e
 120:	2d206574 	cfstr32cs	mvfx6, [r0, #-464]!	; 0xfffffe30
 124:	6e75746d 	cdpvs	4, 7, cr7, cr5, cr13, {3}
 128:	72613d65 	rsbvc	r3, r1, #6464	; 0x1940
 12c:	3632396d 	ldrtcc	r3, [r2], -sp, ror #18
 130:	732d6a65 			; <UNDEFINED> instruction: 0x732d6a65
 134:	666d2d20 	strbtvs	r2, [sp], -r0, lsr #26
 138:	74616f6c 	strbtvc	r6, [r1], #-3948	; 0xfffff094
 13c:	6962612d 	stmdbvs	r2!, {r0, r2, r3, r5, r8, sp, lr}^
 140:	666f733d 			; <UNDEFINED> instruction: 0x666f733d
 144:	6d2d2074 	stcvs	0, cr2, [sp, #-464]!	; 0xfffffe30
 148:	206d7261 	rsbcs	r7, sp, r1, ror #4
 14c:	6f6e6d2d 	svcvs	0x006e6d2d
 150:	7568742d 	strbvc	r7, [r8, #-1069]!	; 0xfffffbd3
 154:	692d626d 	pushvs	{r0, r2, r3, r5, r6, r9, sp, lr}
 158:	7265746e 	rsbvc	r7, r5, #1845493760	; 0x6e000000
 15c:	6b726f77 	blvs	1c9bf40 <STACK_SRV_SIZE+0x1c5bf40>
 160:	20672d20 	rsbcs	r2, r7, r0, lsr #26
 164:	6467672d 	strbtvs	r6, [r7], #-1837	; 0xfffff8d3
 168:	4f2d2062 	svcmi	0x002d2062
 16c:	732d2033 			; <UNDEFINED> instruction: 0x732d2033
 170:	673d6474 			; <UNDEFINED> instruction: 0x673d6474
 174:	3131756e 	teqcc	r1, lr, ror #10
 178:	66662d20 	strbtvs	r2, [r6], -r0, lsr #26
 17c:	73656572 	cmnvc	r5, #478150656	; 0x1c800000
 180:	646e6174 	strbtvs	r6, [lr], #-372	; 0xfffffe8c
 184:	00676e69 	rsbeq	r6, r7, r9, ror #28
 188:	676e6f6c 	strbvs	r6, [lr, -ip, ror #30]!
 18c:	6e6f6c20 	cdpvs	12, 6, cr6, cr15, cr0, {1}
 190:	6e752067 	cdpvs	0, 7, cr2, cr5, cr7, {3}
 194:	6e676973 			; <UNDEFINED> instruction: 0x6e676973
 198:	69206465 	stmdbvs	r0!, {r0, r2, r5, r6, sl, sp, lr}
 19c:	6200746e 	andvs	r7, r0, #1845493760	; 0x6e000000
 1a0:	2f746f6f 	svccs	0x00746f6f
 1a4:	2d737973 			; <UNDEFINED> instruction: 0x2d737973
 1a8:	636f6c63 	cmnvs	pc, #25344	; 0x6300
 1ac:	00632e6b 	rsbeq	r2, r3, fp, ror #28
 1b0:	656d6974 	strbvs	r6, [sp, #-2420]!	; 0xfffff68c
 1b4:	6f6c6300 	svcvs	0x006c6300
 1b8:	735f6b63 	cmpvc	pc, #101376	; 0x18c00
 1bc:	705f7465 	subsvc	r7, pc, r5, ror #8
 1c0:	635f6c6c 	cmpvs	pc, #108, 24	; 0x6c00
 1c4:	73007570 	movwvc	r7, #1392	; 0x570
 1c8:	74726f68 	ldrbtvc	r6, [r2], #-3944	; 0xfffff098
 1cc:	736e7520 	cmnvc	lr, #32, 10	; 0x8000000
 1d0:	656e6769 	strbvs	r6, [lr, #-1897]!	; 0xfffff897
 1d4:	6e692064 	cdpvs	0, 6, cr2, cr9, cr4, {3}
 1d8:	64730074 	ldrbtvs	r0, [r3], #-116	; 0xffffff8c
 1dc:	79616c65 	stmdbvc	r1!, {r0, r2, r5, r6, sl, fp, sp, lr}^
 1e0:	756f6400 	strbvc	r6, [pc, #-1024]!	; fffffde8 <__stack_srv_end+0x7e77e1e0>
 1e4:	00656c62 	rsbeq	r6, r5, r2, ror #24
 1e8:	5f323375 	svcpl	0x00323375
 1ec:	65720074 	ldrbvs	r0, [r2, #-116]!	; 0xffffff8c
 1f0:	32336461 	eorscc	r6, r3, #1627389952	; 0x61000000
 1f4:	73616200 	cmnvc	r1, #0, 4
 1f8:	6d6d0065 	stclvs	0, cr0, [sp, #-404]!	; 0xfffffe6c
 1fc:	65735f75 	ldrbvs	r5, [r3, #-3957]!	; 0xfffff08b
 200:	00707574 	rsbseq	r7, r0, r4, ror r5
 204:	5f756d6d 	svcpl	0x00756d6d
 208:	62616e65 	rsbvs	r6, r1, #1616	; 0x650
 20c:	7500656c 	strvc	r6, [r0, #-1388]	; 0xfffffa94
 210:	33746e69 	cmncc	r4, #1680	; 0x690
 214:	00745f32 	rsbseq	r5, r4, r2, lsr pc
 218:	746f6f62 	strbtvc	r6, [pc], #-3938	; 220 <__spl_size-0x1684>
 21c:	756d6d2f 	strbvc	r6, [sp, #-3375]!	; 0xfffff2d1
 220:	5f00632e 	svcpl	0x0000632e
 224:	756d6d5f 	strbvc	r6, [sp, #-3423]!	; 0xfffff2a1
 228:	6274745f 	rsbsvs	r7, r4, #1593835520	; 0x5f000000
 22c:	6c6f6300 	stclvs	3, cr6, [pc], #-0	; 234 <__spl_size-0x1670>
 230:	6469775f 	strbtvs	r7, [r9], #-1887	; 0xfffff8a1
 234:	72006874 	andvc	r6, r0, #116, 16	; 0x740000
 238:	775f776f 	ldrbvc	r7, [pc, -pc, ror #14]
 23c:	68746469 	ldmdavs	r4!, {r0, r3, r5, r6, sl, sp, lr}^
 240:	5f736300 	svcpl	0x00736300
 244:	006d756e 	rsbeq	r7, sp, lr, ror #10
 248:	72646461 	rsbvc	r6, r4, #1627389952	; 0x61000000
 24c:	72640032 	rsbvc	r0, r4, #50	; 0x32
 250:	745f6d61 	ldrbvc	r6, [pc], #-3425	; 258 <__spl_size-0x164c>
 254:	5f657079 	svcpl	0x00657079
 258:	6f630074 	svcvs	0x00630074
 25c:	616c666c 	cmnvs	ip, ip, ror #12
 260:	65740067 	ldrbvs	r0, [r4, #-103]!	; 0xffffff99
 264:	6400706d 	strvs	r7, [r0], #-109	; 0xffffff93
 268:	67616c66 	strbvs	r6, [r1, -r6, ror #24]!
 26c:	61726400 	cmnvs	r2, r0, lsl #8
 270:	68635f6d 	stmdavs	r3!, {r0, r2, r3, r5, r6, r8, r9, sl, fp, ip, lr}^
 274:	5f6b6365 	svcpl	0x006b6365
 278:	616c6564 	cmnvs	ip, r4, ror #10
 27c:	72640079 	rsbvc	r0, r4, #121	; 0x79
 280:	705f6d61 	subsvc	r6, pc, r1, ror #26
 284:	5f617261 	svcpl	0x00617261
 288:	75746573 	ldrbvc	r6, [r4, #-1395]!	; 0xfffffa8d
 28c:	52440070 	subpl	r0, r4, #112	; 0x70
 290:	545f4d41 	ldrbpl	r4, [pc], #-3393	; 298 <__spl_size-0x160c>
 294:	5f455059 	svcpl	0x00455059
 298:	00524444 	subseq	r4, r2, r4, asr #8
 29c:	65636361 	strbvs	r6, [r3, #-865]!	; 0xfffffc9f
 2a0:	6d5f7373 	ldclvs	3, cr7, [pc, #-460]	; dc <__spl_size-0x17c8>
 2a4:	0065646f 	rsbeq	r6, r5, pc, ror #8
 2a8:	656d6974 	strbvs	r6, [sp, #-2420]!	; 0xfffff68c
 2ac:	72640073 	rsbvc	r0, r4, #115	; 0x73
 2b0:	695f6d61 	ldmdbvs	pc, {r0, r5, r6, r8, sl, fp, sp, lr}^	; <UNPREDICTABLE>
 2b4:	6974696e 	ldmdbvs	r4!, {r1, r2, r3, r5, r6, r8, fp, sp, lr}^
 2b8:	73006c61 	movwvc	r6, #3169	; 0xc61
 2bc:	725f7264 	subsvc	r7, pc, #100, 4	; 0x40000006
 2c0:	70646165 	rsbvc	r6, r4, r5, ror #2
 2c4:	5f657069 	svcpl	0x00657069
 2c8:	6e616373 	mcrvs	3, 3, r6, cr1, cr3, {3}
 2cc:	5f707200 	svcpl	0x00707200
 2d0:	74736562 	ldrbtvc	r6, [r3], #-1378	; 0xfffffa9e
 2d4:	72617000 	rsbvc	r7, r1, #0
 2d8:	64640061 	strbtvs	r0, [r4], #-97	; 0xffffff9f
 2dc:	725f3872 	subsvc	r3, pc, #7471104	; 0x720000
 2e0:	70616d65 	rsbvc	r6, r1, r5, ror #26
 2e4:	61726400 	cmnvs	r2, r0, lsl #8
 2e8:	63735f6d 	cmnvs	r3, #436	; 0x1b4
 2ec:	725f6e61 	subsvc	r6, pc, #1552	; 0x610
 2f0:	70646165 	rsbvc	r6, r4, r5, ror #2
 2f4:	00657069 	rsbeq	r7, r5, r9, rrx
 2f8:	6b6e6162 	blvs	1b98888 <STACK_SRV_SIZE+0x1b58888>
 2fc:	7a69735f 	bvc	1a5d080 <STACK_SRV_SIZE+0x1a1d080>
 300:	77620065 	strbvc	r0, [r2, -r5, rrx]!
 304:	68746469 	ldmdavs	r4!, {r0, r3, r5, r6, sl, sp, lr}^
 308:	61726400 	cmnvs	r2, r0, lsl #8
 30c:	65735f6d 	ldrbvs	r5, [r3, #-3949]!	; 0xfffff093
 310:	75615f74 	strbvc	r5, [r1, #-3956]!	; 0xfffff08c
 314:	72666f74 	rsbvc	r6, r6, #116, 30	; 0x1d0
 318:	5f687365 	svcpl	0x00687365
 31c:	6c637963 			; <UNDEFINED> instruction: 0x6c637963
 320:	64730065 	ldrbtvs	r0, [r3], #-101	; 0xffffff9b
 324:	64645f72 	strbtvs	r5, [r4], #-3954	; 0xfffff08e
 328:	72640072 	rsbvc	r0, r4, #114	; 0x72
 32c:	645f6d61 	ldrbvs	r6, [pc], #-3425	; 334 <__spl_size-0x1570>
 330:	79616c65 	stmdbvc	r1!, {r0, r2, r5, r6, sl, fp, sp, lr}^
 334:	41524400 	cmpmi	r2, r0, lsl #8
 338:	59545f4d 	ldmdbpl	r4, {r0, r2, r3, r6, r8, r9, sl, fp, ip, lr}^
 33c:	535f4550 	cmppl	pc, #80, 10	; 0x14000000
 340:	64005244 	strvs	r5, [r0], #-580	; 0xfffffdbc
 344:	5f6d6172 	svcpl	0x006d6172
 348:	63656863 	cmnvs	r5, #6488064	; 0x630000
 34c:	79745f6b 	ldmdbvc	r4!, {r0, r1, r3, r5, r6, r8, r9, sl, fp, ip, lr}^
 350:	72006570 	andvc	r6, r0, #112, 10	; 0x1c000000
 354:	61765f70 	cmnvs	r6, r0, ror pc
 358:	6176006c 	cmnvs	r6, ip, rrx
 35c:	7200316c 	andvc	r3, r0, #108, 2
 360:	6c66776f 	stclvs	7, cr7, [r6], #-444	; 0xfffffe44
 364:	62006761 	andvs	r6, r0, #25427968	; 0x1840000
 368:	2f746f6f 	svccs	0x00746f6f
 36c:	2d737973 			; <UNDEFINED> instruction: 0x2d737973
 370:	6d617264 	sfmvs	f7, 2, [r1, #-400]!	; 0xfffffe70
 374:	6400632e 	strvs	r6, [r0], #-814	; 0xfffffcd2
 378:	5f6d6172 	svcpl	0x006d6172
 37c:	61726170 	cmnvs	r2, r0, ror r1
 380:	6100745f 	tstvs	r0, pc, asr r4
 384:	31726464 	cmncc	r2, r4, ror #8
 388:	72647300 	rsbvc	r7, r4, #0, 6
 38c:	6165725f 	cmnvs	r5, pc, asr r2
 390:	70697064 	rsbvc	r7, r9, r4, rrx
 394:	65735f65 	ldrbvs	r5, [r3, #-3941]!	; 0xfffff09b
 398:	7463656c 	strbtvc	r6, [r3], #-1388	; 0xfffffa94
 39c:	69736400 	ldmdbvs	r3!, {sl, sp, lr}^
 3a0:	6400657a 	strvs	r6, [r0], #-1402	; 0xfffffa86
 3a4:	5f6d6172 	svcpl	0x006d6172
 3a8:	616c6564 	cmnvs	ip, r4, ror #10
 3ac:	63735f79 	cmnvs	r3, #484	; 0x1e4
 3b0:	63006e61 	movwvs	r6, #3681	; 0xe61
 3b4:	746e756f 	strbtvc	r7, [lr], #-1391	; 0xfffffa91
 3b8:	41524400 	cmpmi	r2, r0, lsl #8
 3bc:	59545f4d 	ldmdbpl	r4, {r0, r2, r3, r6, r8, r9, sl, fp, ip, lr}^
 3c0:	4d5f4550 	cfldr64mi	mvdx4, [pc, #-320]	; 288 <__spl_size-0x161c>
 3c4:	00524444 	subseq	r4, r2, r4, asr #8
 3c8:	5f737973 	svcpl	0x00737973
 3cc:	6d617264 	sfmvs	f7, 2, [r1, #-400]!	; 0xfffffe70
 3d0:	696e695f 	stmdbvs	lr!, {r0, r1, r2, r3, r4, r6, r8, fp, sp, lr}^
 3d4:	72640074 	rsbvc	r0, r4, #116	; 0x74
 3d8:	675f6d61 	ldrbvs	r6, [pc, -r1, ror #26]
 3dc:	645f7465 	ldrbvs	r7, [pc], #-1125	; 3e4 <__spl_size-0x14c0>
 3e0:	5f6d6172 	svcpl	0x006d6172
 3e4:	657a6973 	ldrbvs	r6, [sl, #-2419]!	; 0xfffff68d
 3e8:	6d726100 	ldfvse	f6, [r2, #-0]
 3ec:	645f3233 	ldrbvs	r3, [pc], #-563	; 3f4 <__spl_size-0x14b0>
 3f0:	72695f6f 	rsbvc	r5, r9, #444	; 0x1bc
 3f4:	72610071 	rsbvc	r0, r1, #113	; 0x71
 3f8:	5f32336d 	svcpl	0x0032336d
 3fc:	735f6f64 	cmpvc	pc, #100, 30	; 0x190
 400:	7774666f 	ldrbvc	r6, [r4, -pc, ror #12]!
 404:	5f657261 	svcpl	0x00657261
 408:	65746e69 	ldrbvs	r6, [r4, #-3689]!	; 0xfffff197
 40c:	70757272 	rsbsvc	r7, r5, r2, ror r2
 410:	72610074 	rsbvc	r0, r1, #116	; 0x74
 414:	65725f6d 	ldrbvs	r5, [r2, #-3949]!	; 0xfffff093
 418:	745f7367 	ldrbvc	r7, [pc], #-871	; 420 <__spl_size-0x1484>
 41c:	6f687300 	svcvs	0x00687300
 420:	65725f77 	ldrbvs	r5, [r2, #-3959]!	; 0xfffff089
 424:	61007367 	tstvs	r0, r7, ror #6
 428:	32336d72 	eorscc	r6, r3, #7296	; 0x1c80
 42c:	5f6f645f 	svcpl	0x006f645f
 430:	65646e75 	strbvs	r6, [r4, #-3701]!	; 0xfffff18b
 434:	656e6966 	strbvs	r6, [lr, #-2406]!	; 0xfffff69a
 438:	6e695f64 	cdpvs	15, 6, cr5, cr9, cr4, {3}
 43c:	75727473 	ldrbvc	r7, [r2, #-1139]!	; 0xfffffb8d
 440:	6f697463 	svcvs	0x00697463
 444:	6e69006e 	cdpvs	0, 6, cr0, cr9, cr14, {3}
 448:	72726574 	rsbsvc	r6, r2, #116, 10	; 0x1d000000
 44c:	5f747075 	svcpl	0x00747075
 450:	646e6168 	strbtvs	r6, [lr], #-360	; 0xfffffe98
 454:	655f656c 	ldrbvs	r6, [pc, #-1388]	; fffffef0 <__stack_srv_end+0x7e77e2e8>
 458:	70656378 	rsbvc	r6, r5, r8, ror r3
 45c:	6e6f6974 			; <UNDEFINED> instruction: 0x6e6f6974
 460:	6d726100 	ldfvse	f6, [r2, #-0]
 464:	645f3233 	ldrbvs	r3, [pc], #-563	; 46c <__spl_size-0x1438>
 468:	61645f6f 	cmnvs	r4, pc, ror #30
 46c:	615f6174 	cmpvs	pc, r4, ror r1	; <UNPREDICTABLE>
 470:	74726f62 	ldrbtvc	r6, [r2], #-3938	; 0xfffff09e
 474:	69727000 	ldmdbvs	r2!, {ip, sp, lr}^
 478:	0066746e 	rsbeq	r7, r6, lr, ror #8
 47c:	72737063 	rsbsvc	r7, r3, #99	; 0x63
 480:	6d726100 	ldfvse	f6, [r2, #-0]
 484:	645f3233 	ldrbvs	r3, [pc], #-563	; 48c <__spl_size-0x1418>
 488:	72705f6f 	rsbsvc	r5, r0, #444	; 0x1bc
 48c:	74656665 	strbtvc	r6, [r5], #-1637	; 0xfffff99b
 490:	615f6863 	cmpvs	pc, r3, ror #16
 494:	74726f62 	ldrbtvc	r6, [r2], #-3938	; 0xfffff09e
 498:	6f6f6200 	svcvs	0x006f6200
 49c:	78652f74 	stmdavc	r5!, {r2, r4, r5, r6, r8, r9, sl, fp, sp}^
 4a0:	74706563 	ldrbtvc	r6, [r0], #-1379	; 0xfffffa9d
 4a4:	2e6e6f69 	cdpcs	15, 6, cr6, cr14, cr9, {3}
 4a8:	72610063 	rsbvc	r0, r1, #99	; 0x63
 4ac:	5f32336d 	svcpl	0x0032336d
 4b0:	665f6f64 	ldrbvs	r6, [pc], -r4, ror #30
 4b4:	73007169 	movwvc	r7, #361	; 0x169
 4b8:	75507379 	ldrbvc	r7, [r0, #-889]	; 0xfffffc87
 4bc:	72745374 	rsbsvc	r5, r4, #116, 6	; 0xd0000001
 4c0:	00676e69 	rsbeq	r6, r7, r9, ror #28
 4c4:	50737973 	rsbspl	r7, r3, r3, ror r9
 4c8:	754e7475 	strbvc	r7, [lr, #-1141]	; 0xfffffb8b
 4cc:	7265626d 	rsbvc	r6, r5, #-805306362	; 0xd0000006
 4d0:	726f4600 	rsbvc	r4, pc, #0, 12
 4d4:	4974616d 	ldmdbmi	r4!, {r0, r2, r3, r5, r6, r8, sp, lr}^
 4d8:	006d6574 	rsbeq	r6, sp, r4, ror r5
 4dc:	534c4146 	movtpl	r4, #49478	; 0xc146
 4e0:	74730045 	ldrbtvc	r0, [r3], #-69	; 0xffffffbb
 4e4:	6e656c72 	mcrvs	12, 3, r6, cr5, cr2, {3}
 4e8:	6f6f6200 	svcvs	0x006f6200
 4ec:	79732f74 	ldmdbvc	r3!, {r2, r4, r5, r6, r8, r9, sl, fp, sp}^
 4f0:	61752d73 	cmnvs	r5, r3, ror sp
 4f4:	632e7472 			; <UNDEFINED> instruction: 0x632e7472
 4f8:	4e495500 	cdpmi	5, 4, cr5, cr9, cr0, {0}
 4fc:	00323354 	eorseq	r3, r2, r4, asr r3
 500:	7466656c 	strbtvc	r6, [r6], #-1388	; 0xfffffa94
 504:	7473756a 	ldrbtvc	r7, [r3], #-1386	; 0xfffffa96
 508:	6c696600 	stclvs	6, cr6, [r9], #-0
 50c:	6e69006c 	cdpvs	0, 6, cr0, cr9, cr12, {3}
 510:	00786564 	rsbseq	r6, r8, r4, ror #10
 514:	69727473 	ldmdbvs	r2!, {r0, r1, r4, r5, r6, sl, ip, sp, lr}^
 518:	6e00676e 	cdpvs	7, 0, cr6, cr0, cr14, {3}
 51c:	74616765 	strbtvc	r6, [r1], #-1893	; 0xfffff89b
 520:	00657669 	rsbeq	r7, r5, r9, ror #12
 524:	544e4950 	strbpl	r4, [lr], #-2384	; 0xfffff6b0
 528:	72610038 	rsbvc	r0, r1, #56	; 0x38
 52c:	73005067 	movwvc	r5, #103	; 0x67
 530:	75507379 	ldrbvc	r7, [r0, #-889]	; 0xfffffc87
 534:	72745374 	rsbsvc	r5, r4, #116, 6	; 0xd0000001
 538:	52676e69 	rsbpl	r6, r7, #1680	; 0x690
 53c:	72657665 	rsbvc	r7, r5, #105906176	; 0x6500000
 540:	72006573 	andvc	r6, r0, #482344960	; 0x1cc00000
 544:	78696461 	stmdavc	r9!, {r0, r5, r6, sl, sp, lr}^
 548:	4e495500 	cdpmi	5, 4, cr5, cr9, cr0, {0}
 54c:	00363154 	eorseq	r3, r6, r4, asr r1
 550:	7466656c 	strbtvc	r6, [r6], #-1388	; 0xfffffa94
 554:	61767500 	cmnvs	r6, r0, lsl #10
 558:	0065756c 	rsbeq	r7, r5, ip, ror #10
 55c:	66667562 	strbtvs	r7, [r6], -r2, ror #10
 560:	73007265 	movwvc	r7, #613	; 0x265
 564:	755f7379 	ldrbvc	r7, [pc, #-889]	; 1f3 <__spl_size-0x16b1>
 568:	5f747261 	svcpl	0x00747261
 56c:	63747570 	cmnvs	r4, #112, 10	; 0x1c000000
 570:	53637000 	cmnpl	r3, #0
 574:	73007274 	movwvc	r7, #628	; 0x274
 578:	75507379 	ldrbvc	r7, [r0, #-889]	; 0xfffffc87
 57c:	70655274 	rsbvc	r5, r5, r4, ror r2
 580:	72616843 	rsbvc	r6, r1, #4390912	; 0x430000
 584:	65696600 	strbvs	r6, [r9, #-1536]!	; 0xfffffa00
 588:	6977646c 	ldmdbvs	r7!, {r2, r3, r5, r6, sl, sp, lr}^
 58c:	00687464 	rsbeq	r7, r8, r4, ror #8
 590:	5f737973 	svcpl	0x00737973
 594:	74726175 	ldrbtvc	r6, [r2], #-373	; 0xfffffe8b
 598:	696e695f 	stmdbvs	lr!, {r0, r1, r2, r3, r4, r6, r8, fp, sp, lr}^
 59c:	69640074 	stmdbvs	r4!, {r2, r4, r5, r6}^
 5a0:	00746967 	rsbseq	r6, r4, r7, ror #18
 5a4:	45555254 	ldrbmi	r5, [r5, #-596]	; 0xfffffdac
 5a8:	49505300 	ldmdbmi	r0, {r8, r9, ip, lr}^
 5ac:	5245495f 	subpl	r4, r5, #1556480	; 0x17c000
 5b0:	6c787400 	cfldrdvs	mvd7, [r8], #-0
 5b4:	73006e65 	movwvc	r6, #3685	; 0xe65
 5b8:	735f7379 	cmpvc	pc, #-469762047	; 0xe4000001
 5bc:	735f6970 	cmpvc	pc, #112, 18	; 0x1c0000
 5c0:	63656c65 	cmnvs	r5, #25856	; 0x6500
 5c4:	79730074 	ldmdbvc	r3!, {r2, r4, r5, r6}^
 5c8:	70735f73 	rsbsvc	r5, r3, r3, ror pc
 5cc:	65645f69 	strbvs	r5, [r4, #-3945]!	; 0xfffff097
 5d0:	656c6573 	strbvs	r6, [ip, #-1395]!	; 0xfffffa8d
 5d4:	53007463 	movwpl	r7, #1123	; 0x463
 5d8:	435f4950 	cmpmi	pc, #80, 18	; 0x140000
 5dc:	53005243 	movwpl	r5, #579	; 0x243
 5e0:	545f4950 	ldrbpl	r4, [pc], #-2384	; 5e8 <__spl_size-0x12bc>
 5e4:	53005243 	movwpl	r5, #579	; 0x243
 5e8:	425f4950 	subsmi	r4, pc, #80, 18	; 0x140000
 5ec:	62004343 	andvs	r4, r0, #201326593	; 0xc000001
 5f0:	2f746f6f 	svccs	0x00746f6f
 5f4:	2d737973 			; <UNDEFINED> instruction: 0x2d737973
 5f8:	6e697073 	mcrvs	0, 3, r7, cr9, cr3, {3}
 5fc:	632e726f 			; <UNDEFINED> instruction: 0x632e726f
 600:	61657200 	cmnvs	r5, r0, lsl #4
 604:	73003864 	movwvc	r3, #2148	; 0x864
 608:	735f7379 	cmpvc	pc, #-469762047	; 0xe4000001
 60c:	6f6e6970 	svcvs	0x006e6970
 610:	78655f72 	stmdavc	r5!, {r1, r4, r5, r6, r8, r9, sl, fp, ip, lr}^
 614:	73007469 	movwvc	r7, #1129	; 0x469
 618:	735f7379 	cmpvc	pc, #-469762047	; 0xe4000001
 61c:	775f6970 			; <UNDEFINED> instruction: 0x775f6970
 620:	65746972 	ldrbvs	r6, [r4, #-2418]!	; 0xfffff68e
 624:	6568745f 	strbvs	r7, [r8, #-1119]!	; 0xfffffba1
 628:	65725f6e 	ldrbvs	r5, [r2, #-3950]!	; 0xfffff092
 62c:	53006461 	movwpl	r6, #1121	; 0x461
 630:	4d5f4950 	vldrmi.16	s9, [pc, #-160]	; 598 <__spl_size-0x130c>	; <UNPREDICTABLE>
 634:	72004354 	andvc	r4, r0, #84, 6	; 0x50000001
 638:	6e656c78 	mcrvs	12, 3, r6, cr5, cr8, {3}
 63c:	73797300 	cmnvc	r9, #0, 6
 640:	6970735f 	ldmdbvs	r0!, {r0, r1, r2, r3, r4, r6, r8, r9, ip, sp, lr}^
 644:	5f726f6e 	svcpl	0x00726f6e
 648:	74696e69 	strbtvc	r6, [r9], #-3689	; 0xfffff197
 64c:	73797300 	cmnvc	r9, #0, 6
 650:	6970735f 	ldmdbvs	r0!, {r0, r1, r2, r3, r4, r6, r8, r9, ip, sp, lr}^
 654:	6172745f 	cmnvs	r2, pc, asr r4
 658:	6566736e 	strbvs	r7, [r6, #-878]!	; 0xfffffc92
 65c:	50530072 	subspl	r0, r3, r2, ror r0
 660:	53465f49 	movtpl	r5, #28489	; 0x6f49
 664:	50530052 	subspl	r0, r3, r2, asr r0
 668:	424d5f49 	submi	r5, sp, #292	; 0x124
 66c:	50530043 	subspl	r0, r3, r3, asr #32
 670:	43475f49 	movtmi	r5, #32585	; 0x7f49
 674:	50530052 	subspl	r0, r3, r2, asr r0
 678:	53495f49 	movtpl	r5, #40777	; 0x9f49
 67c:	50530052 	subspl	r0, r3, r2, asr r0
 680:	58545f49 	ldmdapl	r4, {r0, r3, r6, r8, r9, sl, fp, ip, lr}^
 684:	79730044 	ldmdbvc	r3!, {r2, r6}^
 688:	70735f73 	rsbsvc	r5, r3, r3, ror pc
 68c:	726f6e69 	rsbvc	r6, pc, #1680	; 0x690
 690:	6165725f 	cmnvs	r5, pc, asr r2
 694:	50530064 	subspl	r0, r3, r4, rrx
 698:	43465f49 	movtmi	r5, #28489	; 0x6f49
 69c:	38750052 	ldmdacc	r5!, {r1, r4, r6}^
 6a0:	5300745f 	movwpl	r7, #1119	; 0x45f
 6a4:	575f4950 			; <UNDEFINED> instruction: 0x575f4950
 6a8:	72005243 	andvc	r5, r0, #805306372	; 0x30000004
 6ac:	66756278 			; <UNDEFINED> instruction: 0x66756278
 6b0:	69727700 	ldmdbvs	r2!, {r8, r9, sl, ip, sp, lr}^
 6b4:	00386574 	eorseq	r6, r8, r4, ror r5
 6b8:	5f495053 	svcpl	0x00495053
 6bc:	00445852 	subeq	r5, r4, r2, asr r8
 6c0:	5f737973 	svcpl	0x00737973
 6c4:	5f697073 	svcpl	0x00697073
 6c8:	74697277 	strbtvc	r7, [r9], #-631	; 0xfffffd89
 6cc:	78745f65 	ldmdavc	r4!, {r0, r2, r5, r6, r8, r9, sl, fp, ip, lr}^
 6d0:	00667562 	rsbeq	r7, r6, r2, ror #10
 6d4:	61665f5f 	cmnvs	r6, pc, asr pc
 6d8:	5f6c6174 	svcpl	0x006c6174
 6dc:	6f727265 	svcvs	0x00727265
 6e0:	69660072 	stmdbvs	r6!, {r1, r4, r5, r6}^
 6e4:	6200656c 	andvs	r6, r0, #108, 10	; 0x1b000000
 6e8:	5f746f6f 	svcpl	0x00746f6f
 6ec:	6e69616d 	powvsez	f6, f1, #5.0
 6f0:	70786500 	rsbsvc	r6, r8, r0, lsl #10
 6f4:	5f5f0072 	svcpl	0x005f0072
 6f8:	65737361 	ldrbvs	r7, [r3, #-865]!	; 0xfffffc9f
 6fc:	665f7472 			; <UNDEFINED> instruction: 0x665f7472
 700:	00636e75 	rsbeq	r6, r3, r5, ror lr
 704:	656e696c 	strbvs	r6, [lr, #-2412]!	; 0xfffff694
 708:	67726100 	ldrbvs	r6, [r2, -r0, lsl #2]!
 70c:	72610063 	rsbvc	r0, r1, #99	; 0x63
 710:	62007667 	andvs	r7, r0, #108003328	; 0x6700000
 714:	2f746f6f 	svccs	0x00746f6f
 718:	746f6f62 	strbtvc	r6, [pc], #-3938	; 720 <__spl_size-0x1184>
 71c:	69616d5f 	stmdbvs	r1!, {r0, r1, r2, r3, r4, r6, r8, sl, fp, sp, lr}^
 720:	00632e6e 	rsbeq	r2, r3, lr, ror #28
 724:	78635f5f 	stmdavc	r3!, {r0, r1, r2, r3, r4, r6, r8, r9, sl, fp, ip, lr}^
 728:	75705f61 	ldrbvc	r5, [r0, #-3937]!	; 0xfffff09f
 72c:	765f6572 			; <UNDEFINED> instruction: 0x765f6572
 730:	75747269 	ldrbvc	r7, [r4, #-617]!	; 0xfffffd97
 734:	6d006c61 	stcvs	12, cr6, [r0, #-388]	; 0xfffffe7c
 738:	61737365 	cmnvs	r3, r5, ror #6
 73c:	75006567 	strvc	r6, [r0, #-1383]	; 0xfffffa99
 740:	38746e69 	ldmdacc	r4!, {r0, r3, r5, r6, r9, sl, fp, sp, lr}^
 744:	6d00745f 	cfstrsvs	mvf7, [r0, #-380]	; 0xfffffe84
 748:	796f6a61 	stmdbvc	pc!, {r0, r5, r6, r9, fp, sp, lr}^	; <UNPREDICTABLE>
 74c:	685f5f00 	ldmdavs	pc, {r8, r9, sl, fp, ip, lr}^	; <UNPREDICTABLE>
 750:	5f706165 	svcpl	0x00706165
 754:	72617473 	rsbvc	r7, r1, #1929379840	; 0x73000000
 758:	73630074 	cmnvc	r3, #116	; 0x74
 75c:	00657a69 	rsbeq	r7, r5, r9, ror #20
 760:	696e696d 	stmdbvs	lr!, {r0, r2, r3, r5, r6, r8, fp, sp, lr}^
 764:	5f00726f 	svcpl	0x0000726f
 768:	616d695f 	cmnvs	sp, pc, asr r9
 76c:	655f6567 	ldrbvs	r6, [pc, #-1383]	; 20d <__spl_size-0x1697>
 770:	5f00646e 	svcpl	0x0000646e
 774:	616d695f 	cmnvs	sp, pc, asr r9
 778:	735f6567 	cmpvc	pc, #432013312	; 0x19c00000
 77c:	74726174 	ldrbtvc	r6, [r2], #-372	; 0xfffffe8c
 780:	65647a00 	strbvs	r7, [r4, #-2560]!	; 0xfffff600
 784:	745f6373 	ldrbvc	r6, [pc], #-883	; 78c <__spl_size-0x1118>
 788:	61687300 	cmnvs	r8, r0, lsl #6
 78c:	00363532 	eorseq	r3, r6, r2, lsr r5
 790:	6e676973 			; <UNDEFINED> instruction: 0x6e676973
 794:	72757461 	rsbsvc	r7, r5, #1627389952	; 0x61000000
 798:	6f620065 	svcvs	0x00620065
 79c:	732f746f 			; <UNDEFINED> instruction: 0x732f746f
 7a0:	632d7379 			; <UNDEFINED> instruction: 0x632d7379
 7a4:	7379706f 	cmnvc	r9, #111	; 0x6f
 7a8:	2e666c65 	cdpcs	12, 6, cr6, cr6, cr5, {3}
 7ac:	61700063 	cmnvs	r0, r3, rrx
 7b0:	00686374 	rsbeq	r6, r8, r4, ror r3
 7b4:	5f737973 	svcpl	0x00737973
 7b8:	79706f63 	ldmdbvc	r0!, {r0, r1, r5, r6, r8, r9, sl, fp, sp, lr}^
 7bc:	666c6573 			; <UNDEFINED> instruction: 0x666c6573
 7c0:	62757000 	rsbsvs	r7, r5, #0
 7c4:	0063696c 	rsbeq	r6, r3, ip, ror #18
 7c8:	6967616d 	stmdbvs	r7!, {r0, r2, r3, r5, r6, r8, sp, lr}^
 7cc:	69730063 	ldmdbvs	r3!, {r0, r1, r5, r6}^
 7d0:	745f657a 	ldrbvc	r6, [pc], #-1402	; 7d8 <__spl_size-0x10cc>
 7d4:	62696c00 	rsbvs	r6, r9, #0, 24
 7d8:	7274732f 	rsbsvc	r7, r4, #-1140850688	; 0xbc000000
 7dc:	2e6e656c 	cdpcs	5, 6, cr6, cr14, cr12, {3}
 7e0:	Address 0x00000000000007e0 is out of bounds.


Disassembly of section .debug_loc:

00000000 <.debug_loc>:
       0:	00000020 	andeq	r0, r0, r0, lsr #32
       4:	00000038 	andeq	r0, r0, r8, lsr r0
       8:	38510001 	ldmdacc	r1, {r0}^
       c:	3c000000 	stccc	0, cr0, [r0], {-0}
      10:	03000000 	movweq	r0, #0
      14:	00d07200 	sbcseq	r7, r0, r0, lsl #4
      18:	00000078 	andeq	r0, r0, r8, ror r0
      1c:	00000090 	muleq	r0, r0, r0
      20:	90510001 	subsls	r0, r1, r1
      24:	a0000000 	andge	r0, r0, r0
      28:	03000000 	movweq	r0, #0
      2c:	02807200 	addeq	r7, r0, #0, 4
      30:	000000d0 	ldrdeq	r0, [r0], -r0	; <UNPREDICTABLE>
      34:	000000fc 	strdeq	r0, [r0], -ip
      38:	00530001 	subseq	r0, r3, r1
	...
      44:	10000000 	andne	r0, r0, r0
      48:	04000000 	streq	r0, [r0], #-0
      4c:	01ff0a00 	mvnseq	r0, r0, lsl #20
      50:	0000009f 	muleq	r0, pc, r0	; <UNPREDICTABLE>
	...
      5c:	00001000 	andeq	r1, r0, r0
      60:	9e000a00 	vmlals.f32	s0, s0, s0
      64:	c2020008 	andgt	r0, r2, #8
      68:	00000001 	andeq	r0, r0, r1
	...
      74:	00002800 	andeq	r2, r0, r0, lsl #16
      78:	00003000 	andeq	r3, r0, r0
      7c:	08000300 	stmdaeq	r0, {r8, r9}
      80:	00009f64 	andeq	r9, r0, r4, ror #30
      84:	00000000 	andeq	r0, r0, r0
      88:	00100000 	andseq	r0, r0, r0
      8c:	00140000 	andseq	r0, r4, r0
      90:	00040000 	andeq	r0, r4, r0
      94:	9f01ff0a 	svcls	0x0001ff0a
	...
      a0:	00000010 	andeq	r0, r0, r0, lsl r0
      a4:	00000014 	andeq	r0, r0, r4, lsl r0
      a8:	089e000a 	ldmeq	lr, {r1, r3}
      ac:	01c20204 	biceq	r0, r2, r4, lsl #4
	...
      bc:	00000014 	andeq	r0, r0, r4, lsl r0
      c0:	00000018 	andeq	r0, r0, r8, lsl r0
      c4:	089e000a 	ldmeq	lr, {r1, r3}
      c8:	01c20050 	biceq	r0, r2, r0, asr r0
	...
      d8:	00000024 	andeq	r0, r0, r4, lsr #32
      dc:	00000028 	andeq	r0, r0, r8, lsr #32
      e0:	00510001 	subseq	r0, r1, r1
      e4:	00000000 	andeq	r0, r0, r0
      e8:	24000000 	strcs	r0, [r0], #-0
      ec:	28000000 	stmdacs	r0, {}	; <UNPREDICTABLE>
      f0:	0a000000 	beq	f8 <__spl_size-0x17ac>
      f4:	50089e00 	andpl	r9, r8, r0, lsl #28
      f8:	0001c200 	andeq	ip, r1, r0, lsl #4
	...
     104:	30000000 	andcc	r0, r0, r0
     108:	3c000000 	stccc	0, cr0, [r0], {-0}
     10c:	06000000 	streq	r0, [r0], -r0
     110:	03049e00 	movweq	r9, #19968	; 0x4e00
     114:	0081003e 	addeq	r0, r1, lr, lsr r0
     118:	00000000 	andeq	r0, r0, r0
     11c:	30000000 	andcc	r0, r0, r0
     120:	3c000000 	stccc	0, cr0, [r0], {-0}
     124:	0a000000 	beq	12c <__spl_size-0x1778>
     128:	10089e00 	andne	r9, r8, r0, lsl #28
     12c:	0001c200 	andeq	ip, r1, r0, lsl #4
	...
     138:	3c000000 	stccc	0, cr0, [r0], {-0}
     13c:	44000000 	strmi	r0, [r0], #-0
     140:	03000000 	movweq	r0, #0
     144:	9f640800 	svcls	0x00640800
	...
     150:	00000044 	andeq	r0, r0, r4, asr #32
     154:	00000050 	andeq	r0, r0, r0, asr r0
     158:	049e0006 	ldreq	r0, [lr], #6
     15c:	80041800 	andhi	r1, r4, r0, lsl #16
	...
     168:	00000044 	andeq	r0, r0, r4, asr #32
     16c:	00000050 	andeq	r0, r0, r0, asr r0
     170:	089e000a 	ldmeq	lr, {r1, r3}
     174:	01c20028 	biceq	r0, r2, r8, lsr #32
	...
     184:	00000050 	andeq	r0, r0, r0, asr r0
     188:	00000058 	andeq	r0, r0, r8, asr r0
     18c:	64080003 	strvs	r0, [r8], #-3
     190:	0000009f 	muleq	r0, pc, r0	; <UNPREDICTABLE>
     194:	00000000 	andeq	r0, r0, r0
     198:	00005800 	andeq	r5, r0, r0, lsl #16
     19c:	00006000 	andeq	r6, r0, r0
     1a0:	0a000400 	beq	11a8 <__spl_size-0x6fc>
     1a4:	009f3180 	addseq	r3, pc, r0, lsl #3
     1a8:	00000000 	andeq	r0, r0, r0
     1ac:	58000000 	stmdapl	r0, {}	; <UNPREDICTABLE>
     1b0:	60000000 	andvs	r0, r0, r0
     1b4:	0a000000 	beq	1bc <__spl_size-0x16e8>
     1b8:	54089e00 	strpl	r9, [r8], #-3584	; 0xfffff200
     1bc:	0001c200 	andeq	ip, r1, r0, lsl #4
	...
     1c8:	60000000 	andvs	r0, r0, r0
     1cc:	6c000000 	stcvs	0, cr0, [r0], {-0}
     1d0:	03000000 	movweq	r0, #0
     1d4:	9f640800 	svcls	0x00640800
	...
     1e0:	0000006c 	andeq	r0, r0, ip, rrx
     1e4:	00000070 	andeq	r0, r0, r0, ror r0
     1e8:	089e000a 	ldmeq	lr, {r1, r3}
     1ec:	01c20100 	biceq	r0, r2, r0, lsl #2
	...
     1fc:	00000078 	andeq	r0, r0, r8, ror r0
     200:	0000007c 	andeq	r0, r0, ip, ror r0
     204:	00510001 	subseq	r0, r1, r1
     208:	00000000 	andeq	r0, r0, r0
     20c:	78000000 	stmdavc	r0, {}	; <UNPREDICTABLE>
     210:	7c000000 	stcvc	0, cr0, [r0], {-0}
     214:	0a000000 	beq	21c <__spl_size-0x1688>
     218:	00089e00 	andeq	r9, r8, r0, lsl #28
     21c:	0001c201 	andeq	ip, r1, r1, lsl #4
	...
     228:	7c000000 	stcvc	0, cr0, [r0], {-0}
     22c:	84000000 	strhi	r0, [r0], #-0
     230:	03000000 	movweq	r0, #0
     234:	9f640800 	svcls	0x00640800
	...
     240:	00000084 	andeq	r0, r0, r4, lsl #1
     244:	000000c0 	andeq	r0, r0, r0, asr #1
     248:	000c0006 	andeq	r0, ip, r6
     24c:	9f185196 	svcls	0x00185196
	...
     258:	00000084 	andeq	r0, r0, r4, lsl #1
     25c:	000000c0 	andeq	r0, r0, r0, asr #1
     260:	9f400002 	svcls	0x00400002
	...
     26c:	00000084 	andeq	r0, r0, r4, lsl #1
     270:	000000c0 	andeq	r0, r0, r0, asr #1
     274:	9f300002 	svcls	0x00300002
	...
     280:	00000084 	andeq	r0, r0, r4, lsl #1
     284:	0000008c 	andeq	r0, r0, ip, lsl #1
     288:	9f300002 	svcls	0x00300002
     28c:	00000094 	muleq	r0, r4, r0
     290:	00000098 	muleq	r0, r8, r0
     294:	98530001 	ldmdals	r3, {r0}^
     298:	9c000000 	stcls	0, cr0, [r0], {-0}
     29c:	08000000 	stmdaeq	r0, {}	; <UNPREDICTABLE>
     2a0:	11007000 	mrsne	r7, (UNDEF: 0)
     2a4:	1a73c1cc 	bne	1cf09dc <STACK_SRV_SIZE+0x1cb09dc>
     2a8:	00009c9f 	muleq	r0, pc, ip	; <UNPREDICTABLE>
     2ac:	0000a400 	andeq	sl, r0, r0, lsl #8
     2b0:	53000100 	movwpl	r0, #256	; 0x100
     2b4:	000000a4 	andeq	r0, r0, r4, lsr #1
     2b8:	000000a8 	andeq	r0, r0, r8, lsr #1
     2bc:	00720002 	rsbseq	r0, r2, r2
     2c0:	000000a8 	andeq	r0, r0, r8, lsr #1
     2c4:	000000c0 	andeq	r0, r0, r0, asr #1
     2c8:	00710002 	rsbseq	r0, r1, r2
	...
     2d4:	00000084 	andeq	r0, r0, r4, lsl #1
     2d8:	000000c0 	andeq	r0, r0, r0, asr #1
     2dc:	9f410002 	svcls	0x00410002
	...
     2e8:	00000084 	andeq	r0, r0, r4, lsl #1
     2ec:	0000008c 	andeq	r0, r0, ip, lsl #1
     2f0:	089e000a 	ldmeq	lr, {r1, r3}
     2f4:	01c20000 	biceq	r0, r2, r0
	...
     304:	000000a0 	andeq	r0, r0, r0, lsr #1
     308:	000000a8 	andeq	r0, r0, r8, lsr #1
     30c:	ff0a0004 			; <UNDEFINED> instruction: 0xff0a0004
     310:	00a89f0f 	adceq	r9, r8, pc, lsl #30
     314:	00ac0000 	adceq	r0, ip, r0
     318:	00040000 	andeq	r0, r4, r0
     31c:	9f0ffe0a 	svcls	0x000ffe0a
	...
     328:	000000a0 	andeq	r0, r0, r0, lsr #1
     32c:	000000a8 	andeq	r0, r0, r8, lsr #1
     330:	089e000a 	ldmeq	lr, {r1, r3}
     334:	01c20000 	biceq	r0, r2, r0
	...
     344:	0000009c 	muleq	r0, ip, r0
     348:	000000a4 	andeq	r0, r0, r4, lsr #1
     34c:	a4530001 	ldrbge	r0, [r3], #-1
     350:	a8000000 	stmdage	r0, {}	; <UNPREDICTABLE>
     354:	02000000 	andeq	r0, r0, #0
     358:	a8007200 	stmdage	r0, {r9, ip, sp, lr}
     35c:	d8000000 	stmdale	r0, {}	; <UNPREDICTABLE>
     360:	02000000 	andeq	r0, r0, #0
     364:	d8007100 	stmdale	r0, {r8, ip, sp, lr}
     368:	fc000000 	stc2	0, cr0, [r0], {-0}
     36c:	10000000 	andne	r0, r0, r0
     370:	0c007000 	stceq	0, cr7, [r0], {-0}
     374:	7ffce0cc 	svcvc	0x00fce0cc
     378:	a080111a 	addge	r1, r0, sl, lsl r1
     37c:	21788080 	cmncs	r8, r0, lsl #1
     380:	0000009f 	muleq	r0, pc, r0	; <UNPREDICTABLE>
     384:	00000000 	andeq	r0, r0, r0
     388:	0000c000 	andeq	ip, r0, r0
     38c:	0000cc00 	andeq	ip, r0, r0, lsl #24
     390:	9e000a00 	vmlals.f32	s0, s0, s0
     394:	c2005008 	andgt	r5, r0, #8
     398:	00000001 	andeq	r0, r0, r1
	...
     3a4:	0000d800 	andeq	sp, r0, r0, lsl #16
     3a8:	0000e000 	andeq	lr, r0, r0
     3ac:	08000300 	stmdaeq	r0, {r8, r9}
     3b0:	00009f64 	andeq	r9, r0, r4, ror #30
     3b4:	00000000 	andeq	r0, r0, r0
     3b8:	00d40000 	sbcseq	r0, r4, r0
     3bc:	00d80000 	sbcseq	r0, r8, r0
     3c0:	00010000 	andeq	r0, r1, r0
     3c4:	00000053 	andeq	r0, r0, r3, asr r0
     3c8:	00000000 	andeq	r0, r0, r0
     3cc:	0000d400 	andeq	sp, r0, r0, lsl #8
     3d0:	0000d800 	andeq	sp, r0, r0, lsl #16
     3d4:	9e000a00 	vmlals.f32	s0, s0, s0
     3d8:	c2005008 	andgt	r5, r0, #8
     3dc:	00000001 	andeq	r0, r0, r1
	...
     3e8:	0002f400 	andeq	pc, r2, r0, lsl #8
     3ec:	0006ec00 	andeq	lr, r6, r0, lsl #24
     3f0:	5d000100 	stfpls	f0, [r0, #-0]
     3f4:	00000700 	andeq	r0, r0, r0, lsl #14
     3f8:	0000096c 	andeq	r0, r0, ip, ror #18
     3fc:	005d0001 	subseq	r0, sp, r1
     400:	00000000 	andeq	r0, r0, r0
     404:	f4000000 	vst4.8	{d0-d3}, [r0], r0
     408:	84000002 	strhi	r0, [r0], #-2
     40c:	02000003 	andeq	r0, r0, #3
     410:	889f3000 	ldmhi	pc, {ip, sp}	; <UNPREDICTABLE>
     414:	b8000003 	stmdalt	r0, {r0, r1}
     418:	01000003 	tsteq	r0, r3
     41c:	03b85300 			; <UNDEFINED> instruction: 0x03b85300
     420:	03c00000 	biceq	r0, r0, #0
     424:	00020000 	andeq	r0, r2, r0
     428:	04142072 	ldreq	r2, [r4], #-114	; 0xffffff8e
     42c:	04180000 	ldreq	r0, [r8], #-0
     430:	00010000 	andeq	r0, r1, r0
     434:	00041852 	andeq	r1, r4, r2, asr r8
     438:	00041c00 	andeq	r1, r4, r0, lsl #24
     43c:	9e000600 	cfmadd32ls	mvax0, mvfx0, mvfx0, mvfx0
     440:	ceedc204 	cdpgt	2, 14, cr12, cr13, cr4, {0}
     444:	00041cb7 			; <UNDEFINED> instruction: 0x00041cb7
     448:	0004a800 	andeq	sl, r4, r0, lsl #16
     44c:	0c000600 	stceq	6, cr0, [r0], {-0}
     450:	00a70008 	adceq	r0, r7, r8
     454:	0004a89f 	muleq	r4, pc, r8	; <UNPREDICTABLE>
     458:	0004b400 	andeq	fp, r4, r0, lsl #8
     45c:	53000100 	movwpl	r0, #256	; 0x100
     460:	000004b4 			; <UNDEFINED> instruction: 0x000004b4
     464:	000004cc 	andeq	r0, r0, ip, asr #9
     468:	c4710003 	ldrbtgt	r0, [r1], #-3
     46c:	0004cc15 	andeq	ip, r4, r5, lsl ip
     470:	0004dc00 	andeq	sp, r4, r0, lsl #24
     474:	0c000500 	cfstr32eq	mvfx0, [r0], {-0}
     478:	01c20ac4 	biceq	r0, r2, r4, asr #21
     47c:	00000718 	andeq	r0, r0, r8, lsl r7
     480:	00000750 	andeq	r0, r0, r0, asr r7
     484:	b8530001 	ldmdalt	r3, {r0}^
     488:	d0000007 	andle	r0, r0, r7
     48c:	03000007 	movweq	r0, #7
     490:	15c47100 	strbne	r7, [r4, #256]	; 0x100
     494:	000007d0 	ldrdeq	r0, [r0], -r0	; <UNPREDICTABLE>
     498:	000007fc 	strdeq	r0, [r0], -ip
     49c:	c40c0005 	strgt	r0, [ip], #-5
     4a0:	fc01c20a 	stc2	2, cr12, [r1], {10}
     4a4:	18000007 	stmdane	r0, {r0, r1, r2}
     4a8:	03000008 	movweq	r0, #8
     4ac:	15c47100 	strbne	r7, [r4, #256]	; 0x100
     4b0:	00000818 	andeq	r0, r0, r8, lsl r8
     4b4:	00000844 	andeq	r0, r0, r4, asr #16
     4b8:	c40c0005 	strgt	r0, [ip], #-5
     4bc:	8c01c20a 	sfmhi	f4, 1, [r1], {10}
     4c0:	a0000008 	andge	r0, r0, r8
     4c4:	03000008 	movweq	r0, #8
     4c8:	15c47100 	strbne	r7, [r4, #256]	; 0x100
     4cc:	000008c8 	andeq	r0, r0, r8, asr #17
     4d0:	000008e0 	andeq	r0, r0, r0, ror #17
     4d4:	e0530001 	subs	r0, r3, r1
     4d8:	f4000008 	vst4.8	{d0-d3}, [r0], r8
     4dc:	03000008 	movweq	r0, #8
     4e0:	15c47100 	strbne	r7, [r4, #256]	; 0x100
	...
     4ec:	000003f8 	strdeq	r0, [r0], -r8
     4f0:	000006b4 			; <UNDEFINED> instruction: 0x000006b4
     4f4:	9f300002 	svcls	0x00300002
     4f8:	00000700 	andeq	r0, r0, r0, lsl #14
     4fc:	00000718 	andeq	r0, r0, r8, lsl r7
     500:	9f300002 	svcls	0x00300002
     504:	00000750 	andeq	r0, r0, r0, asr r7
     508:	000008c8 	andeq	r0, r0, r8, asr #17
     50c:	9f300002 	svcls	0x00300002
     510:	000008e0 	andeq	r0, r0, r0, ror #17
     514:	0000096c 	andeq	r0, r0, ip, ror #18
     518:	9f300002 	svcls	0x00300002
	...
     524:	000002f4 	strdeq	r0, [r0], -r4
     528:	00000300 	andeq	r0, r0, r0, lsl #6
     52c:	089e000a 	ldmeq	lr, {r1, r3}
     530:	01c20824 	biceq	r0, r2, r4, lsr #16
	...
     540:	00000308 	andeq	r0, r0, r8, lsl #6
     544:	00000310 	andeq	r0, r0, r0, lsl r3
     548:	9f350002 	svcls	0x00350002
	...
     554:	00000308 	andeq	r0, r0, r8, lsl #6
     558:	00000310 	andeq	r0, r0, r0, lsl r3
     55c:	100a0004 	andne	r0, sl, r4
     560:	00009f27 	andeq	r9, r0, r7, lsr #30
     564:	00000000 	andeq	r0, r0, r0
     568:	03040000 	movweq	r0, #16384	; 0x4000
     56c:	03080000 	movweq	r0, #32768	; 0x8000
     570:	00010000 	andeq	r0, r1, r0
     574:	00000051 	andeq	r0, r0, r1, asr r0
     578:	00000000 	andeq	r0, r0, r0
     57c:	00030400 	andeq	r0, r3, r0, lsl #8
     580:	00030800 	andeq	r0, r3, r0, lsl #16
     584:	9e000a00 	vmlals.f32	s0, s0, s0
     588:	c2082408 	andgt	r2, r8, #8, 8	; 0x8000000
     58c:	00000001 	andeq	r0, r0, r1
	...
     598:	00031800 	andeq	r1, r3, r0, lsl #16
     59c:	00031c00 	andeq	r1, r3, r0, lsl #24
     5a0:	9e000a00 	vmlals.f32	s0, s0, s0
     5a4:	c20ac408 	andgt	ip, sl, #8, 8	; 0x8000000
     5a8:	00000001 	andeq	r0, r0, r1
	...
     5b4:	00032000 	andeq	r2, r3, r0
     5b8:	00032800 	andeq	r2, r3, r0, lsl #16
     5bc:	53000100 	movwpl	r0, #256	; 0x100
	...
     5c8:	00000390 	muleq	r0, r0, r3
     5cc:	000003a0 	andeq	r0, r0, r0, lsr #7
     5d0:	049e0006 	ldreq	r0, [lr], #6
     5d4:	d1303333 	teqle	r0, r3, lsr r3
	...
     5e0:	00000390 	muleq	r0, r0, r3
     5e4:	000003a0 	andeq	r0, r0, r0, lsr #7
     5e8:	089e000a 	ldmeq	lr, {r1, r3}
     5ec:	01c20290 			; <UNDEFINED> instruction: 0x01c20290
	...
     5fc:	000003ac 	andeq	r0, r0, ip, lsr #7
     600:	000003b0 			; <UNDEFINED> instruction: 0x000003b0
     604:	00530001 	subseq	r0, r3, r1
     608:	00000000 	andeq	r0, r0, r0
     60c:	ac000000 	stcge	0, cr0, [r0], {-0}
     610:	b0000003 	andlt	r0, r0, r3
     614:	0a000003 	beq	628 <__spl_size-0x127c>
     618:	20089e00 	andcs	r9, r8, r0, lsl #28
     61c:	0001c200 	andeq	ip, r1, r0, lsl #4
	...
     628:	b0000000 	andlt	r0, r0, r0
     62c:	b4000003 	strlt	r0, [r0], #-3
     630:	0a000003 	beq	644 <__spl_size-0x1260>
     634:	20089e00 	andcs	r9, r8, r0, lsl #28
     638:	0001c200 	andeq	ip, r1, r0, lsl #4
	...
     644:	c0000000 	andgt	r0, r0, r0
     648:	c4000003 	strgt	r0, [r0], #-3
     64c:	0a000003 	beq	660 <__spl_size-0x1244>
     650:	20089e00 	andcs	r9, r8, r0, lsl #28
     654:	0001c200 	andeq	ip, r1, r0, lsl #4
	...
     660:	bc000000 	stclt	0, cr0, [r0], {-0}
     664:	00000003 	andeq	r0, r0, r3
     668:	01000004 	tsteq	r0, r4
     66c:	00005100 	andeq	r5, r0, r0, lsl #2
     670:	00000000 	andeq	r0, r0, r0
     674:	03bc0000 			; <UNDEFINED> instruction: 0x03bc0000
     678:	07180000 	ldreq	r0, [r8, -r0]
     67c:	000a0000 	andeq	r0, sl, r0
     680:	0020089e 	mlaeq	r0, lr, r8, r0
     684:	000001c2 	andeq	r0, r0, r2, asr #3
     688:	07500000 	ldrbeq	r0, [r0, -r0]
     68c:	08c80000 	stmiaeq	r8, {}^	; <UNPREDICTABLE>
     690:	000a0000 	andeq	r0, sl, r0
     694:	0020089e 	mlaeq	r0, lr, r8, r0
     698:	000001c2 	andeq	r0, r0, r2, asr #3
     69c:	08e00000 	stmiaeq	r0!, {}^	; <UNPREDICTABLE>
     6a0:	096c0000 	stmdbeq	ip!, {}^	; <UNPREDICTABLE>
     6a4:	000a0000 	andeq	r0, sl, r0
     6a8:	0020089e 	mlaeq	r0, lr, r8, r0
     6ac:	000001c2 	andeq	r0, r0, r2, asr #3
	...
     6b8:	03cc0000 	biceq	r0, ip, #0
     6bc:	03d80000 	bicseq	r0, r8, #0
     6c0:	00020000 	andeq	r0, r2, r0
     6c4:	00009f35 	andeq	r9, r0, r5, lsr pc
     6c8:	00000000 	andeq	r0, r0, r0
     6cc:	03cc0000 	biceq	r0, ip, #0
     6d0:	03d80000 	bicseq	r0, r8, #0
     6d4:	00040000 	andeq	r0, r4, r0
     6d8:	9f27100a 	svcls	0x0027100a
	...
     6e4:	000003d8 	ldrdeq	r0, [r0], -r8
     6e8:	000003dc 	ldrdeq	r0, [r0], -ip
     6ec:	089e000a 	ldmeq	lr, {r1, r3}
     6f0:	01c20060 	biceq	r0, r2, r0, rrx
	...
     700:	00000418 	andeq	r0, r0, r8, lsl r4
     704:	0000041c 	andeq	r0, r0, ip, lsl r4
     708:	049e0006 	ldreq	r0, [lr], #6
     70c:	b7ceedc2 	strblt	lr, [lr, r2, asr #27]
	...
     718:	00000418 	andeq	r0, r0, r8, lsl r4
     71c:	0000041c 	andeq	r0, r0, ip, lsl r4
     720:	089e000a 	ldmeq	lr, {r1, r3}
     724:	01c01004 	biceq	r1, r0, r4
	...
     734:	000003e4 	andeq	r0, r0, r4, ror #7
     738:	000003e8 	andeq	r0, r0, r8, ror #7
     73c:	00520001 	subseq	r0, r2, r1
     740:	00000000 	andeq	r0, r0, r0
     744:	e4000000 	str	r0, [r0], #-0
     748:	e8000003 	stmda	r0, {r0, r1}
     74c:	0a000003 	beq	760 <__spl_size-0x1144>
     750:	60089e00 	andvs	r9, r8, r0, lsl #28
     754:	0001c200 	andeq	ip, r1, r0, lsl #4
	...
     760:	e8000000 	stmda	r0, {}	; <UNPREDICTABLE>
     764:	ec000003 	stc	0, cr0, [r0], {3}
     768:	0a000003 	beq	77c <__spl_size-0x1128>
     76c:	c0089e00 	andgt	r9, r8, r0, lsl #28
     770:	0001c202 	andeq	ip, r1, r2, lsl #4
	...
     77c:	f4000000 	vst4.8	{d0-d3}, [r0], r0
     780:	f8000003 			; <UNDEFINED> instruction: 0xf8000003
     784:	01000003 	tsteq	r0, r3
     788:	00005200 	andeq	r5, r0, r0, lsl #4
     78c:	00000000 	andeq	r0, r0, r0
     790:	03f40000 	mvnseq	r0, #0
     794:	03f80000 	mvnseq	r0, #0
     798:	000a0000 	andeq	r0, sl, r0
     79c:	02c0089e 	sbceq	r0, r0, #10354688	; 0x9e0000
     7a0:	000001c2 	andeq	r0, r0, r2, asr #3
	...
     7ac:	03f80000 	mvnseq	r0, #0
     7b0:	03fc0000 	mvnseq	r0, #0
     7b4:	000a0000 	andeq	r0, sl, r0
     7b8:	02c0089e 	sbceq	r0, r0, #10354688	; 0x9e0000
     7bc:	000001c2 	andeq	r0, r0, r2, asr #3
	...
     7c8:	041c0000 	ldreq	r0, [ip], #-0
     7cc:	04200000 	strteq	r0, [r0], #-0
     7d0:	00060000 	andeq	r0, r6, r0
     7d4:	a700080c 	strge	r0, [r0, -ip, lsl #16]
     7d8:	00009f00 	andeq	r9, r0, r0, lsl #30
     7dc:	00000000 	andeq	r0, r0, r0
     7e0:	041c0000 	ldreq	r0, [ip], #-0
     7e4:	04200000 	strteq	r0, [r0], #-0
     7e8:	000a0000 	andeq	r0, sl, r0
     7ec:	1008089e 	mulne	r8, lr, r8
     7f0:	000001c0 	andeq	r0, r0, r0, asr #3
	...
     7fc:	04040000 	streq	r0, [r4], #-0
     800:	04080000 	streq	r0, [r8], #-0
     804:	00010000 	andeq	r0, r1, r0
     808:	00000052 	andeq	r0, r0, r2, asr r0
     80c:	00000000 	andeq	r0, r0, r0
     810:	00040400 	andeq	r0, r4, r0, lsl #8
     814:	00040800 	andeq	r0, r4, r0, lsl #16
     818:	9e000a00 	vmlals.f32	s0, s0, s0
     81c:	c202c008 	andgt	ip, r2, #8
     820:	00000001 	andeq	r0, r0, r1
	...
     82c:	00040800 	andeq	r0, r4, r0, lsl #16
     830:	00040c00 	andeq	r0, r4, r0, lsl #24
     834:	9e000a00 	vmlals.f32	s0, s0, s0
     838:	c20ac408 	andgt	ip, sl, #8, 8	; 0x8000000
     83c:	00000001 	andeq	r0, r0, r1
	...
     848:	00041400 	andeq	r1, r4, r0, lsl #8
     84c:	00041800 	andeq	r1, r4, r0, lsl #16
     850:	52000100 	andpl	r0, r0, #0, 2
	...
     85c:	00000414 	andeq	r0, r0, r4, lsl r4
     860:	00000418 	andeq	r0, r0, r8, lsl r4
     864:	089e000a 	ldmeq	lr, {r1, r3}
     868:	01c20ac4 	biceq	r0, r2, r4, asr #21
	...
     878:	00000424 	andeq	r0, r0, r4, lsr #8
     87c:	00000718 	andeq	r0, r0, r8, lsl r7
     880:	505d0001 	subspl	r0, sp, r1
     884:	c8000007 	stmdagt	r0, {r0, r1, r2}
     888:	01000008 	tsteq	r0, r8
     88c:	08e05d00 	stmiaeq	r0!, {r8, sl, fp, ip, lr}^
     890:	096c0000 	stmdbeq	ip!, {}^	; <UNPREDICTABLE>
     894:	00010000 	andeq	r0, r1, r0
     898:	0000005d 	andeq	r0, r0, sp, asr r0
     89c:	00000000 	andeq	r0, r0, r0
     8a0:	00043c00 	andeq	r3, r4, r0, lsl #24
     8a4:	00044800 	andeq	r4, r4, r0, lsl #16
     8a8:	52000100 	andpl	r0, r0, #0, 2
     8ac:	00000448 	andeq	r0, r0, r8, asr #8
     8b0:	00000450 	andeq	r0, r0, r0, asr r4
     8b4:	0c710002 	ldcleq	0, cr0, [r1], #-8
	...
     8c0:	00000424 	andeq	r0, r0, r4, lsr #8
     8c4:	00000430 	andeq	r0, r0, r0, lsr r4
     8c8:	9f300002 	svcls	0x00300002
     8cc:	00000430 	andeq	r0, r0, r0, lsr r4
     8d0:	000004a8 	andeq	r0, r0, r8, lsr #9
     8d4:	005c0001 	subseq	r0, ip, r1
     8d8:	00000000 	andeq	r0, r0, r0
     8dc:	24000000 	strcs	r0, [r0], #-0
     8e0:	30000004 	andcc	r0, r0, r4
     8e4:	02000004 	andeq	r0, r0, #4
     8e8:	009f3000 	addseq	r3, pc, r0
     8ec:	00000000 	andeq	r0, r0, r0
     8f0:	30000000 	andcc	r0, r0, r0
     8f4:	34000004 	strcc	r0, [r0], #-4
     8f8:	0a000004 	beq	910 <__spl_size-0xf94>
     8fc:	0c089e00 	stceq	14, cr9, [r8], {-0}
     900:	0001c010 	andeq	ip, r1, r0, lsl r0
	...
     90c:	44000000 	strmi	r0, [r0], #-0
     910:	54000004 	strpl	r0, [r0], #-4
     914:	06000004 	streq	r0, [r0], -r4
     918:	ffff0c00 			; <UNDEFINED> instruction: 0xffff0c00
     91c:	009f00ff 	ldrsheq	r0, [pc], pc	; <UNPREDICTABLE>
     920:	00000000 	andeq	r0, r0, r0
     924:	4c000000 	stcmi	0, cr0, [r0], {-0}
     928:	54000004 	strpl	r0, [r0], #-4
     92c:	01000004 	tsteq	r0, r4
     930:	04545200 	ldrbeq	r5, [r4], #-512	; 0xfffffe00
     934:	04880000 	streq	r0, [r8], #0
     938:	00020000 	andeq	r0, r2, r0
     93c:	04882471 	streq	r2, [r8], #1137	; 0x471
     940:	04ac0000 	strteq	r0, [ip], #0
     944:	00020000 	andeq	r0, r2, r0
     948:	00002474 	andeq	r2, r0, r4, ror r4
     94c:	00000000 	andeq	r0, r0, r0
     950:	044c0000 	strbeq	r0, [ip], #-0
     954:	07180000 	ldreq	r0, [r8, -r0]
     958:	000a0000 	andeq	r0, sl, r0
     95c:	1024089e 	mlane	r4, lr, r8, r0
     960:	000001c0 	andeq	r0, r0, r0, asr #3
     964:	07500000 	ldrbeq	r0, [r0, -r0]
     968:	08c80000 	stmiaeq	r8, {}^	; <UNPREDICTABLE>
     96c:	000a0000 	andeq	r0, sl, r0
     970:	1024089e 	mlane	r4, lr, r8, r0
     974:	000001c0 	andeq	r0, r0, r0, asr #3
     978:	08e00000 	stmiaeq	r0!, {}^	; <UNPREDICTABLE>
     97c:	096c0000 	stmdbeq	ip!, {}^	; <UNPREDICTABLE>
     980:	000a0000 	andeq	r0, sl, r0
     984:	1024089e 	mlane	r4, lr, r8, r0
     988:	000001c0 	andeq	r0, r0, r0, asr #3
	...
     994:	04440000 	strbeq	r0, [r4], #-0
     998:	04480000 	strbeq	r0, [r8], #-0
     99c:	000a0000 	andeq	r0, sl, r0
     9a0:	1024089e 	mlane	r4, lr, r8, r0
     9a4:	000001c0 	andeq	r0, r0, r0, asr #3
	...
     9b0:	045c0000 	ldrbeq	r0, [ip], #-0
     9b4:	04600000 	strbteq	r0, [r0], #-0
     9b8:	000a0000 	andeq	r0, sl, r0
     9bc:	1024089e 	mlane	r4, lr, r8, r0
     9c0:	000001c0 	andeq	r0, r0, r0, asr #3
	...
     9cc:	04400000 	strbeq	r0, [r0], #-0
     9d0:	04440000 	strbeq	r0, [r4], #-0
     9d4:	00010000 	andeq	r0, r1, r0
     9d8:	00000052 	andeq	r0, r0, r2, asr r0
     9dc:	00000000 	andeq	r0, r0, r0
     9e0:	00044000 	andeq	r4, r4, r0
     9e4:	00044400 	andeq	r4, r4, r0, lsl #8
     9e8:	9e000a00 	vmlals.f32	s0, s0, s0
     9ec:	c0100c08 	andsgt	r0, r0, r8, lsl #24
     9f0:	00000001 	andeq	r0, r0, r1
	...
     9fc:	00046800 	andeq	r6, r4, r0, lsl #16
     a00:	00046c00 	andeq	r6, r4, r0, lsl #24
     a04:	9e000a00 	vmlals.f32	s0, s0, s0
     a08:	c0102408 	andsgt	r2, r0, r8, lsl #8
     a0c:	00000001 	andeq	r0, r0, r1
	...
     a18:	0004a800 	andeq	sl, r4, r0, lsl #16
     a1c:	0004ac00 	andeq	sl, r4, r0, lsl #24
     a20:	53000100 	movwpl	r0, #256	; 0x100
	...
     a2c:	000004a8 	andeq	r0, r0, r8, lsr #9
     a30:	000004ac 	andeq	r0, r0, ip, lsr #9
     a34:	089e000a 	ldmeq	lr, {r1, r3}
     a38:	01c20ac4 	biceq	r0, r2, r4, asr #21
	...
     a48:	000004b4 			; <UNDEFINED> instruction: 0x000004b4
     a4c:	000004d0 	ldrdeq	r0, [r0], -r0	; <UNPREDICTABLE>
     a50:	d0530001 	subsle	r0, r3, r1
     a54:	dc000004 	stcle	0, cr0, [r0], {4}
     a58:	02000004 	andeq	r0, r0, #4
     a5c:	b8489100 	stmdalt	r8, {r8, ip, pc}^
     a60:	e8000007 	stmda	r0, {r0, r1, r2}
     a64:	01000007 	tsteq	r0, r7
     a68:	07e85300 	strbeq	r5, [r8, r0, lsl #6]!
     a6c:	07fc0000 	ldrbeq	r0, [ip, r0]!
     a70:	00020000 	andeq	r0, r2, r0
     a74:	07fc4891 			; <UNDEFINED> instruction: 0x07fc4891
     a78:	08300000 	ldmdaeq	r0!, {}	; <UNPREDICTABLE>
     a7c:	00010000 	andeq	r0, r1, r0
     a80:	00083053 	andeq	r3, r8, r3, asr r0
     a84:	00084400 	andeq	r4, r8, r0, lsl #8
     a88:	91000200 	mrsls	r0, R8_usr
     a8c:	00088c48 	andeq	r8, r8, r8, asr #24
     a90:	00089800 	andeq	r9, r8, r0, lsl #16
     a94:	53000100 	movwpl	r0, #256	; 0x100
     a98:	00000898 	muleq	r0, r8, r8
     a9c:	000008a0 	andeq	r0, r0, r0, lsr #17
     aa0:	48910002 	ldmmi	r1, {r1}
     aa4:	000008e0 	andeq	r0, r0, r0, ror #17
     aa8:	000008ec 	andeq	r0, r0, ip, ror #17
     aac:	ec530001 	mrrc	0, 0, r0, r3, cr1
     ab0:	f4000008 	vst4.8	{d0-d3}, [r0], r8
     ab4:	02000008 	andeq	r0, r0, #8
     ab8:	00489100 	subeq	r9, r8, r0, lsl #2
     abc:	00000000 	andeq	r0, r0, r0
     ac0:	b4000000 	strlt	r0, [r0], #-0
     ac4:	d0000004 	andle	r0, r0, r4
     ac8:	02000004 	andeq	r0, r0, #4
     acc:	d09f3000 	addsle	r3, pc, r0
     ad0:	dc000004 	stcle	0, cr0, [r0], {4}
     ad4:	01000004 	tsteq	r0, r4
     ad8:	07b85300 	ldreq	r5, [r8, r0, lsl #6]!
     adc:	07e80000 	strbeq	r0, [r8, r0]!
     ae0:	00020000 	andeq	r0, r2, r0
     ae4:	07e89f30 			; <UNDEFINED> instruction: 0x07e89f30
     ae8:	07fc0000 	ldrbeq	r0, [ip, r0]!
     aec:	00010000 	andeq	r0, r1, r0
     af0:	0007fc53 	andeq	pc, r7, r3, asr ip	; <UNPREDICTABLE>
     af4:	00083000 	andeq	r3, r8, r0
     af8:	30000200 	andcc	r0, r0, r0, lsl #4
     afc:	0008309f 	muleq	r8, pc, r0	; <UNPREDICTABLE>
     b00:	00084400 	andeq	r4, r8, r0, lsl #8
     b04:	53000100 	movwpl	r0, #256	; 0x100
     b08:	0000088c 	andeq	r0, r0, ip, lsl #17
     b0c:	0000089c 	muleq	r0, ip, r8
     b10:	9f300002 	svcls	0x00300002
     b14:	0000089c 	muleq	r0, ip, r8
     b18:	000008a0 	andeq	r0, r0, r0, lsr #17
     b1c:	e0530001 	subs	r0, r3, r1
     b20:	f0000008 			; <UNDEFINED> instruction: 0xf0000008
     b24:	02000008 	andeq	r0, r0, #8
     b28:	f09f3000 			; <UNDEFINED> instruction: 0xf09f3000
     b2c:	f4000008 	vst4.8	{d0-d3}, [r0], r8
     b30:	01000008 	tsteq	r0, r8
     b34:	00005300 	andeq	r5, r0, r0, lsl #6
     b38:	00000000 	andeq	r0, r0, r0
     b3c:	04b40000 	ldrteq	r0, [r4], #0
     b40:	04b80000 	ldrteq	r0, [r8], #0
     b44:	00070000 	andeq	r0, r7, r0
     b48:	e00a0072 	and	r0, sl, r2, ror r0
     b4c:	bc9f1a01 	vldmialt	pc, {s2}
     b50:	cc000004 	stcgt	0, cr0, [r0], {4}
     b54:	01000004 	tsteq	r0, r4
     b58:	07b85200 	ldreq	r5, [r8, r0, lsl #4]!
     b5c:	07bc0000 	ldreq	r0, [ip, r0]!
     b60:	00010000 	andeq	r0, r1, r0
     b64:	0007fc52 	andeq	pc, r7, r2, asr ip	; <UNPREDICTABLE>
     b68:	00080000 	andeq	r0, r8, r0
     b6c:	52000100 	andpl	r0, r0, #0, 2
     b70:	00000800 	andeq	r0, r0, r0, lsl #16
     b74:	00000804 	andeq	r0, r0, r4, lsl #16
     b78:	80720005 	rsbshi	r0, r2, r5
     b7c:	049f4380 	ldreq	r4, [pc], #896	; b84 <__spl_size-0xd20>
     b80:	10000008 	andne	r0, r0, r8
     b84:	05000008 	streq	r0, [r0, #-8]
     b88:	fbcc7200 	blx	ff31d392 <__stack_srv_end+0x7da9b78a>
     b8c:	08e09f42 	stmiaeq	r0!, {r1, r6, r8, r9, sl, fp, ip, pc}^
     b90:	08e40000 	stmiaeq	r4!, {}^	; <UNPREDICTABLE>
     b94:	00050000 	andeq	r0, r5, r0
     b98:	42fbcc72 	rscsmi	ip, fp, #29184	; 0x7200
     b9c:	0000009f 	muleq	r0, pc, r0	; <UNPREDICTABLE>
     ba0:	00000000 	andeq	r0, r0, r0
     ba4:	0004b400 	andeq	fp, r4, r0, lsl #8
     ba8:	0004cc00 	andeq	ip, r4, r0, lsl #24
     bac:	30000200 	andcc	r0, r0, r0, lsl #4
     bb0:	0007b89f 	muleq	r7, pc, r8	; <UNPREDICTABLE>
     bb4:	0007d800 	andeq	sp, r7, r0, lsl #16
     bb8:	30000200 	andcc	r0, r0, r0, lsl #4
     bbc:	0007d89f 	muleq	r7, pc, r8	; <UNPREDICTABLE>
     bc0:	0007fc00 	andeq	pc, r7, r0, lsl #24
     bc4:	52000100 	andpl	r0, r0, #0, 2
     bc8:	000007fc 	strdeq	r0, [r0], -ip
     bcc:	00000820 	andeq	r0, r0, r0, lsr #16
     bd0:	9f300002 	svcls	0x00300002
     bd4:	00000820 	andeq	r0, r0, r0, lsr #16
     bd8:	00000844 	andeq	r0, r0, r4, asr #16
     bdc:	8c520001 	mrrchi	0, 0, r0, r2, cr1
     be0:	a0000008 	andge	r0, r0, r8
     be4:	02000008 	andeq	r0, r0, #8
     be8:	e09f3000 	adds	r3, pc, r0
     bec:	f4000008 	vst4.8	{d0-d3}, [r0], r8
     bf0:	02000008 	andeq	r0, r0, #8
     bf4:	009f3000 	addseq	r3, pc, r0
     bf8:	00000000 	andeq	r0, r0, r0
     bfc:	d0000000 	andle	r0, r0, r0
     c00:	dc000004 	stcle	0, cr0, [r0], {4}
     c04:	01000004 	tsteq	r0, r4
     c08:	00005300 	andeq	r5, r0, r0, lsl #6
     c0c:	00000000 	andeq	r0, r0, r0
     c10:	04d00000 	ldrbeq	r0, [r0], #0
     c14:	04dc0000 	ldrbeq	r0, [ip], #0
     c18:	000a0000 	andeq	r0, sl, r0
     c1c:	1010089e 	mulsne	r0, lr, r8
     c20:	000001c0 	andeq	r0, r0, r0, asr #3
	...
     c2c:	04e00000 	strbteq	r0, [r0], #0
     c30:	07180000 	ldreq	r0, [r8, -r0]
     c34:	00010000 	andeq	r0, r1, r0
     c38:	0007505d 	andeq	r5, r7, sp, asr r0
     c3c:	0007b800 	andeq	fp, r7, r0, lsl #16
     c40:	5d000100 	stfpls	f0, [r0, #-0]
     c44:	00000844 	andeq	r0, r0, r4, asr #16
     c48:	0000088c 	andeq	r0, r0, ip, lsl #17
     c4c:	a05d0001 	subsge	r0, sp, r1
     c50:	c8000008 	stmdagt	r0, {r3}
     c54:	01000008 	tsteq	r0, r8
     c58:	08f45d00 	ldmeq	r4!, {r8, sl, fp, ip, lr}^
     c5c:	096c0000 	stmdbeq	ip!, {}^	; <UNPREDICTABLE>
     c60:	00010000 	andeq	r0, r1, r0
     c64:	0000005d 	andeq	r0, r0, sp, asr r0
     c68:	00000000 	andeq	r0, r0, r0
     c6c:	0004e000 	andeq	lr, r4, r0
     c70:	00060400 	andeq	r0, r6, r0, lsl #8
     c74:	3a000200 	bcc	147c <__spl_size-0x428>
     c78:	0007949f 	muleq	r7, pc, r4	; <UNPREDICTABLE>
     c7c:	0007b800 	andeq	fp, r7, r0, lsl #16
     c80:	39000200 	stmdbcc	r0, {r9}
     c84:	0000009f 	muleq	r0, pc, r0	; <UNPREDICTABLE>
     c88:	00000000 	andeq	r0, r0, r0
     c8c:	0004e000 	andeq	lr, r4, r0
     c90:	00067000 	andeq	r7, r6, r0
     c94:	3d000200 	sfmcc	f0, 4, [r0, #-0]
     c98:	0007009f 	muleq	r7, pc, r0	; <UNPREDICTABLE>
     c9c:	00071800 	andeq	r1, r7, r0, lsl #16
     ca0:	3c000200 	sfmcc	f0, 4, [r0], {-0}
     ca4:	0007949f 	muleq	r7, pc, r4	; <UNPREDICTABLE>
     ca8:	0007b800 	andeq	fp, r7, r0, lsl #16
     cac:	3d000200 	sfmcc	f0, 4, [r0, #-0]
     cb0:	0008f49f 	muleq	r8, pc, r4	; <UNPREDICTABLE>
     cb4:	00096c00 	andeq	r6, r9, r0, lsl #24
     cb8:	3d000200 	sfmcc	f0, 4, [r0, #-0]
     cbc:	0000009f 	muleq	r0, pc, r0	; <UNPREDICTABLE>
     cc0:	00000000 	andeq	r0, r0, r0
     cc4:	0004e000 	andeq	lr, r4, r0
     cc8:	0005a000 	andeq	sl, r5, r0
     ccc:	30000200 	andcc	r0, r0, r0, lsl #4
     cd0:	0005a09f 	muleq	r5, pc, r0	; <UNPREDICTABLE>
     cd4:	0005a800 	andeq	sl, r5, r0, lsl #16
     cd8:	73000700 	movwvc	r0, #1792	; 0x700
     cdc:	fffffc80 			; <UNDEFINED> instruction: 0xfffffc80
     ce0:	05a89f07 	streq	r9, [r8, #3847]!	; 0xf07
     ce4:	05ac0000 	streq	r0, [ip, #0]!
     ce8:	00070000 	andeq	r0, r7, r0
     cec:	fffc8173 			; <UNDEFINED> instruction: 0xfffc8173
     cf0:	ac9f07ff 	ldcge	7, cr0, [pc], {255}	; 0xff
     cf4:	b8000005 	stmdalt	r0, {r0, r2}
     cf8:	07000005 	streq	r0, [r0, -r5]
     cfc:	fc807300 	stc2	3, cr7, [r0], {0}
     d00:	9f07ffff 	svcls	0x0007ffff
     d04:	000005c4 	andeq	r0, r0, r4, asr #11
     d08:	000005cc 	andeq	r0, r0, ip, asr #11
     d0c:	80730007 	rsbshi	r0, r3, r7
     d10:	07fffffc 			; <UNDEFINED> instruction: 0x07fffffc
     d14:	0005cc9f 	muleq	r5, pc, ip	; <UNPREDICTABLE>
     d18:	0005d400 	andeq	sp, r5, r0, lsl #8
     d1c:	73000700 	movwvc	r0, #1792	; 0x700
     d20:	fffffbff 			; <UNDEFINED> instruction: 0xfffffbff
     d24:	05d49f07 	ldrbeq	r9, [r4, #3847]	; 0xf07
     d28:	05e80000 	strbeq	r0, [r8, #0]!
     d2c:	00070000 	andeq	r0, r7, r0
     d30:	fffc8073 			; <UNDEFINED> instruction: 0xfffc8073
     d34:	049f07ff 	ldreq	r0, [pc], #2047	; d3c <__spl_size-0xb68>
     d38:	18000006 	stmdane	r0, {r1, r2}
     d3c:	02000006 	andeq	r0, r0, #6
     d40:	349f3000 	ldrcc	r3, [pc], #0	; d48 <__spl_size-0xb5c>
     d44:	44000006 	strmi	r0, [r0], #-6
     d48:	02000006 	andeq	r0, r0, #6
     d4c:	449f3000 	ldrmi	r3, [pc], #0	; d54 <__spl_size-0xb50>
     d50:	18000006 	stmdane	r0, {r1, r2}
     d54:	02000007 	andeq	r0, r0, #7
     d58:	509f3100 	addspl	r3, pc, r0, lsl #2
     d5c:	94000007 	strls	r0, [r0], #-7
     d60:	02000007 	andeq	r0, r0, #7
     d64:	949f3100 	ldrls	r3, [pc], #256	; d6c <__spl_size-0xb38>
     d68:	98000007 	stmdals	r0, {r0, r1, r2}
     d6c:	07000007 	streq	r0, [r0, -r7]
     d70:	fc807300 	stc2	3, cr7, [r0], {0}
     d74:	9f07ffff 	svcls	0x0007ffff
     d78:	00000844 	andeq	r0, r0, r4, asr #16
     d7c:	0000088c 	andeq	r0, r0, ip, lsl #17
     d80:	9f310002 	svcls	0x00310002
     d84:	000008a0 	andeq	r0, r0, r0, lsr #17
     d88:	000008c8 	andeq	r0, r0, r8, asr #17
     d8c:	9f310002 	svcls	0x00310002
     d90:	000008f4 	strdeq	r0, [r0], -r4
     d94:	0000096c 	andeq	r0, r0, ip, ror #18
     d98:	9f310002 	svcls	0x00310002
	...
     da4:	000004e0 	andeq	r0, r0, r0, ror #9
     da8:	000005c4 	andeq	r0, r0, r4, asr #11
     dac:	9f300002 	svcls	0x00300002
     db0:	000005c4 	andeq	r0, r0, r4, asr #11
     db4:	000005cc 	andeq	r0, r0, ip, asr #11
     db8:	00730002 	rsbseq	r0, r3, r2
     dbc:	000005cc 	andeq	r0, r0, ip, asr #11
     dc0:	000005fb 	strdeq	r0, [r0], -fp
     dc4:	34520001 	ldrbcc	r0, [r2], #-1
     dc8:	3c000006 	stccc	0, cr0, [r0], {6}
     dcc:	02000006 	andeq	r0, r0, #6
     dd0:	3c007200 	sfmcc	f7, 4, [r0], {-0}
     dd4:	94000006 	strls	r0, [r0], #-6
     dd8:	01000006 	tsteq	r0, r6
     ddc:	07005100 	streq	r5, [r0, -r0, lsl #2]
     de0:	07180000 	ldreq	r0, [r8, -r0]
     de4:	00010000 	andeq	r0, r1, r0
     de8:	00075051 	andeq	r5, r7, r1, asr r0
     dec:	00076800 	andeq	r6, r7, r0, lsl #16
     df0:	51000100 	mrspl	r0, (UNDEF: 16)
     df4:	00000794 	muleq	r0, r4, r7
     df8:	000007ab 	andeq	r0, r0, fp, lsr #15
     dfc:	44520001 	ldrbmi	r0, [r2], #-1
     e00:	60000008 	andvs	r0, r0, r8
     e04:	01000008 	tsteq	r0, r8
     e08:	08a05100 	stmiaeq	r0!, {r8, ip, lr}
     e0c:	08c80000 	stmiaeq	r8, {}^	; <UNPREDICTABLE>
     e10:	00010000 	andeq	r0, r1, r0
     e14:	0008f451 	andeq	pc, r8, r1, asr r4	; <UNPREDICTABLE>
     e18:	00096c00 	andeq	r6, r9, r0, lsl #24
     e1c:	51000100 	mrspl	r0, (UNDEF: 16)
	...
     e28:	000004e0 	andeq	r0, r0, r0, ror #9
     e2c:	000005c4 	andeq	r0, r0, r4, asr #11
     e30:	9f300002 	svcls	0x00300002
     e34:	000005c4 	andeq	r0, r0, r4, asr #11
     e38:	000005e4 	andeq	r0, r0, r4, ror #11
     e3c:	e45c0001 	ldrb	r0, [ip], #-1
     e40:	34000005 	strcc	r0, [r0], #-5
     e44:	02000006 	andeq	r0, r0, #6
     e48:	349f3000 	ldrcc	r3, [pc], #0	; e50 <__spl_size-0xa54>
     e4c:	af000006 	svcge	0x00000006
     e50:	01000006 	tsteq	r0, r6
     e54:	07005c00 	streq	r5, [r0, -r0, lsl #24]
     e58:	07180000 	ldreq	r0, [r8, -r0]
     e5c:	00010000 	andeq	r0, r1, r0
     e60:	0007505c 	andeq	r5, r7, ip, asr r0
     e64:	00079400 	andeq	r9, r7, r0, lsl #8
     e68:	5c000100 	stfpls	f0, [r0], {-0}
     e6c:	00000794 	muleq	r0, r4, r7
     e70:	000007b8 			; <UNDEFINED> instruction: 0x000007b8
     e74:	9f300002 	svcls	0x00300002
     e78:	00000844 	andeq	r0, r0, r4, asr #16
     e7c:	0000088c 	andeq	r0, r0, ip, lsl #17
     e80:	a05c0001 	subsge	r0, ip, r1
     e84:	c8000008 	stmdagt	r0, {r3}
     e88:	01000008 	tsteq	r0, r8
     e8c:	08f45c00 	ldmeq	r4!, {sl, fp, ip, lr}^
     e90:	096c0000 	stmdbeq	ip!, {}^	; <UNPREDICTABLE>
     e94:	00010000 	andeq	r0, r1, r0
     e98:	0000005c 	andeq	r0, r0, ip, asr r0
     e9c:	00000000 	andeq	r0, r0, r0
     ea0:	00060400 	andeq	r0, r6, r0, lsl #8
     ea4:	00063400 	andeq	r3, r6, r0, lsl #8
     ea8:	52000100 	andpl	r0, r0, #0, 2
	...
     eb4:	00000604 	andeq	r0, r0, r4, lsl #12
     eb8:	00000610 	andeq	r0, r0, r0, lsl r6
     ebc:	00510001 	subseq	r0, r1, r1
     ec0:	00000000 	andeq	r0, r0, r0
     ec4:	30000000 	andcc	r0, r0, r0
     ec8:	88000005 	stmdahi	r0, {r0, r2}
     ecc:	01000005 	tsteq	r0, r5
     ed0:	00005d00 	andeq	r5, r0, r0, lsl #26
     ed4:	00000000 	andeq	r0, r0, r0
     ed8:	054c0000 	strbeq	r0, [ip, #-0]
     edc:	05500000 	ldrbeq	r0, [r0, #-0]
     ee0:	00010000 	andeq	r0, r1, r0
     ee4:	00000053 	andeq	r0, r0, r3, asr r0
     ee8:	00000000 	andeq	r0, r0, r0
     eec:	00054c00 	andeq	r4, r5, r0, lsl #24
     ef0:	00055000 	andeq	r5, r5, r0
     ef4:	9e000a00 	vmlals.f32	s0, s0, s0
     ef8:	c0100008 	andsgt	r0, r0, r8
     efc:	00000001 	andeq	r0, r0, r1
	...
     f08:	00055000 	andeq	r5, r5, r0
     f0c:	00055400 	andeq	r5, r5, r0, lsl #8
     f10:	9e000a00 	vmlals.f32	s0, s0, s0
     f14:	c0100c08 	andsgt	r0, r0, r8, lsl #24
     f18:	00000001 	andeq	r0, r0, r1
	...
     f24:	00056000 	andeq	r6, r5, r0
     f28:	00057400 	andeq	r7, r5, r0, lsl #8
     f2c:	0c000600 	stceq	6, cr0, [r0], {-0}
     f30:	00ffffff 	ldrshteq	pc, [pc], #255	; <UNPREDICTABLE>
     f34:	0000009f 	muleq	r0, pc, r0	; <UNPREDICTABLE>
     f38:	00000000 	andeq	r0, r0, r0
     f3c:	00057c00 	andeq	r7, r5, r0, lsl #24
     f40:	00058000 	andeq	r8, r5, r0
     f44:	9e000a00 	vmlals.f32	s0, s0, s0
     f48:	c0100c08 	andsgt	r0, r0, r8, lsl #24
     f4c:	00000001 	andeq	r0, r0, r1
	...
     f58:	00056000 	andeq	r6, r5, r0
     f5c:	00056400 	andeq	r6, r5, r0, lsl #8
     f60:	9e000a00 	vmlals.f32	s0, s0, s0
     f64:	c0100c08 	andsgt	r0, r0, r8, lsl #24
     f68:	00000001 	andeq	r0, r0, r1
	...
     f74:	00056c00 	andeq	r6, r5, r0, lsl #24
     f78:	00058f00 	andeq	r8, r5, r0, lsl #30
     f7c:	5c000100 	stfpls	f0, [r0], {-0}
	...
     f88:	0000056c 	andeq	r0, r0, ip, ror #10
     f8c:	00000718 	andeq	r0, r0, r8, lsl r7
     f90:	089e000a 	ldmeq	lr, {r1, r3}
     f94:	01c0100c 	biceq	r1, r0, ip
     f98:	00000000 	andeq	r0, r0, r0
     f9c:	00000750 	andeq	r0, r0, r0, asr r7
     fa0:	000007b8 			; <UNDEFINED> instruction: 0x000007b8
     fa4:	089e000a 	ldmeq	lr, {r1, r3}
     fa8:	01c0100c 	biceq	r1, r0, ip
     fac:	00000000 	andeq	r0, r0, r0
     fb0:	00000844 	andeq	r0, r0, r4, asr #16
     fb4:	0000088c 	andeq	r0, r0, ip, lsl #17
     fb8:	089e000a 	ldmeq	lr, {r1, r3}
     fbc:	01c0100c 	biceq	r1, r0, ip
     fc0:	00000000 	andeq	r0, r0, r0
     fc4:	000008a0 	andeq	r0, r0, r0, lsr #17
     fc8:	000008c8 	andeq	r0, r0, r8, asr #17
     fcc:	089e000a 	ldmeq	lr, {r1, r3}
     fd0:	01c0100c 	biceq	r1, r0, ip
     fd4:	00000000 	andeq	r0, r0, r0
     fd8:	000008f4 	strdeq	r0, [r0], -r4
     fdc:	0000096c 	andeq	r0, r0, ip, ror #18
     fe0:	089e000a 	ldmeq	lr, {r1, r3}
     fe4:	01c0100c 	biceq	r1, r0, ip
	...
     ff4:	0000055c 	andeq	r0, r0, ip, asr r5
     ff8:	00000560 	andeq	r0, r0, r0, ror #10
     ffc:	00530001 	subseq	r0, r3, r1
    1000:	00000000 	andeq	r0, r0, r0
    1004:	5c000000 	stcpl	0, cr0, [r0], {-0}
    1008:	60000005 	andvs	r0, r0, r5
    100c:	0a000005 	beq	1028 <__spl_size-0x87c>
    1010:	0c089e00 	stceq	14, cr9, [r8], {-0}
    1014:	0001c010 	andeq	ip, r1, r0, lsl r0
	...
    1020:	78000000 	stmdavc	r0, {}	; <UNPREDICTABLE>
    1024:	98000006 	stmdals	r0, {r1, r2}
    1028:	01000006 	tsteq	r0, r6
    102c:	06985300 	ldreq	r5, [r8], r0, lsl #6
    1030:	06a40000 	strteq	r0, [r4], r0
    1034:	00020000 	andeq	r0, r2, r0
    1038:	07504891 			; <UNDEFINED> instruction: 0x07504891
    103c:	07800000 	streq	r0, [r0, r0]
    1040:	00010000 	andeq	r0, r1, r0
    1044:	00078053 	andeq	r8, r7, r3, asr r0
    1048:	00079400 	andeq	r9, r7, r0, lsl #8
    104c:	91000200 	mrsls	r0, R8_usr
    1050:	00084448 	andeq	r4, r8, r8, asr #8
    1054:	00087800 	andeq	r7, r8, r0, lsl #16
    1058:	53000100 	movwpl	r0, #256	; 0x100
    105c:	00000878 	andeq	r0, r0, r8, ror r8
    1060:	0000088c 	andeq	r0, r0, ip, lsl #17
    1064:	48910002 	ldmmi	r1, {r1}
    1068:	000008a0 	andeq	r0, r0, r0, lsr #17
    106c:	000008ac 	andeq	r0, r0, ip, lsr #17
    1070:	ac530001 	mrrcge	0, 0, r0, r3, cr1
    1074:	b4000008 	strlt	r0, [r0], #-8
    1078:	02000008 	andeq	r0, r0, #8
    107c:	b4489100 	strblt	r9, [r8], #-256	; 0xffffff00
    1080:	c0000008 	andgt	r0, r0, r8
    1084:	01000008 	tsteq	r0, r8
    1088:	08c05300 	stmiaeq	r0, {r8, r9, ip, lr}^
    108c:	08c80000 	stmiaeq	r8, {}^	; <UNPREDICTABLE>
    1090:	00020000 	andeq	r0, r2, r0
    1094:	00004891 	muleq	r0, r1, r8
    1098:	00000000 	andeq	r0, r0, r0
    109c:	06780000 	ldrbteq	r0, [r8], -r0
    10a0:	06980000 	ldreq	r0, [r8], r0
    10a4:	00020000 	andeq	r0, r2, r0
    10a8:	06989f30 			; <UNDEFINED> instruction: 0x06989f30
    10ac:	06a40000 	strteq	r0, [r4], r0
    10b0:	00010000 	andeq	r0, r1, r0
    10b4:	00075053 	andeq	r5, r7, r3, asr r0
    10b8:	00078000 	andeq	r8, r7, r0
    10bc:	30000200 	andcc	r0, r0, r0, lsl #4
    10c0:	0007809f 	muleq	r7, pc, r0	; <UNPREDICTABLE>
    10c4:	00079400 	andeq	r9, r7, r0, lsl #8
    10c8:	53000100 	movwpl	r0, #256	; 0x100
    10cc:	00000844 	andeq	r0, r0, r4, asr #16
    10d0:	00000878 	andeq	r0, r0, r8, ror r8
    10d4:	9f300002 	svcls	0x00300002
    10d8:	00000878 	andeq	r0, r0, r8, ror r8
    10dc:	0000088c 	andeq	r0, r0, ip, lsl #17
    10e0:	a0530001 	subsge	r0, r3, r1
    10e4:	b0000008 	andlt	r0, r0, r8
    10e8:	02000008 	andeq	r0, r0, #8
    10ec:	b09f3000 	addslt	r3, pc, r0
    10f0:	b4000008 	strlt	r0, [r0], #-8
    10f4:	01000008 	tsteq	r0, r8
    10f8:	08b45300 	ldmeq	r4!, {r8, r9, ip, lr}
    10fc:	08c40000 	stmiaeq	r4, {}^	; <UNPREDICTABLE>
    1100:	00020000 	andeq	r0, r2, r0
    1104:	08c49f30 	stmiaeq	r4, {r4, r5, r8, r9, sl, fp, ip, pc}^
    1108:	08c80000 	stmiaeq	r8, {}^	; <UNPREDICTABLE>
    110c:	00010000 	andeq	r0, r1, r0
    1110:	00000053 	andeq	r0, r0, r3, asr r0
    1114:	00000000 	andeq	r0, r0, r0
    1118:	00067800 	andeq	r7, r6, r0, lsl #16
    111c:	00067c00 	andeq	r7, r6, r0, lsl #24
    1120:	30000200 	andcc	r0, r0, r0, lsl #4
    1124:	00067c9f 	muleq	r6, pc, ip	; <UNPREDICTABLE>
    1128:	00068000 	andeq	r8, r6, r0
    112c:	72000700 	andvc	r0, r0, #0, 14
    1130:	01e00a00 	mvneq	r0, r0, lsl #20
    1134:	06849f1a 	pkhbteq	r9, r4, sl, lsl #30
    1138:	06940000 	ldreq	r0, [r4], r0
    113c:	00010000 	andeq	r0, r1, r0
    1140:	00075052 	andeq	r5, r7, r2, asr r0
    1144:	00075400 	andeq	r5, r7, r0, lsl #8
    1148:	52000100 	andpl	r0, r0, #0, 2
    114c:	00000844 	andeq	r0, r0, r4, asr #16
    1150:	00000848 	andeq	r0, r0, r8, asr #16
    1154:	48520001 	ldmdami	r2, {r0}^
    1158:	4c000008 	stcmi	0, cr0, [r0], {8}
    115c:	05000008 	streq	r0, [r0, #-8]
    1160:	80807200 	addhi	r7, r0, r0, lsl #4
    1164:	084c9f43 	stmdaeq	ip, {r0, r1, r6, r8, r9, sl, fp, ip, pc}^
    1168:	08580000 	ldmdaeq	r8, {}^	; <UNPREDICTABLE>
    116c:	00050000 	andeq	r0, r5, r0
    1170:	42fbcc72 	rscsmi	ip, fp, #29184	; 0x7200
    1174:	0008b49f 	muleq	r8, pc, r4	; <UNPREDICTABLE>
    1178:	0008b800 	andeq	fp, r8, r0, lsl #16
    117c:	72000500 	andvc	r0, r0, #0, 10
    1180:	9f42fbcc 	svcls	0x0042fbcc
	...
    118c:	00000678 	andeq	r0, r0, r8, ror r6
    1190:	00000694 	muleq	r0, r4, r6
    1194:	9f300002 	svcls	0x00300002
    1198:	00000750 	andeq	r0, r0, r0, asr r7
    119c:	00000770 	andeq	r0, r0, r0, ror r7
    11a0:	9f300002 	svcls	0x00300002
    11a4:	00000770 	andeq	r0, r0, r0, ror r7
    11a8:	00000794 	muleq	r0, r4, r7
    11ac:	44520001 	ldrbmi	r0, [r2], #-1
    11b0:	68000008 	stmdavs	r0, {r3}
    11b4:	02000008 	andeq	r0, r0, #8
    11b8:	689f3000 	ldmvs	pc, {ip, sp}	; <UNPREDICTABLE>
    11bc:	8c000008 	stchi	0, cr0, [r0], {8}
    11c0:	01000008 	tsteq	r0, r8
    11c4:	08a05200 	stmiaeq	r0!, {r9, ip, lr}
    11c8:	08c80000 	stmiaeq	r8, {}^	; <UNPREDICTABLE>
    11cc:	00020000 	andeq	r0, r2, r0
    11d0:	00009f30 	andeq	r9, r0, r0, lsr pc
    11d4:	00000000 	andeq	r0, r0, r0
    11d8:	06780000 	ldrbteq	r0, [r8], -r0
    11dc:	067c0000 	ldrbteq	r0, [ip], -r0
    11e0:	000a0000 	andeq	r0, sl, r0
    11e4:	1000089e 	mulne	r0, lr, r8
    11e8:	000001c0 	andeq	r0, r0, r0, asr #3
	...
    11f4:	06980000 	ldreq	r0, [r8], r0
    11f8:	06a40000 	strteq	r0, [r4], r0
    11fc:	00010000 	andeq	r0, r1, r0
    1200:	00000053 	andeq	r0, r0, r3, asr r0
    1204:	00000000 	andeq	r0, r0, r0
    1208:	00069800 	andeq	r9, r6, r0, lsl #16
    120c:	0006a400 	andeq	sl, r6, r0, lsl #8
    1210:	9e000a00 	vmlals.f32	s0, s0, s0
    1214:	c0101008 	andsgt	r1, r0, r8
    1218:	00000001 	andeq	r0, r0, r1
	...
    1224:	00072800 	andeq	r2, r7, r0, lsl #16
    1228:	00073c00 	andeq	r3, r7, r0, lsl #24
    122c:	9e000600 	cfmadd32ls	mvax0, mvfx0, mvfx0, mvfx0
    1230:	90999904 	addsls	r9, r9, r4, lsl #18
    1234:	000000c8 	andeq	r0, r0, r8, asr #1
    1238:	00000000 	andeq	r0, r0, r0
    123c:	00072800 	andeq	r2, r7, r0, lsl #16
    1240:	00073c00 	andeq	r3, r7, r0, lsl #24
    1244:	9e000a00 	vmlals.f32	s0, s0, s0
    1248:	c2029008 	andgt	r9, r2, #8
    124c:	00000001 	andeq	r0, r0, r1
	...
    1258:	00073c00 	andeq	r3, r7, r0, lsl #24
    125c:	00075000 	andeq	r5, r7, r0
    1260:	9e000600 	cfmadd32ls	mvax0, mvfx0, mvfx0, mvfx0
    1264:	e0666604 	rsb	r6, r6, r4, lsl #12
    1268:	000000cc 	andeq	r0, r0, ip, asr #1
    126c:	00000000 	andeq	r0, r0, r0
    1270:	00073c00 	andeq	r3, r7, r0, lsl #24
    1274:	00075000 	andeq	r5, r7, r0
    1278:	9e000a00 	vmlals.f32	s0, s0, s0
    127c:	c2029008 	andgt	r9, r2, #8
    1280:	00000001 	andeq	r0, r0, r1
	...
    128c:	0008cc00 	andeq	ip, r8, r0, lsl #24
    1290:	0008e000 	andeq	lr, r8, r0
    1294:	9e000600 	cfmadd32ls	mvax0, mvfx0, mvfx0, mvfx0
    1298:	40cccc04 	sbcmi	ip, ip, r4, lsl #24
    129c:	000000c4 	andeq	r0, r0, r4, asr #1
    12a0:	00000000 	andeq	r0, r0, r0
    12a4:	0008cc00 	andeq	ip, r8, r0, lsl #24
    12a8:	0008e000 	andeq	lr, r8, r0
    12ac:	9e000a00 	vmlals.f32	s0, s0, s0
    12b0:	c2029008 	andgt	r9, r2, #8
    12b4:	00000001 	andeq	r0, r0, r1
	...
    12c4:	00009400 	andeq	r9, r0, r0, lsl #8
    12c8:	50000100 	andpl	r0, r0, r0, lsl #2
    12cc:	00000094 	muleq	r0, r4, r0
    12d0:	000000c0 	andeq	r0, r0, r0, asr #1
    12d4:	01f30004 	mvnseq	r0, r4
    12d8:	00009f50 	andeq	r9, r0, r0, asr pc
	...
    12e4:	00780000 	rsbseq	r0, r8, r0
    12e8:	00020000 	andeq	r0, r2, r0
    12ec:	00789f30 	rsbseq	r9, r8, r0, lsr pc
    12f0:	00800000 	addeq	r0, r0, r0
    12f4:	00010000 	andeq	r0, r1, r0
    12f8:	00008053 	andeq	r8, r0, r3, asr r0
    12fc:	00008c00 	andeq	r8, r0, r0, lsl #24
    1300:	71000200 	mrsvc	r0, R8_usr
	...
    130c:	00007800 	andeq	r7, r0, r0, lsl #16
    1310:	00007c00 	andeq	r7, r0, r0, lsl #24
    1314:	53000100 	movwpl	r0, #256	; 0x100
	...
    1320:	00000078 	andeq	r0, r0, r8, ror r0
    1324:	0000007c 	andeq	r0, r0, ip, ror r0
    1328:	089e000a 	ldmeq	lr, {r1, r3}
    132c:	01c01000 	biceq	r1, r0, r0
	...
    133c:	0000007c 	andeq	r0, r0, ip, ror r0
    1340:	00000080 	andeq	r0, r0, r0, lsl #1
    1344:	089e000a 	ldmeq	lr, {r1, r3}
    1348:	01c0100c 	biceq	r1, r0, ip
	...
    1358:	0000008c 	andeq	r0, r0, ip, lsl #1
    135c:	000000a0 	andeq	r0, r0, r0, lsr #1
    1360:	ff0c0006 			; <UNDEFINED> instruction: 0xff0c0006
    1364:	9f00ffff 	svcls	0x0000ffff
	...
    1370:	000000a8 	andeq	r0, r0, r8, lsr #1
    1374:	000000ac 	andeq	r0, r0, ip, lsr #1
    1378:	089e000a 	ldmeq	lr, {r1, r3}
    137c:	01c0100c 	biceq	r1, r0, ip
	...
    138c:	0000008c 	andeq	r0, r0, ip, lsl #1
    1390:	00000090 	muleq	r0, r0, r0
    1394:	089e000a 	ldmeq	lr, {r1, r3}
    1398:	01c0100c 	biceq	r1, r0, ip
	...
    13a8:	00000098 	muleq	r0, r8, r0
    13ac:	000000a0 	andeq	r0, r0, r0, lsr #1
    13b0:	a0530001 	subsge	r0, r3, r1
    13b4:	c0000000 	andgt	r0, r0, r0
    13b8:	02000000 	andeq	r0, r0, #0
    13bc:	000c7100 	andeq	r7, ip, r0, lsl #2
    13c0:	00000000 	andeq	r0, r0, r0
    13c4:	88000000 	stmdahi	r0, {}	; <UNPREDICTABLE>
    13c8:	8c000000 	stchi	0, cr0, [r0], {-0}
    13cc:	01000000 	mrseq	r0, (UNDEF: 0)
    13d0:	00005300 	andeq	r5, r0, r0, lsl #6
    13d4:	00000000 	andeq	r0, r0, r0
    13d8:	00880000 	addeq	r0, r8, r0
    13dc:	008c0000 	addeq	r0, ip, r0
    13e0:	000a0000 	andeq	r0, sl, r0
    13e4:	100c089e 	mulne	ip, lr, r8
    13e8:	000001c0 	andeq	r0, r0, r0, asr #3
	...
    13f4:	00c00000 	sbceq	r0, r0, r0
    13f8:	02640000 	rsbeq	r0, r4, #0
    13fc:	00020000 	andeq	r0, r2, r0
    1400:	00009f30 	andeq	r9, r0, r0, lsr pc
    1404:	00000000 	andeq	r0, r0, r0
    1408:	00c00000 	sbceq	r0, r0, r0
    140c:	01f80000 	mvnseq	r0, r0
    1410:	00020000 	andeq	r0, r2, r0
    1414:	01f89f30 	mvnseq	r9, r0, lsr pc
    1418:	02000000 	andeq	r0, r0, #0
    141c:	00080000 	andeq	r0, r8, r0
    1420:	ff110072 			; <UNDEFINED> instruction: 0xff110072
    1424:	9f1a7bff 	svcls	0x001a7bff
    1428:	00000200 	andeq	r0, r0, r0, lsl #4
    142c:	00000204 	andeq	r0, r0, r4, lsl #4
    1430:	70520001 	subsvc	r0, r2, r1
    1434:	74000002 	strvc	r0, [r0], #-2
    1438:	01000002 	tsteq	r0, r2
    143c:	02745300 	rsbseq	r5, r4, #0, 6
    1440:	027c0000 	rsbseq	r0, ip, #0
    1444:	00010000 	andeq	r0, r1, r0
    1448:	00027c50 	andeq	r7, r2, r0, asr ip
    144c:	00028400 	andeq	r8, r2, r0, lsl #8
    1450:	72000200 	andvc	r0, r0, #0, 4
    1454:	0000000c 	andeq	r0, r0, ip
    1458:	00000000 	andeq	r0, r0, r0
    145c:	0000dc00 	andeq	sp, r0, r0, lsl #24
    1460:	0001ec00 	andeq	lr, r1, r0, lsl #24
    1464:	5e000100 	adfpls	f0, f0, f0
	...
    1470:	000000dc 	ldrdeq	r0, [r0], -ip
    1474:	00000150 	andeq	r0, r0, r0, asr r1
    1478:	80540001 	subshi	r0, r4, r1
    147c:	e8000001 	stmda	r0, {r0}
    1480:	01000001 	tsteq	r0, r1
    1484:	00005400 	andeq	r5, r0, r0, lsl #8
    1488:	00000000 	andeq	r0, r0, r0
    148c:	00dc0000 	sbcseq	r0, ip, r0
    1490:	01e40000 	mvneq	r0, r0
    1494:	00010000 	andeq	r0, r1, r0
    1498:	00000055 	andeq	r0, r0, r5, asr r0
    149c:	00000000 	andeq	r0, r0, r0
    14a0:	0000e800 	andeq	lr, r0, r0, lsl #16
    14a4:	0000f400 	andeq	pc, r0, r0, lsl #8
    14a8:	52000100 	andpl	r0, r0, #0, 2
    14ac:	000000f4 	strdeq	r0, [r0], -r4
    14b0:	000000fc 	strdeq	r0, [r0], -ip
    14b4:	0c7c0002 	ldcleq	0, cr0, [ip], #-8
    14b8:	0000014c 	andeq	r0, r0, ip, asr #2
    14bc:	00000150 	andeq	r0, r0, r0, asr r1
    14c0:	50500001 	subspl	r0, r0, r1
    14c4:	80000001 	andhi	r0, r0, r1
    14c8:	01000001 	tsteq	r0, r1
    14cc:	00005400 	andeq	r5, r0, r0, lsl #8
    14d0:	00000000 	andeq	r0, r0, r0
    14d4:	00dc0000 	sbcseq	r0, ip, r0
    14d8:	00e00000 	rsceq	r0, r0, r0
    14dc:	000a0000 	andeq	r0, sl, r0
    14e0:	100c089e 	mulne	ip, lr, r8
    14e4:	000001c0 	andeq	r0, r0, r0, asr #3
	...
    14f0:	00f00000 	rscseq	r0, r0, r0
    14f4:	01000000 	mrseq	r0, (UNDEF: 0)
    14f8:	00060000 	andeq	r0, r6, r0
    14fc:	ffffff0c 			; <UNDEFINED> instruction: 0xffffff0c
    1500:	00009f00 	andeq	r9, r0, r0, lsl #30
    1504:	00000000 	andeq	r0, r0, r0
    1508:	00f80000 	rscseq	r0, r8, r0
    150c:	01000000 	mrseq	r0, (UNDEF: 0)
    1510:	00010000 	andeq	r0, r1, r0
    1514:	00010052 	andeq	r0, r1, r2, asr r0
    1518:	00015400 	andeq	r5, r1, r0, lsl #8
    151c:	7c000200 	sfmvc	f0, 4, [r0], {-0}
    1520:	00018024 	andeq	r8, r1, r4, lsr #32
    1524:	0001ec00 	andeq	lr, r1, r0, lsl #24
    1528:	7c000200 	sfmvc	f0, 4, [r0], {-0}
    152c:	00000024 	andeq	r0, r0, r4, lsr #32
    1530:	00000000 	andeq	r0, r0, r0
    1534:	0000f800 	andeq	pc, r0, r0, lsl #16
    1538:	0001ec00 	andeq	lr, r1, r0, lsl #24
    153c:	9e000a00 	vmlals.f32	s0, s0, s0
    1540:	c0102408 	andsgt	r2, r0, r8, lsl #8
    1544:	00000001 	andeq	r0, r0, r1
	...
    1550:	0000f000 	andeq	pc, r0, r0
    1554:	0000f400 	andeq	pc, r0, r0, lsl #8
    1558:	9e000a00 	vmlals.f32	s0, s0, s0
    155c:	c0102408 	andsgt	r2, r0, r8, lsl #8
    1560:	00000001 	andeq	r0, r0, r1
	...
    156c:	00010800 	andeq	r0, r1, r0, lsl #16
    1570:	00010c00 	andeq	r0, r1, r0, lsl #24
    1574:	9e000a00 	vmlals.f32	s0, s0, s0
    1578:	c0102408 	andsgt	r2, r0, r8, lsl #8
    157c:	00000001 	andeq	r0, r0, r1
	...
    1588:	0000ec00 	andeq	lr, r0, r0, lsl #24
    158c:	0000f000 	andeq	pc, r0, r0
    1590:	52000100 	andpl	r0, r0, #0, 2
	...
    159c:	000000ec 	andeq	r0, r0, ip, ror #1
    15a0:	000000f0 	strdeq	r0, [r0], -r0	; <UNPREDICTABLE>
    15a4:	089e000a 	ldmeq	lr, {r1, r3}
    15a8:	01c0100c 	biceq	r1, r0, ip
	...
    15b8:	00000114 	andeq	r0, r0, r4, lsl r1
    15bc:	00000118 	andeq	r0, r0, r8, lsl r1
    15c0:	089e000a 	ldmeq	lr, {r1, r3}
    15c4:	01c01024 	biceq	r1, r0, r4, lsr #32
	...
    15d4:	00000120 	andeq	r0, r0, r0, lsr #2
    15d8:	00000124 	andeq	r0, r0, r4, lsr #2
    15dc:	089e000a 	ldmeq	lr, {r1, r3}
    15e0:	01c01024 	biceq	r1, r0, r4, lsr #32
	...
    15f0:	00000138 	andeq	r0, r0, r8, lsr r1
    15f4:	00000144 	andeq	r0, r0, r4, asr #2
    15f8:	089e000a 	ldmeq	lr, {r1, r3}
    15fc:	01c0100c 	biceq	r1, r0, ip
	...
    160c:	00000154 	andeq	r0, r0, r4, asr r1
    1610:	00000164 	andeq	r0, r0, r4, ror #2
    1614:	ff0c0006 			; <UNDEFINED> instruction: 0xff0c0006
    1618:	9f00ffff 	svcls	0x0000ffff
	...
    1624:	0000015c 	andeq	r0, r0, ip, asr r1
    1628:	0000017c 	andeq	r0, r0, ip, ror r1
    162c:	7c500001 	mrrcvc	0, 0, r0, r0, cr1	; <UNPREDICTABLE>
    1630:	80000001 	andhi	r0, r0, r1
    1634:	02000001 	andeq	r0, r0, #1
    1638:	00247100 	eoreq	r7, r4, r0, lsl #2
    163c:	00000000 	andeq	r0, r0, r0
    1640:	5c000000 	stcpl	0, cr0, [r0], {-0}
    1644:	80000001 	andhi	r0, r0, r1
    1648:	0a000001 	beq	1654 <__spl_size-0x250>
    164c:	24089e00 	strcs	r9, [r8], #-3584	; 0xfffff200
    1650:	0001c010 	andeq	ip, r1, r0, lsl r0
	...
    165c:	6c000000 	stcvs	0, cr0, [r0], {-0}
    1660:	70000001 	andvc	r0, r0, r1
    1664:	0a000001 	beq	1670 <__spl_size-0x234>
    1668:	24089e00 	strcs	r9, [r8], #-3584	; 0xfffff200
    166c:	0001c010 	andeq	ip, r1, r0, lsl r0
	...
    1678:	54000000 	strpl	r0, [r0], #-0
    167c:	58000001 	stmdapl	r0, {r0}
    1680:	0a000001 	beq	168c <__spl_size-0x218>
    1684:	24089e00 	strcs	r9, [r8], #-3584	; 0xfffff200
    1688:	0001c010 	andeq	ip, r1, r0, lsl r0
	...
    1694:	50000000 	andpl	r0, r0, r0
    1698:	54000001 	strpl	r0, [r0], #-1
    169c:	01000001 	tsteq	r0, r1
    16a0:	00005400 	andeq	r5, r0, r0, lsl #8
    16a4:	00000000 	andeq	r0, r0, r0
    16a8:	01500000 	cmpeq	r0, r0
    16ac:	01540000 	cmpeq	r4, r0
    16b0:	000a0000 	andeq	r0, sl, r0
    16b4:	100c089e 	mulne	ip, lr, r8
    16b8:	000001c0 	andeq	r0, r0, r0, asr #3
	...
    16c4:	01800000 	orreq	r0, r0, r0
    16c8:	01dc0000 	bicseq	r0, ip, r0
    16cc:	00020000 	andeq	r0, r2, r0
    16d0:	00000071 	andeq	r0, r0, r1, ror r0
    16d4:	00000000 	andeq	r0, r0, r0
    16d8:	01940000 	orrseq	r0, r4, r0
    16dc:	01ec0000 	mvneq	r0, r0
    16e0:	00010000 	andeq	r0, r1, r0
    16e4:	00000057 	andeq	r0, r0, r7, asr r0
    16e8:	00000000 	andeq	r0, r0, r0
    16ec:	00019400 	andeq	r9, r1, r0, lsl #8
    16f0:	0001dc00 	andeq	sp, r1, r0, lsl #24
    16f4:	56000100 	strpl	r0, [r0], -r0, lsl #2
	...
    1700:	00000180 	andeq	r0, r0, r0, lsl #3
    1704:	00000194 	muleq	r0, r4, r1
    1708:	9f300002 	svcls	0x00300002
    170c:	00000194 	muleq	r0, r4, r1
    1710:	000001dc 	ldrdeq	r0, [r0], -ip
    1714:	00500001 	subseq	r0, r0, r1
    1718:	00000000 	andeq	r0, r0, r0
    171c:	80000000 	andhi	r0, r0, r0
    1720:	94000001 	strls	r0, [r0], #-1
    1724:	02000001 	andeq	r0, r0, #1
    1728:	bc9f3000 	ldclt	0, cr3, [pc], {0}
    172c:	d4000001 	strle	r0, [r0], #-1
    1730:	01000001 	tsteq	r0, r1
    1734:	00005300 	andeq	r5, r0, r0, lsl #6
    1738:	00000000 	andeq	r0, r0, r0
    173c:	01b00000 	movseq	r0, r0
    1740:	01b40000 			; <UNDEFINED> instruction: 0x01b40000
    1744:	000a0000 	andeq	r0, sl, r0
    1748:	1038089e 	mlasne	r8, lr, r8, r0
    174c:	000001c0 	andeq	r0, r0, r0, asr #3
	...
    1758:	01b40000 			; <UNDEFINED> instruction: 0x01b40000
    175c:	01b80000 			; <UNDEFINED> instruction: 0x01b80000
    1760:	000a0000 	andeq	r0, sl, r0
    1764:	103c089e 	mlasne	ip, lr, r8, r0
    1768:	000001c0 	andeq	r0, r0, r0, asr #3
	...
    1774:	01ec0000 	mvneq	r0, r0
    1778:	01f80000 	mvnseq	r0, r0
    177c:	000a0000 	andeq	r0, sl, r0
    1780:	1000089e 	mulne	r0, lr, r8
    1784:	000001c0 	andeq	r0, r0, r0, asr #3
	...
    1790:	02000000 	andeq	r0, r0, #0
    1794:	02040000 	andeq	r0, r4, #0
    1798:	00010000 	andeq	r0, r1, r0
    179c:	00000052 	andeq	r0, r0, r2, asr r0
    17a0:	00000000 	andeq	r0, r0, r0
    17a4:	00020000 	andeq	r0, r2, r0
    17a8:	00020400 	andeq	r0, r2, r0, lsl #8
    17ac:	9e000a00 	vmlals.f32	s0, s0, s0
    17b0:	c0100008 	andsgt	r0, r0, r8
    17b4:	00000001 	andeq	r0, r0, r1
	...
    17c0:	00020400 	andeq	r0, r2, r0, lsl #8
    17c4:	00020800 	andeq	r0, r2, r0, lsl #16
    17c8:	9e000a00 	vmlals.f32	s0, s0, s0
    17cc:	c0100c08 	andsgt	r0, r0, r8, lsl #24
    17d0:	00000001 	andeq	r0, r0, r1
	...
    17dc:	00021400 	andeq	r1, r2, r0, lsl #8
    17e0:	00023800 	andeq	r3, r2, r0, lsl #16
    17e4:	51000100 	mrspl	r0, (UNDEF: 16)
	...
    17f0:	0000021c 	andeq	r0, r0, ip, lsl r2
    17f4:	00000234 	andeq	r0, r0, r4, lsr r2
    17f8:	38530001 	ldmdacc	r3, {r0}^
    17fc:	54000002 	strpl	r0, [r0], #-2
    1800:	01000002 	tsteq	r0, r2
    1804:	00005300 	andeq	r5, r0, r0, lsl #6
    1808:	00000000 	andeq	r0, r0, r0
    180c:	021c0000 	andseq	r0, ip, #0
    1810:	02200000 	eoreq	r0, r0, #0
    1814:	00010000 	andeq	r0, r1, r0
    1818:	00000053 	andeq	r0, r0, r3, asr r0
    181c:	00000000 	andeq	r0, r0, r0
    1820:	00021c00 	andeq	r1, r2, r0, lsl #24
    1824:	00022000 	andeq	r2, r2, r0
    1828:	72000700 	andvc	r0, r0, #0, 14
    182c:	f72cf700 			; <UNDEFINED> instruction: 0xf72cf700
    1830:	00009f25 	andeq	r9, r0, r5, lsr #30
    1834:	00000000 	andeq	r0, r0, r0
    1838:	02400000 	subeq	r0, r0, #0
    183c:	02440000 	subeq	r0, r4, #0
    1840:	00070000 	andeq	r0, r7, r0
    1844:	2cf70072 	ldclcs	0, cr0, [r7], #456	; 0x1c8
    1848:	009f25f7 			; <UNDEFINED> instruction: 0x009f25f7
    184c:	00000000 	andeq	r0, r0, r0
    1850:	64000000 	strvs	r0, [r0], #-0
    1854:	6c000002 	stcvs	0, cr0, [r0], {2}
    1858:	0a000002 	beq	1868 <__spl_size-0x3c>
    185c:	0c089e00 	stceq	14, cr9, [r8], {-0}
    1860:	0001c010 	andeq	ip, r1, r0, lsl r0
	...
    186c:	74000000 	strvc	r0, [r0], #-0
    1870:	7c000002 	stcvc	0, cr0, [r0], {2}
    1874:	01000002 	tsteq	r0, r2
    1878:	027c5000 	rsbseq	r5, ip, #0
    187c:	02840000 	addeq	r0, r4, #0
    1880:	00020000 	andeq	r0, r2, r0
    1884:	00000c72 	andeq	r0, r0, r2, ror ip
	...
    1890:	001c0000 	andseq	r0, ip, r0
    1894:	00010000 	andeq	r0, r1, r0
    1898:	00001c50 	andeq	r1, r0, r0, asr ip
    189c:	00002400 	andeq	r2, r0, r0, lsl #8
    18a0:	55000100 	strpl	r0, [r0, #-256]	; 0xffffff00
    18a4:	00000024 	andeq	r0, r0, r4, lsr #32
    18a8:	0000009c 	muleq	r0, ip, r0
    18ac:	00570001 	subseq	r0, r7, r1
    18b0:	00000000 	andeq	r0, r0, r0
    18b4:	0c000000 	stceq	0, cr0, [r0], {-0}
    18b8:	1c000000 	stcne	0, cr0, [r0], {-0}
    18bc:	01000000 	mrseq	r0, (UNDEF: 0)
    18c0:	001c5000 	andseq	r5, ip, r0
    18c4:	00240000 	eoreq	r0, r4, r0
    18c8:	00010000 	andeq	r0, r1, r0
    18cc:	00002455 	andeq	r2, r0, r5, asr r4
    18d0:	00007c00 	andeq	r7, r0, r0, lsl #24
    18d4:	57000100 	strpl	r0, [r0, -r0, lsl #2]
	...
    18e0:	00000030 	andeq	r0, r0, r0, lsr r0
    18e4:	00000040 	andeq	r0, r0, r0, asr #32
    18e8:	9f3c0002 	svcls	0x003c0002
    18ec:	00000040 	andeq	r0, r0, r0, asr #32
    18f0:	00000060 	andeq	r0, r0, r0, rrx
    18f4:	60540001 	subsvs	r0, r4, r1
    18f8:	64000000 	strvs	r0, [r0], #-0
    18fc:	03000000 	movweq	r0, #0
    1900:	9f017400 	svcls	0x00017400
    1904:	0000006c 	andeq	r0, r0, ip, rrx
    1908:	0000007c 	andeq	r0, r0, ip, ror r0
    190c:	00540001 	subseq	r0, r4, r1
    1910:	00000000 	andeq	r0, r0, r0
    1914:	70000000 	andvc	r0, r0, r0
    1918:	73000002 	movwvc	r0, #2
    191c:	01000002 	tsteq	r0, r2
    1920:	02735000 	rsbseq	r5, r3, #0
    1924:	02740000 	rsbseq	r0, r4, #0
    1928:	00040000 	andeq	r0, r4, r0
    192c:	9f5001f3 	svcls	0x005001f3
	...
    1938:	000000e8 	andeq	r0, r0, r8, ror #1
    193c:	0000010c 	andeq	r0, r0, ip, lsl #2
    1940:	70910002 	addsvc	r0, r1, r2
	...
    194c:	00000100 	andeq	r0, r0, r0, lsl #2
    1950:	00000174 	andeq	r0, r0, r4, ror r1
    1954:	74500001 	ldrbvc	r0, [r0], #-1
    1958:	87000001 	strhi	r0, [r0, -r1]
    195c:	01000004 	tsteq	r0, r4
    1960:	04e85200 	strbteq	r5, [r8], #512	; 0x200
    1964:	05040000 	streq	r0, [r4, #-0]
    1968:	00010000 	andeq	r0, r1, r0
    196c:	00051452 	andeq	r1, r5, r2, asr r4
    1970:	00052300 	andeq	r2, r5, r0, lsl #6
    1974:	52000100 	andpl	r0, r0, #0, 2
    1978:	00000560 	andeq	r0, r0, r0, ror #10
    197c:	000005c8 	andeq	r0, r0, r8, asr #11
    1980:	f0520001 			; <UNDEFINED> instruction: 0xf0520001
    1984:	04000005 	streq	r0, [r0], #-5
    1988:	01000006 	tsteq	r0, r6
    198c:	00005200 	andeq	r5, r0, r0, lsl #4
    1990:	00000000 	andeq	r0, r0, r0
    1994:	01240000 			; <UNDEFINED> instruction: 0x01240000
    1998:	01280000 			; <UNDEFINED> instruction: 0x01280000
    199c:	000a0000 	andeq	r0, sl, r0
    19a0:	507c089e 			; <UNDEFINED> instruction: 0x507c089e
    19a4:	000001c2 	andeq	r0, r0, r2, asr #3
	...
    19b0:	01300000 	teqeq	r0, r0
    19b4:	01340000 	teqeq	r4, r0
    19b8:	00010000 	andeq	r0, r1, r0
    19bc:	00000053 	andeq	r0, r0, r3, asr r0
    19c0:	00000000 	andeq	r0, r0, r0
    19c4:	00013000 	andeq	r3, r1, r0
    19c8:	00013400 	andeq	r3, r1, r0, lsl #8
    19cc:	9e000a00 	vmlals.f32	s0, s0, s0
    19d0:	c2500008 	subsgt	r0, r0, #8
    19d4:	00000001 	andeq	r0, r0, r1
	...
    19e0:	00017400 	andeq	r7, r1, r0, lsl #8
    19e4:	0001e000 	andeq	lr, r1, r0
    19e8:	59000100 	stmdbpl	r0, {r8}
    19ec:	000001ec 	andeq	r0, r0, ip, ror #3
    19f0:	00000248 	andeq	r0, r0, r8, asr #4
    19f4:	48590001 	ldmdami	r9, {r0}^
    19f8:	88000002 	stmdahi	r0, {r1}
    19fc:	02000002 	andeq	r0, r0, #2
    1a00:	e07c7200 	rsbs	r7, ip, r0, lsl #4
    1a04:	34000002 	strcc	r0, [r0], #-2
    1a08:	01000003 	tsteq	r0, r3
    1a0c:	03545900 	cmpeq	r4, #0, 18
    1a10:	03900000 	orrseq	r0, r0, #0
    1a14:	00010000 	andeq	r0, r1, r0
    1a18:	00039059 	andeq	r9, r3, r9, asr r0
    1a1c:	0003a800 	andeq	sl, r3, r0, lsl #16
    1a20:	72000200 	andvc	r0, r0, #0, 4
    1a24:	0003a87c 	andeq	sl, r3, ip, ror r8
    1a28:	0003b400 	andeq	fp, r3, r0, lsl #8
    1a2c:	59000100 	stmdbpl	r0, {r8}
    1a30:	000003b4 			; <UNDEFINED> instruction: 0x000003b4
    1a34:	00000420 	andeq	r0, r0, r0, lsr #8
    1a38:	7c720002 	ldclvc	0, cr0, [r2], #-8
    1a3c:	00000440 	andeq	r0, r0, r0, asr #8
    1a40:	0000044c 	andeq	r0, r0, ip, asr #8
    1a44:	4c590001 	mrrcmi	0, 0, r0, r9, cr1
    1a48:	87000004 	strhi	r0, [r0, -r4]
    1a4c:	01000004 	tsteq	r0, r4
    1a50:	04875300 	streq	r5, [r7], #768	; 0x300
    1a54:	05040000 	streq	r0, [r4, #-0]
    1a58:	00010000 	andeq	r0, r1, r0
    1a5c:	00051459 	andeq	r1, r5, r9, asr r4
    1a60:	00052300 	andeq	r2, r5, r0, lsl #6
    1a64:	53000100 	movwpl	r0, #256	; 0x100
    1a68:	00000523 	andeq	r0, r0, r3, lsr #10
    1a6c:	00000560 	andeq	r0, r0, r0, ror #10
    1a70:	60590001 	subsvs	r0, r9, r1
    1a74:	6c000005 	stcvs	0, cr0, [r0], {5}
    1a78:	02000005 	andeq	r0, r0, #5
    1a7c:	8c7c7200 	lfmhi	f7, 2, [ip], #-0
    1a80:	c8000005 	stmdagt	r0, {r0, r2}
    1a84:	02000005 	andeq	r0, r0, #5
    1a88:	c87c7200 	ldmdagt	ip!, {r9, ip, sp, lr}^
    1a8c:	04000005 	streq	r0, [r0], #-5
    1a90:	01000006 	tsteq	r0, r6
    1a94:	00005900 	andeq	r5, r0, r0, lsl #18
    1a98:	00000000 	andeq	r0, r0, r0
    1a9c:	01740000 	cmneq	r4, r0
    1aa0:	01e00000 	mvneq	r0, r0
    1aa4:	00010000 	andeq	r0, r1, r0
    1aa8:	0001ec57 	andeq	lr, r1, r7, asr ip
    1aac:	0001f400 	andeq	pc, r1, r0, lsl #8
    1ab0:	57000100 	strpl	r0, [r0, -r0, lsl #2]
    1ab4:	000001f4 	strdeq	r0, [r0], -r4
    1ab8:	000001f8 	strdeq	r0, [r0], -r8
    1abc:	7f750003 	svcvc	0x00750003
    1ac0:	0001f89f 	muleq	r1, pc, r8	; <UNPREDICTABLE>
    1ac4:	00034c00 	andeq	r4, r3, r0, lsl #24
    1ac8:	57000100 	strpl	r0, [r0, -r0, lsl #2]
    1acc:	00000354 	andeq	r0, r0, r4, asr r3
    1ad0:	00000508 	andeq	r0, r0, r8, lsl #10
    1ad4:	14570001 	ldrbne	r0, [r7], #-1
    1ad8:	04000005 	streq	r0, [r0], #-5
    1adc:	01000006 	tsteq	r0, r6
    1ae0:	00005700 	andeq	r5, r0, r0, lsl #14
    1ae4:	00000000 	andeq	r0, r0, r0
    1ae8:	017c0000 	cmneq	ip, r0
    1aec:	01c80000 	biceq	r0, r8, r0
    1af0:	00010000 	andeq	r0, r1, r0
    1af4:	0001c853 	andeq	ip, r1, r3, asr r8
    1af8:	0001e000 	andeq	lr, r1, r0
    1afc:	70000300 	andvc	r0, r0, r0, lsl #6
    1b00:	01ec9f30 	mvneq	r9, r0, lsr pc
    1b04:	020c0000 	andeq	r0, ip, #0
    1b08:	00010000 	andeq	r0, r1, r0
    1b0c:	00020c53 	andeq	r0, r2, r3, asr ip
    1b10:	00024400 	andeq	r4, r2, r0, lsl #8
    1b14:	70000300 	andvc	r0, r0, r0, lsl #6
    1b18:	02449f30 	subeq	r9, r4, #48, 30	; 0xc0
    1b1c:	02880000 	addeq	r0, r8, #0
    1b20:	00020000 	andeq	r0, r2, r0
    1b24:	02e00077 	rsceq	r0, r0, #119	; 0x77
    1b28:	030c0000 	movweq	r0, #49152	; 0xc000
    1b2c:	00010000 	andeq	r0, r1, r0
    1b30:	00035453 	andeq	r5, r3, r3, asr r4
    1b34:	00036400 	andeq	r6, r3, r0, lsl #8
    1b38:	53000100 	movwpl	r0, #256	; 0x100
    1b3c:	00000364 	andeq	r0, r0, r4, ror #6
    1b40:	00000388 	andeq	r0, r0, r8, lsl #7
    1b44:	30700003 	rsbscc	r0, r0, r3
    1b48:	0003889f 	muleq	r3, pc, r8	; <UNPREDICTABLE>
    1b4c:	00038c00 	andeq	r8, r3, r0, lsl #24
    1b50:	53000100 	movwpl	r0, #256	; 0x100
    1b54:	0000038c 	andeq	r0, r0, ip, lsl #7
    1b58:	00000390 	muleq	r0, r0, r3
    1b5c:	30700003 	rsbscc	r0, r0, r3
    1b60:	0003909f 	muleq	r3, pc, r0	; <UNPREDICTABLE>
    1b64:	00042000 	andeq	r2, r4, r0
    1b68:	77000200 	strvc	r0, [r0, -r0, lsl #4]
    1b6c:	00044000 	andeq	r4, r4, r0
    1b70:	00044800 	andeq	r4, r4, r0, lsl #16
    1b74:	53000100 	movwpl	r0, #256	; 0x100
    1b78:	00000448 	andeq	r0, r0, r8, asr #8
    1b7c:	0000045c 	andeq	r0, r0, ip, asr r4
    1b80:	30700003 	rsbscc	r0, r0, r3
    1b84:	0004e89f 	muleq	r4, pc, r8	; <UNPREDICTABLE>
    1b88:	0004ec00 	andeq	lr, r4, r0, lsl #24
    1b8c:	53000100 	movwpl	r0, #256	; 0x100
    1b90:	000004ec 	andeq	r0, r0, ip, ror #9
    1b94:	00000500 	andeq	r0, r0, r0, lsl #10
    1b98:	00770002 	rsbseq	r0, r7, r2
    1b9c:	00000514 	andeq	r0, r0, r4, lsl r5
    1ba0:	00000518 	andeq	r0, r0, r8, lsl r5
    1ba4:	30700003 	rsbscc	r0, r0, r3
    1ba8:	0005189f 	muleq	r5, pc, r8	; <UNPREDICTABLE>
    1bac:	00052300 	andeq	r2, r5, r0, lsl #6
    1bb0:	77000200 	strvc	r0, [r0, -r0, lsl #4]
    1bb4:	00056000 	andeq	r6, r5, r0
    1bb8:	00056c00 	andeq	r6, r5, r0, lsl #24
    1bbc:	77000200 	strvc	r0, [r0, -r0, lsl #4]
    1bc0:	00058c00 	andeq	r8, r5, r0, lsl #24
    1bc4:	0005c800 	andeq	ip, r5, r0, lsl #16
    1bc8:	77000200 	strvc	r0, [r0, -r0, lsl #4]
	...
    1bd4:	00017400 	andeq	r7, r1, r0, lsl #8
    1bd8:	00019800 	andeq	r9, r1, r0, lsl #16
    1bdc:	56000100 	strpl	r0, [r0], -r0, lsl #2
    1be0:	00000218 	andeq	r0, r0, r8, lsl r2
    1be4:	00000224 	andeq	r0, r0, r4, lsr #4
    1be8:	70560001 	subsvc	r0, r6, r1
    1bec:	74000003 	strvc	r0, [r0], #-3
    1bf0:	01000003 	tsteq	r0, r3
    1bf4:	03745600 	cmneq	r4, #0, 12
    1bf8:	03880000 	orreq	r0, r8, #0
    1bfc:	00040000 	andeq	r0, r4, r0
    1c00:	9f1f0076 	svcls	0x001f0076
    1c04:	00000388 	andeq	r0, r0, r8, lsl #7
    1c08:	00000390 	muleq	r0, r0, r3
    1c0c:	00560001 	subseq	r0, r6, r1
    1c10:	00000000 	andeq	r0, r0, r0
    1c14:	18000000 	stmdane	r0, {}	; <UNPREDICTABLE>
    1c18:	24000002 	strcs	r0, [r0], #-2
    1c1c:	01000002 	tsteq	r0, r2
    1c20:	03705800 	cmneq	r0, #0, 16
    1c24:	037c0000 	cmneq	ip, #0
    1c28:	00010000 	andeq	r0, r1, r0
    1c2c:	00038858 	andeq	r8, r3, r8, asr r8
    1c30:	00039000 	andeq	r9, r3, r0
    1c34:	58000100 	stmdapl	r0, {r8}
	...
    1c40:	00000174 	andeq	r0, r0, r4, ror r1
    1c44:	000001e0 	andeq	r0, r0, r0, ror #3
    1c48:	9f300002 	svcls	0x00300002
    1c4c:	000001ec 	andeq	r0, r0, ip, ror #3
    1c50:	00000218 	andeq	r0, r0, r8, lsl r2
    1c54:	9f300002 	svcls	0x00300002
    1c58:	00000218 	andeq	r0, r0, r8, lsl r2
    1c5c:	0000021c 	andeq	r0, r0, ip, lsl r2
    1c60:	9f400002 	svcls	0x00400002
    1c64:	0000021c 	andeq	r0, r0, ip, lsl r2
    1c68:	00000248 	andeq	r0, r0, r8, asr #4
    1c6c:	e0530001 	subs	r0, r3, r1
    1c70:	4c000002 	stcmi	0, cr0, [r0], {2}
    1c74:	02000003 	andeq	r0, r0, #3
    1c78:	549f3000 	ldrpl	r3, [pc], #0	; 1c80 <__spl_size+0x3dc>
    1c7c:	70000003 	andvc	r0, r0, r3
    1c80:	02000003 	andeq	r0, r0, #3
    1c84:	709f3000 	addsvc	r3, pc, r0
    1c88:	88000003 	stmdahi	r0, {r0, r1}
    1c8c:	01000003 	tsteq	r0, r3
    1c90:	03885300 	orreq	r5, r8, #0, 6
    1c94:	03900000 	orrseq	r0, r0, #0
    1c98:	00030000 	andeq	r0, r3, r0
    1c9c:	a89ff609 	ldmge	pc, {r0, r3, r9, sl, ip, sp, lr, pc}	; <UNPREDICTABLE>
    1ca0:	b0000003 	andlt	r0, r0, r3
    1ca4:	01000003 	tsteq	r0, r3
    1ca8:	03b05300 	movseq	r5, #0, 6
    1cac:	03bc0000 			; <UNDEFINED> instruction: 0x03bc0000
    1cb0:	00040000 	andeq	r0, r4, r0
    1cb4:	9f1f0073 	svcls	0x001f0073
    1cb8:	00000440 	andeq	r0, r0, r0, asr #8
    1cbc:	00000504 	andeq	r0, r0, r4, lsl #10
    1cc0:	9f300002 	svcls	0x00300002
    1cc4:	00000514 	andeq	r0, r0, r4, lsl r5
    1cc8:	00000560 	andeq	r0, r0, r0, ror #10
    1ccc:	9f300002 	svcls	0x00300002
    1cd0:	000005c8 	andeq	r0, r0, r8, asr #11
    1cd4:	00000604 	andeq	r0, r0, r4, lsl #12
    1cd8:	9f300002 	svcls	0x00300002
	...
    1ce4:	00000224 	andeq	r0, r0, r4, lsr #4
    1ce8:	000002e0 	andeq	r0, r0, r0, ror #5
    1cec:	74560001 	ldrbvc	r0, [r6], #-1
    1cf0:	88000003 	stmdahi	r0, {r0, r1}
    1cf4:	04000003 	streq	r0, [r0], #-3
    1cf8:	1f007600 	svcne	0x00007600
    1cfc:	0003909f 	muleq	r3, pc, r0	; <UNPREDICTABLE>
    1d00:	00044000 	andeq	r4, r4, r0
    1d04:	56000100 	strpl	r0, [r0], -r0, lsl #2
    1d08:	00000560 	andeq	r0, r0, r0, ror #10
    1d0c:	000005c8 	andeq	r0, r0, r8, asr #11
    1d10:	00560001 	subseq	r0, r6, r1
    1d14:	00000000 	andeq	r0, r0, r0
    1d18:	34000000 	strcc	r0, [r0], #-0
    1d1c:	48000002 	stmdami	r0, {r1}
    1d20:	01000002 	tsteq	r0, r2
    1d24:	03745300 	cmneq	r4, #0, 6
    1d28:	03880000 	orreq	r0, r8, #0
    1d2c:	00010000 	andeq	r0, r1, r0
    1d30:	0003b053 	andeq	fp, r3, r3, asr r0
    1d34:	0003dc00 	andeq	sp, r3, r0, lsl #24
    1d38:	53000100 	movwpl	r0, #256	; 0x100
    1d3c:	0000058c 	andeq	r0, r0, ip, lsl #11
    1d40:	00000590 	muleq	r0, r0, r5
    1d44:	00530001 	subseq	r0, r3, r1
    1d48:	00000000 	andeq	r0, r0, r0
    1d4c:	34000000 	strcc	r0, [r0], #-0
    1d50:	48000002 	stmdami	r0, {r1}
    1d54:	01000002 	tsteq	r0, r2
    1d58:	02485900 	subeq	r5, r8, #0, 18
    1d5c:	02740000 	rsbseq	r0, r4, #0
    1d60:	00020000 	andeq	r0, r2, r0
    1d64:	03747c72 	cmneq	r4, #29184	; 0x7200
    1d68:	03880000 	orreq	r0, r8, #0
    1d6c:	00010000 	andeq	r0, r1, r0
    1d70:	00039059 	andeq	r9, r3, r9, asr r0
    1d74:	0003a800 	andeq	sl, r3, r0, lsl #16
    1d78:	72000200 	andvc	r0, r0, #0, 4
    1d7c:	0003b47c 	andeq	fp, r3, ip, ror r4
    1d80:	0003c000 	andeq	ip, r3, r0
    1d84:	72000200 	andvc	r0, r0, #0, 4
    1d88:	0000007c 	andeq	r0, r0, ip, ror r0
    1d8c:	00000000 	andeq	r0, r0, r0
    1d90:	00024800 	andeq	r4, r2, r0, lsl #16
    1d94:	00027000 	andeq	r7, r2, r0
    1d98:	50000100 	andpl	r0, r0, r0, lsl #2
    1d9c:	00000270 	andeq	r0, r0, r0, ror r2
    1da0:	00000290 	muleq	r0, r0, r2
    1da4:	74530001 	ldrbvc	r0, [r3], #-1
    1da8:	88000003 	stmdahi	r0, {r0, r1}
    1dac:	02000003 	andeq	r0, r0, #3
    1db0:	909f3000 	addsls	r3, pc, r0
    1db4:	9c000003 	stcls	0, cr0, [r0], {3}
    1db8:	01000003 	tsteq	r0, r3
    1dbc:	039c5000 	orrseq	r5, ip, #0
    1dc0:	03a80000 			; <UNDEFINED> instruction: 0x03a80000
    1dc4:	00010000 	andeq	r0, r1, r0
    1dc8:	0003d053 	andeq	sp, r3, r3, asr r0
    1dcc:	0003dc00 	andeq	sp, r3, r0, lsl #24
    1dd0:	50000100 	andpl	r0, r0, r0, lsl #2
    1dd4:	000003dc 	ldrdeq	r0, [r0], -ip
    1dd8:	000003e4 	andeq	r0, r0, r4, ror #7
    1ddc:	e4530001 	ldrb	r0, [r3], #-1
    1de0:	f0000003 			; <UNDEFINED> instruction: 0xf0000003
    1de4:	01000003 	tsteq	r0, r3
    1de8:	03f05000 	mvnseq	r5, #0
    1dec:	04200000 	strteq	r0, [r0], #-0
    1df0:	00010000 	andeq	r0, r1, r0
    1df4:	00056053 	andeq	r6, r5, r3, asr r0
    1df8:	00058c00 	andeq	r8, r5, r0, lsl #24
    1dfc:	53000100 	movwpl	r0, #256	; 0x100
    1e00:	00000590 	muleq	r0, r0, r5
    1e04:	000005a8 	andeq	r0, r0, r8, lsr #11
    1e08:	a8500001 	ldmdage	r0, {r0}^
    1e0c:	c8000005 	stmdagt	r0, {r0, r2}
    1e10:	01000005 	tsteq	r0, r5
    1e14:	00005300 	andeq	r5, r0, r0, lsl #6
    1e18:	00000000 	andeq	r0, r0, r0
    1e1c:	023c0000 	eorseq	r0, ip, #0
    1e20:	02480000 	subeq	r0, r8, #0
    1e24:	00010000 	andeq	r0, r1, r0
    1e28:	00024859 	andeq	r4, r2, r9, asr r8
    1e2c:	00027400 	andeq	r7, r2, r0, lsl #8
    1e30:	5c000100 	stfpls	f0, [r0], {-0}
    1e34:	00000390 	muleq	r0, r0, r3
    1e38:	000003a8 	andeq	r0, r0, r8, lsr #7
    1e3c:	c05c0001 	subsgt	r0, ip, r1
    1e40:	18000003 	stmdane	r0, {r0, r1}
    1e44:	01000004 	tsteq	r0, r4
    1e48:	058c5900 	streq	r5, [ip, #2304]	; 0x900
    1e4c:	05c80000 	strbeq	r0, [r8]
    1e50:	00010000 	andeq	r0, r1, r0
    1e54:	00000059 	andeq	r0, r0, r9, asr r0
    1e58:	00000000 	andeq	r0, r0, r0
    1e5c:	00024c00 	andeq	r4, r2, r0, lsl #24
    1e60:	00025400 	andeq	r5, r2, r0, lsl #8
    1e64:	53000100 	movwpl	r0, #256	; 0x100
    1e68:	00000254 	andeq	r0, r0, r4, asr r2
    1e6c:	0000025c 	andeq	r0, r0, ip, asr r2
    1e70:	007c0005 	rsbseq	r0, ip, r5
    1e74:	009f1a3f 	addseq	r1, pc, pc, lsr sl	; <UNPREDICTABLE>
    1e78:	00000000 	andeq	r0, r0, r0
    1e7c:	24000000 	strcs	r0, [r0], #-0
    1e80:	2c000002 	stccs	0, cr0, [r0], {2}
    1e84:	01000002 	tsteq	r0, r2
    1e88:	03745800 	cmneq	r4, #0, 16
    1e8c:	03880000 	orreq	r0, r8, #0
    1e90:	00020000 	andeq	r0, r2, r0
    1e94:	00009f30 	andeq	r9, r0, r0, lsr pc
    1e98:	00000000 	andeq	r0, r0, r0
    1e9c:	02340000 	eorseq	r0, r4, #0
    1ea0:	02740000 	rsbseq	r0, r4, #0
    1ea4:	00020000 	andeq	r0, r2, r0
    1ea8:	03749f30 	cmneq	r4, #48, 30	; 0xc0
    1eac:	03880000 	orreq	r0, r8, #0
    1eb0:	00020000 	andeq	r0, r2, r0
    1eb4:	03909f30 	orrseq	r9, r0, #48, 30	; 0xc0
    1eb8:	03a80000 			; <UNDEFINED> instruction: 0x03a80000
    1ebc:	00020000 	andeq	r0, r2, r0
    1ec0:	03c09f30 	biceq	r9, r0, #48, 30	; 0xc0
    1ec4:	04000000 	streq	r0, [r0], #-0
    1ec8:	00010000 	andeq	r0, r1, r0
    1ecc:	00058c5c 	andeq	r8, r5, ip, asr ip
    1ed0:	0005c800 	andeq	ip, r5, r0, lsl #16
    1ed4:	5c000100 	stfpls	f0, [r0], {-0}
	...
    1ee0:	00000290 	muleq	r0, r0, r2
    1ee4:	00000294 	muleq	r0, r4, r2
    1ee8:	00700008 	rsbseq	r0, r0, r8
    1eec:	231c6c91 	tstcs	ip, #37120	; 0x9100
    1ef0:	02949f73 	addseq	r9, r4, #460	; 0x1cc
    1ef4:	02a80000 	adceq	r0, r8, #0
    1ef8:	00080000 	andeq	r0, r8, r0
    1efc:	6c910070 	ldcvs	0, cr0, [r1], {112}	; 0x70
    1f00:	9f74231c 	svcls	0x0074231c
    1f04:	000002a8 	andeq	r0, r0, r8, lsr #5
    1f08:	000002ac 	andeq	r0, r0, ip, lsr #5
    1f0c:	00700008 	rsbseq	r0, r0, r8
    1f10:	231c6c91 	tstcs	ip, #37120	; 0x9100
    1f14:	00009f73 	andeq	r9, r0, r3, ror pc
    1f18:	00000000 	andeq	r0, r0, r0
    1f1c:	02940000 	addseq	r0, r4, #0
    1f20:	02e00000 	rsceq	r0, r0, #0
    1f24:	00010000 	andeq	r0, r1, r0
    1f28:	0000005c 	andeq	r0, r0, ip, asr r0
    1f2c:	00000000 	andeq	r0, r0, r0
    1f30:	00029400 	andeq	r9, r2, r0, lsl #8
    1f34:	00029800 	andeq	r9, r2, r0, lsl #16
    1f38:	9e000a00 	vmlals.f32	s0, s0, s0
    1f3c:	c2507c08 	subsgt	r7, r0, #8, 24	; 0x800
    1f40:	00000001 	andeq	r0, r0, r1
	...
    1f4c:	0002a000 	andeq	sl, r2, r0
    1f50:	0002a800 	andeq	sl, r2, r0, lsl #16
    1f54:	5c000100 	stfpls	f0, [r0], {-0}
	...
    1f60:	000002a0 	andeq	r0, r0, r0, lsr #5
    1f64:	000002a8 	andeq	r0, r0, r8, lsr #5
    1f68:	089e000a 	ldmeq	lr, {r1, r3}
    1f6c:	01c25000 	biceq	r5, r2, r0
	...
    1f7c:	000002b4 			; <UNDEFINED> instruction: 0x000002b4
    1f80:	000002bc 			; <UNDEFINED> instruction: 0x000002bc
    1f84:	bc560001 	mrrclt	0, 0, r0, r6, cr1
    1f88:	d0000002 	andle	r0, r0, r2
    1f8c:	01000002 	tsteq	r0, r2
    1f90:	02d05000 	sbcseq	r5, r0, #0
    1f94:	02d80000 	sbcseq	r0, r8, #0
    1f98:	00030000 	andeq	r0, r3, r0
    1f9c:	d89f0170 	ldmle	pc, {r4, r5, r6, r8}	; <UNPREDICTABLE>
    1fa0:	e0000002 	and	r0, r0, r2
    1fa4:	01000002 	tsteq	r0, r2
    1fa8:	00005000 	andeq	r5, r0, r0
    1fac:	00000000 	andeq	r0, r0, r0
    1fb0:	02c00000 	sbceq	r0, r0, #0
    1fb4:	02c40000 	sbceq	r0, r4, #0
    1fb8:	000a0000 	andeq	r0, sl, r0
    1fbc:	507c089e 			; <UNDEFINED> instruction: 0x507c089e
    1fc0:	000001c2 	andeq	r0, r0, r2, asr #3
	...
    1fcc:	02cc0000 	sbceq	r0, ip, #0
    1fd0:	02d80000 	sbcseq	r0, r8, #0
    1fd4:	000a0000 	andeq	r0, sl, r0
    1fd8:	5000089e 	mulpl	r0, lr, r8
    1fdc:	000001c2 	andeq	r0, r0, r2, asr #3
	...
    1fe8:	04180000 	ldreq	r0, [r8], #-0
    1fec:	04200000 	strteq	r0, [r0], #-0
    1ff0:	00030000 	andeq	r0, r3, r0
    1ff4:	209f7f73 	addscs	r7, pc, r3, ror pc	; <UNPREDICTABLE>
    1ff8:	24000004 	strcs	r0, [r0], #-4
    1ffc:	08000004 	stmdaeq	r0, {r2}
    2000:	91007000 	mrsls	r7, (UNDEF: 0)
    2004:	73231c6c 			; <UNDEFINED> instruction: 0x73231c6c
    2008:	0004249f 	muleq	r4, pc, r4	; <UNPREDICTABLE>
    200c:	00043800 	andeq	r3, r4, r0, lsl #16
    2010:	70000800 	andvc	r0, r0, r0, lsl #16
    2014:	1c6c9100 	stfnep	f1, [ip], #-0
    2018:	389f7423 	ldmcc	pc, {r0, r1, r5, sl, ip, sp, lr}	; <UNPREDICTABLE>
    201c:	40000004 	andmi	r0, r0, r4
    2020:	08000004 	stmdaeq	r0, {r2}
    2024:	91007000 	mrsls	r7, (UNDEF: 0)
    2028:	73231c6c 			; <UNDEFINED> instruction: 0x73231c6c
    202c:	0000009f 	muleq	r0, pc, r0	; <UNPREDICTABLE>
    2030:	00000000 	andeq	r0, r0, r0
    2034:	00042400 	andeq	r2, r4, r0, lsl #8
    2038:	00044000 	andeq	r4, r4, r0
    203c:	5c000100 	stfpls	f0, [r0], {-0}
	...
    2048:	00000424 	andeq	r0, r0, r4, lsr #8
    204c:	00000428 	andeq	r0, r0, r8, lsr #8
    2050:	089e000a 	ldmeq	lr, {r1, r3}
    2054:	01c2507c 	biceq	r5, r2, ip, ror r0
	...
    2064:	00000430 	andeq	r0, r0, r0, lsr r4
    2068:	00000438 	andeq	r0, r0, r8, lsr r4
    206c:	005c0001 	subseq	r0, ip, r1
    2070:	00000000 	andeq	r0, r0, r0
    2074:	30000000 	andcc	r0, r0, r0
    2078:	38000004 	stmdacc	r0, {r2}
    207c:	0a000004 	beq	2094 <__spl_size+0x7f0>
    2080:	00089e00 	andeq	r9, r8, r0, lsl #28
    2084:	0001c250 	andeq	ip, r1, r0, asr r2
	...
    2090:	60000000 	andvs	r0, r0, r0
    2094:	68000005 	stmdavs	r0, {r0, r2}
    2098:	01000005 	tsteq	r0, r5
    209c:	05685600 	strbeq	r5, [r8, #-1536]!	; 0xfffffa00
    20a0:	057c0000 	ldrbeq	r0, [ip, #-0]!
    20a4:	00010000 	andeq	r0, r1, r0
    20a8:	00057c5c 	andeq	r7, r5, ip, asr ip
    20ac:	00058400 	andeq	r8, r5, r0, lsl #8
    20b0:	7c000300 	stcvc	3, cr0, [r0], {-0}
    20b4:	05849f01 	streq	r9, [r4, #3841]	; 0xf01
    20b8:	058c0000 	streq	r0, [ip]
    20bc:	00010000 	andeq	r0, r1, r0
    20c0:	0000005c 	andeq	r0, r0, ip, asr r0
    20c4:	00000000 	andeq	r0, r0, r0
    20c8:	00056c00 	andeq	r6, r5, r0, lsl #24
    20cc:	00057000 	andeq	r7, r5, r0
    20d0:	9e000a00 	vmlals.f32	s0, s0, s0
    20d4:	c2507c08 	subsgt	r7, r0, #8, 24	; 0x800
    20d8:	00000001 	andeq	r0, r0, r1
	...
    20e4:	00057800 	andeq	r7, r5, r0, lsl #16
    20e8:	00058400 	andeq	r8, r5, r0, lsl #8
    20ec:	9e000a00 	vmlals.f32	s0, s0, s0
    20f0:	c2500008 	subsgt	r0, r0, #8
    20f4:	00000001 	andeq	r0, r0, r1
	...
    2100:	0001c800 	andeq	ip, r1, r0, lsl #16
    2104:	0001cc00 	andeq	ip, r1, r0, lsl #24
    2108:	9e000a00 	vmlals.f32	s0, s0, s0
    210c:	c2507c08 	subsgt	r7, r0, #8, 24	; 0x800
    2110:	00000001 	andeq	r0, r0, r1
	...
    211c:	0001d400 	andeq	sp, r1, r0, lsl #8
    2120:	0001dc00 	andeq	sp, r1, r0, lsl #24
    2124:	08000300 	stmdaeq	r0, {r8, r9}
    2128:	00009f25 	andeq	r9, r0, r5, lsr #30
    212c:	00000000 	andeq	r0, r0, r0
    2130:	01d40000 	bicseq	r0, r4, r0
    2134:	01dc0000 	bicseq	r0, ip, r0
    2138:	000a0000 	andeq	r0, sl, r0
    213c:	5000089e 	mulpl	r0, lr, r8
    2140:	000001c2 	andeq	r0, r0, r2, asr #3
	...
    214c:	03000000 	movweq	r0, #0
    2150:	03080000 	movweq	r0, #32768	; 0x8000
    2154:	00030000 	andeq	r0, r3, r0
    2158:	089f7f76 	ldmeq	pc, {r1, r2, r4, r5, r6, r8, r9, sl, fp, ip, sp, lr}	; <UNPREDICTABLE>
    215c:	1c000003 	stcne	0, cr0, [r0], {3}
    2160:	01000003 	tsteq	r0, r3
    2164:	031c5600 	tsteq	ip, #0, 12
    2168:	03240000 			; <UNDEFINED> instruction: 0x03240000
    216c:	00030000 	andeq	r0, r3, r0
    2170:	249f0176 	ldrcs	r0, [pc], #374	; 2178 <__spl_size+0x8d4>
    2174:	30000003 	andcc	r0, r0, r3
    2178:	01000003 	tsteq	r0, r3
    217c:	05f05600 	ldrbeq	r5, [r0, #1536]!	; 0x600
    2180:	05f80000 	ldrbeq	r0, [r8, #0]!
    2184:	00030000 	andeq	r0, r3, r0
    2188:	f89f7f76 			; <UNDEFINED> instruction: 0xf89f7f76
    218c:	04000005 	streq	r0, [r0], #-5
    2190:	01000006 	tsteq	r0, r6
    2194:	00005600 	andeq	r5, r0, r0, lsl #12
    2198:	00000000 	andeq	r0, r0, r0
    219c:	030c0000 	movweq	r0, #49152	; 0xc000
    21a0:	03100000 	tsteq	r0, #0
    21a4:	000a0000 	andeq	r0, sl, r0
    21a8:	507c089e 			; <UNDEFINED> instruction: 0x507c089e
    21ac:	000001c2 	andeq	r0, r0, r2, asr #3
	...
    21b8:	03180000 	tsteq	r8, #0
    21bc:	03240000 			; <UNDEFINED> instruction: 0x03240000
    21c0:	000a0000 	andeq	r0, sl, r0
    21c4:	5000089e 	mulpl	r0, lr, r8
    21c8:	000001c2 	andeq	r0, r0, r2, asr #3
	...
    21d4:	03340000 	teqeq	r4, #0
    21d8:	03540000 	cmpeq	r4, #0
    21dc:	00010000 	andeq	r0, r1, r0
    21e0:	00000059 	andeq	r0, r0, r9, asr r0
    21e4:	00000000 	andeq	r0, r0, r0
    21e8:	00033400 	andeq	r3, r3, r0, lsl #8
    21ec:	00033800 	andeq	r3, r3, r0, lsl #16
    21f0:	9e000a00 	vmlals.f32	s0, s0, s0
    21f4:	c2507c08 	subsgt	r7, r0, #8, 24	; 0x800
    21f8:	00000001 	andeq	r0, r0, r1
	...
    2204:	00034000 	andeq	r4, r3, r0
    2208:	00034400 	andeq	r4, r3, r0, lsl #8
    220c:	59000100 	stmdbpl	r0, {r8}
	...
    2218:	00000340 	andeq	r0, r0, r0, asr #6
    221c:	00000344 	andeq	r0, r0, r4, asr #6
    2220:	089e000a 	ldmeq	lr, {r1, r3}
    2224:	01c25000 	biceq	r5, r2, r0
	...
    2234:	0000044c 	andeq	r0, r0, ip, asr #8
    2238:	0000045c 	andeq	r0, r0, ip, asr r4
    223c:	6c530001 	mrrcvs	0, 0, r0, r3, cr1
    2240:	70000004 	andvc	r0, r0, r4
    2244:	01000004 	tsteq	r0, r4
    2248:	04705e00 	ldrbteq	r5, [r0], #-3584	; 0xfffff200
    224c:	04780000 	ldrbteq	r0, [r8], #-0
    2250:	00030000 	andeq	r0, r3, r0
    2254:	009f7f7e 	addseq	r7, pc, lr, ror pc	; <UNPREDICTABLE>
    2258:	00000000 	andeq	r0, r0, r0
    225c:	5c000000 	stcpl	0, cr0, [r0], {-0}
    2260:	60000004 	andvs	r0, r0, r4
    2264:	0a000004 	beq	227c <__spl_size+0x9d8>
    2268:	7c089e00 	stcvc	14, cr9, [r8], {-0}
    226c:	0001c250 	andeq	ip, r1, r0, asr r2
	...
    2278:	68000000 	stmdavs	r0, {}	; <UNPREDICTABLE>
    227c:	6c000004 	stcvs	0, cr0, [r0], {4}
    2280:	01000004 	tsteq	r0, r4
    2284:	00005c00 	andeq	r5, r0, r0, lsl #24
    2288:	00000000 	andeq	r0, r0, r0
    228c:	04680000 	strbteq	r0, [r8], #-0
    2290:	046c0000 	strbteq	r0, [ip], #-0
    2294:	000a0000 	andeq	r0, sl, r0
    2298:	5000089e 	mulpl	r0, lr, r8
    229c:	000001c2 	andeq	r0, r0, r2, asr #3
	...
    22a8:	04b40000 	ldrteq	r0, [r4], #0
    22ac:	04bc0000 	ldrteq	r0, [ip], #0
    22b0:	00010000 	andeq	r0, r1, r0
    22b4:	0004bc50 	andeq	fp, r4, r0, asr ip
    22b8:	0004c000 	andeq	ip, r4, r0
    22bc:	5c000100 	stfpls	f0, [r0], {-0}
    22c0:	000004d8 	ldrdeq	r0, [r0], -r8
    22c4:	000004e8 	andeq	r0, r0, r8, ror #9
    22c8:	d85c0001 	ldmdale	ip, {r0}^
    22cc:	e4000005 	str	r0, [r0], #-5
    22d0:	07000005 	streq	r0, [r0, -r5]
    22d4:	20007000 	andcs	r7, r0, r0
    22d8:	9f220076 	svcls	0x00220076
    22dc:	000005e4 	andeq	r0, r0, r4, ror #11
    22e0:	000005f0 	strdeq	r0, [r0], -r0	; <UNPREDICTABLE>
    22e4:	7f700003 	svcvc	0x00700003
    22e8:	0000009f 	muleq	r0, pc, r0	; <UNPREDICTABLE>
    22ec:	00000000 	andeq	r0, r0, r0
    22f0:	0004c000 	andeq	ip, r4, r0
    22f4:	0004c400 	andeq	ip, r4, r0, lsl #8
    22f8:	9e000a00 	vmlals.f32	s0, s0, s0
    22fc:	c2507c08 	subsgt	r7, r0, #8, 24	; 0x800
    2300:	00000001 	andeq	r0, r0, r1
	...
    230c:	0004cc00 	andeq	ip, r4, r0, lsl #24
    2310:	0004d800 	andeq	sp, r4, r0, lsl #16
    2314:	9e000a00 	vmlals.f32	s0, s0, s0
    2318:	c2500008 	subsgt	r0, r0, #8
    231c:	00000001 	andeq	r0, r0, r1
	...
    2328:	0004ec00 	andeq	lr, r4, r0, lsl #24
    232c:	00050400 	andeq	r0, r5, r0, lsl #8
    2330:	50000100 	andpl	r0, r0, r0, lsl #2
    2334:	000005f0 	strdeq	r0, [r0], -r0	; <UNPREDICTABLE>
    2338:	00000604 	andeq	r0, r0, r4, lsl #12
    233c:	00500001 	subseq	r0, r0, r1
    2340:	00000000 	andeq	r0, r0, r0
    2344:	ec000000 	stc	0, cr0, [r0], {-0}
    2348:	f0000004 			; <UNDEFINED> instruction: 0xf0000004
    234c:	0a000004 	beq	2364 <__spl_size+0xac0>
    2350:	7c089e00 	stcvc	14, cr9, [r8], {-0}
    2354:	0001c250 	andeq	ip, r1, r0, asr r2
	...
    2360:	f8000000 			; <UNDEFINED> instruction: 0xf8000000
    2364:	00000004 	andeq	r0, r0, r4
    2368:	01000005 	tsteq	r0, r5
    236c:	00005000 	andeq	r5, r0, r0
    2370:	00000000 	andeq	r0, r0, r0
    2374:	04f80000 	ldrbteq	r0, [r8], #0
    2378:	05000000 	streq	r0, [r0, #-0]
    237c:	000a0000 	andeq	r0, sl, r0
    2380:	5000089e 	mulpl	r0, lr, r8
    2384:	000001c2 	andeq	r0, r0, r2, asr #3
	...
    2390:	05340000 	ldreq	r0, [r4, #-0]!
    2394:	05400000 	strbeq	r0, [r0, #-0]
    2398:	00010000 	andeq	r0, r1, r0
    239c:	00055059 	andeq	r5, r5, r9, asr r0
    23a0:	00055400 	andeq	r5, r5, r0, lsl #8
    23a4:	53000100 	movwpl	r0, #256	; 0x100
    23a8:	00000554 	andeq	r0, r0, r4, asr r5
    23ac:	00000560 	andeq	r0, r0, r0, ror #10
    23b0:	7f730003 	svcvc	0x00730003
    23b4:	0000009f 	muleq	r0, pc, r0	; <UNPREDICTABLE>
    23b8:	00000000 	andeq	r0, r0, r0
    23bc:	00054000 	andeq	r4, r5, r0
    23c0:	00054400 	andeq	r4, r5, r0, lsl #8
    23c4:	9e000a00 	vmlals.f32	s0, s0, s0
    23c8:	c2507c08 	subsgt	r7, r0, #8, 24	; 0x800
    23cc:	00000001 	andeq	r0, r0, r1
	...
    23d8:	00054c00 	andeq	r4, r5, r0, lsl #24
    23dc:	00055000 	andeq	r5, r5, r0
    23e0:	5c000100 	stfpls	f0, [r0], {-0}
	...
    23ec:	0000054c 	andeq	r0, r0, ip, asr #10
    23f0:	00000550 	andeq	r0, r0, r0, asr r5
    23f4:	089e000a 	ldmeq	lr, {r1, r3}
    23f8:	01c25000 	biceq	r5, r2, r0
	...
    240c:	00000030 	andeq	r0, r0, r0, lsr r0
    2410:	089e000a 	ldmeq	lr, {r1, r3}
    2414:	01c20890 			; <UNDEFINED> instruction: 0x01c20890
    2418:	00000000 	andeq	r0, r0, r0
    241c:	00000030 	andeq	r0, r0, r0, lsr r0
    2420:	00000040 	andeq	r0, r0, r0, asr #32
    2424:	089e000a 	ldmeq	lr, {r1, r3}
    2428:	01c20068 	biceq	r0, r2, r8, rrx
    242c:	00000000 	andeq	r0, r0, r0
    2430:	00000040 	andeq	r0, r0, r0, asr #32
    2434:	00000050 	andeq	r0, r0, r0, asr r0
    2438:	089e000a 	ldmeq	lr, {r1, r3}
    243c:	01c202d0 	ldrdeq	r0, [r2, #32]
    2440:	00000000 	andeq	r0, r0, r0
    2444:	00000050 	andeq	r0, r0, r0, asr r0
    2448:	00000098 	muleq	r0, r8, r0
    244c:	089e000a 	ldmeq	lr, {r1, r3}
    2450:	01c25000 	biceq	r5, r2, r0
	...
    2460:	00000014 	andeq	r0, r0, r4, lsl r0
    2464:	00000020 	andeq	r0, r0, r0, lsr #32
    2468:	28510001 	ldmdacs	r1, {r0}^
    246c:	34000000 	strcc	r0, [r0], #-0
    2470:	01000000 	mrseq	r0, (UNDEF: 0)
    2474:	003c5100 	eorseq	r5, ip, r0, lsl #2
    2478:	00440000 	subeq	r0, r4, r0
    247c:	00010000 	andeq	r0, r1, r0
    2480:	00004c51 	andeq	r4, r0, r1, asr ip
    2484:	00006000 	andeq	r6, r0, r0
    2488:	51000100 	mrspl	r0, (UNDEF: 16)
    248c:	00000064 	andeq	r0, r0, r4, rrx
    2490:	00000074 	andeq	r0, r0, r4, ror r0
    2494:	78520001 	ldmdavc	r2, {r0}^
    2498:	80000000 	andhi	r0, r0, r0
    249c:	01000000 	mrseq	r0, (UNDEF: 0)
    24a0:	00845200 	addeq	r5, r4, r0, lsl #4
    24a4:	00980000 	addseq	r0, r8, r0
    24a8:	00010000 	andeq	r0, r1, r0
    24ac:	00000052 	andeq	r0, r0, r2, asr r0
	...
    24b8:	00000c00 	andeq	r0, r0, r0, lsl #24
    24bc:	9e000a00 	vmlals.f32	s0, s0, s0
    24c0:	c2089008 	andgt	r9, r8, #8
    24c4:	00000001 	andeq	r0, r0, r1
	...
    24d0:	00005000 	andeq	r5, r0, r0
    24d4:	00005400 	andeq	r5, r0, r0, lsl #8
    24d8:	30000200 	andcc	r0, r0, r0, lsl #4
    24dc:	0000009f 	muleq	r0, pc, r0	; <UNPREDICTABLE>
    24e0:	00000000 	andeq	r0, r0, r0
    24e4:	00005000 	andeq	r5, r0, r0
    24e8:	00005400 	andeq	r5, r0, r0, lsl #8
    24ec:	9e000a00 	vmlals.f32	s0, s0, s0
    24f0:	c2500408 	subsgt	r0, r0, #8, 8	; 0x8000000
    24f4:	00000001 	andeq	r0, r0, r1
	...
    2500:	00001800 	andeq	r1, r0, r0, lsl #16
    2504:	00001c00 	andeq	r1, r0, r0, lsl #24
    2508:	51000100 	mrspl	r0, (UNDEF: 16)
	...
    2514:	00000018 	andeq	r0, r0, r8, lsl r0
    2518:	0000001c 	andeq	r0, r0, ip, lsl r0
    251c:	089e000a 	ldmeq	lr, {r1, r3}
    2520:	01c20890 			; <UNDEFINED> instruction: 0x01c20890
	...
    2530:	0000001c 	andeq	r0, r0, ip, lsl r0
    2534:	00000020 	andeq	r0, r0, r0, lsr #32
    2538:	089e000a 	ldmeq	lr, {r1, r3}
    253c:	01c20890 			; <UNDEFINED> instruction: 0x01c20890
	...
    254c:	0000002c 	andeq	r0, r0, ip, lsr #32
    2550:	00000030 	andeq	r0, r0, r0, lsr r0
    2554:	00510001 	subseq	r0, r1, r1
    2558:	00000000 	andeq	r0, r0, r0
    255c:	2c000000 	stccs	0, cr0, [r0], {-0}
    2560:	30000000 	andcc	r0, r0, r0
    2564:	0a000000 	beq	256c <__spl_size+0xcc8>
    2568:	90089e00 	andls	r9, r8, r0, lsl #28
    256c:	0001c208 	andeq	ip, r1, r8, lsl #4
	...
    2578:	30000000 	andcc	r0, r0, r0
    257c:	34000000 	strcc	r0, [r0], #-0
    2580:	0a000000 	beq	2588 <__spl_size+0xce4>
    2584:	68089e00 	stmdavs	r8, {r9, sl, fp, ip, pc}
    2588:	0001c200 	andeq	ip, r1, r0, lsl #4
	...
    2594:	54000000 	strpl	r0, [r0], #-0
    2598:	58000000 	stmdapl	r0, {}	; <UNPREDICTABLE>
    259c:	03000000 	movweq	r0, #0
    25a0:	9ff70800 	svcls	0x00f70800
	...
    25ac:	00000054 	andeq	r0, r0, r4, asr r0
    25b0:	00000058 	andeq	r0, r0, r8, asr r0
    25b4:	089e000a 	ldmeq	lr, {r1, r3}
    25b8:	01c25008 	biceq	r5, r2, r8
	...
    25c8:	0000003c 	andeq	r0, r0, ip, lsr r0
    25cc:	00000040 	andeq	r0, r0, r0, asr #32
    25d0:	00510001 	subseq	r0, r1, r1
    25d4:	00000000 	andeq	r0, r0, r0
    25d8:	3c000000 	stccc	0, cr0, [r0], {-0}
    25dc:	40000000 	andmi	r0, r0, r0
    25e0:	0a000000 	beq	25e8 <__spl_size+0xd44>
    25e4:	68089e00 	stmdavs	r8, {r9, sl, fp, ip, pc}
    25e8:	0001c200 	andeq	ip, r1, r0, lsl #4
	...
    25f4:	40000000 	andmi	r0, r0, r0
    25f8:	44000000 	strmi	r0, [r0], #-0
    25fc:	0a000000 	beq	2604 <__spl_size+0xd60>
    2600:	d0089e00 	andle	r9, r8, r0, lsl #28
    2604:	0001c202 	andeq	ip, r1, r2, lsl #4
	...
    2610:	68000000 	stmdavs	r0, {}	; <UNPREDICTABLE>
    2614:	6c000000 	stcvs	0, cr0, [r0], {-0}
    2618:	03000000 	movweq	r0, #0
    261c:	9f360800 	svcls	0x00360800
	...
    2628:	00000068 	andeq	r0, r0, r8, rrx
    262c:	0000006c 	andeq	r0, r0, ip, rrx
    2630:	089e000a 	ldmeq	lr, {r1, r3}
    2634:	01c25000 	biceq	r5, r2, r0
	...
    2644:	0000004c 	andeq	r0, r0, ip, asr #32
    2648:	00000050 	andeq	r0, r0, r0, asr r0
    264c:	00510001 	subseq	r0, r1, r1
    2650:	00000000 	andeq	r0, r0, r0
    2654:	4c000000 	stcmi	0, cr0, [r0], {-0}
    2658:	50000000 	andpl	r0, r0, r0
    265c:	0a000000 	beq	2664 <__spl_size+0xdc0>
    2660:	d0089e00 	andle	r9, r8, r0, lsl #28
    2664:	0001c202 	andeq	ip, r1, r2, lsl #4
	...
    2670:	58000000 	stmdapl	r0, {}	; <UNPREDICTABLE>
    2674:	5c000000 	stcpl	0, cr0, [r0], {-0}
    2678:	02000000 	andeq	r0, r0, #0
    267c:	009f3000 	addseq	r3, pc, r0
    2680:	00000000 	andeq	r0, r0, r0
    2684:	58000000 	stmdapl	r0, {}	; <UNPREDICTABLE>
    2688:	5c000000 	stcpl	0, cr0, [r0], {-0}
    268c:	0a000000 	beq	2694 <__spl_size+0xdf0>
    2690:	10089e00 	andne	r9, r8, r0, lsl #28
    2694:	0001c250 	andeq	ip, r1, r0, asr r2
	...
    26a0:	5c000000 	stcpl	0, cr0, [r0], {-0}
    26a4:	60000000 	andvs	r0, r0, r0
    26a8:	0a000000 	beq	26b0 <__spl_size+0xe0c>
    26ac:	0c089e00 	stceq	14, cr9, [r8], {-0}
    26b0:	0001c250 	andeq	ip, r1, r0, asr r2
	...
    26bc:	64000000 	strvs	r0, [r0], #-0
    26c0:	68000000 	stmdavs	r0, {}	; <UNPREDICTABLE>
    26c4:	01000000 	mrseq	r0, (UNDEF: 0)
    26c8:	00005200 	andeq	r5, r0, r0, lsl #4
    26cc:	00000000 	andeq	r0, r0, r0
    26d0:	00640000 	rsbeq	r0, r4, r0
    26d4:	00680000 	rsbeq	r0, r8, r0
    26d8:	000a0000 	andeq	r0, sl, r0
    26dc:	500c089e 	mulpl	ip, lr, r8
    26e0:	000001c2 	andeq	r0, r0, r2, asr #3
	...
    26ec:	006c0000 	rsbeq	r0, ip, r0
    26f0:	00700000 	rsbseq	r0, r0, r0
    26f4:	00020000 	andeq	r0, r2, r0
    26f8:	00009f30 	andeq	r9, r0, r0, lsr pc
    26fc:	00000000 	andeq	r0, r0, r0
    2700:	006c0000 	rsbeq	r0, ip, r0
    2704:	00700000 	rsbseq	r0, r0, r0
    2708:	000a0000 	andeq	r0, sl, r0
    270c:	5004089e 	mulpl	r4, lr, r8
    2710:	000001c2 	andeq	r0, r0, r2, asr #3
	...
    271c:	00700000 	rsbseq	r0, r0, r0
    2720:	00740000 	rsbseq	r0, r4, r0
    2724:	000a0000 	andeq	r0, sl, r0
    2728:	500c089e 	mulpl	ip, lr, r8
    272c:	000001c2 	andeq	r0, r0, r2, asr #3
	...
    2738:	00780000 	rsbseq	r0, r8, r0
    273c:	007c0000 	rsbseq	r0, ip, r0
    2740:	00010000 	andeq	r0, r1, r0
    2744:	00000052 	andeq	r0, r0, r2, asr r0
    2748:	00000000 	andeq	r0, r0, r0
    274c:	00007800 	andeq	r7, r0, r0, lsl #16
    2750:	00007c00 	andeq	r7, r0, r0, lsl #24
    2754:	9e000a00 	vmlals.f32	s0, s0, s0
    2758:	c2500c08 	subsgt	r0, r0, #8, 24	; 0x800
    275c:	00000001 	andeq	r0, r0, r1
	...
    2768:	00007c00 	andeq	r7, r0, r0, lsl #24
    276c:	00008000 	andeq	r8, r0, r0
    2770:	9e000a00 	vmlals.f32	s0, s0, s0
    2774:	c2500c08 	subsgt	r0, r0, #8, 24	; 0x800
    2778:	00000001 	andeq	r0, r0, r1
	...
    2784:	00008800 	andeq	r8, r0, r0, lsl #16
    2788:	00008c00 	andeq	r8, r0, r0, lsl #24
    278c:	52000100 	andpl	r0, r0, #0, 2
	...
    2798:	00000088 	andeq	r0, r0, r8, lsl #1
    279c:	0000008c 	andeq	r0, r0, ip, lsl #1
    27a0:	089e000a 	ldmeq	lr, {r1, r3}
    27a4:	01c2500c 	biceq	r5, r2, ip
	...
    27b4:	0000009c 	muleq	r0, ip, r0
    27b8:	000000a0 	andeq	r0, r0, r0, lsr #1
    27bc:	089e000a 	ldmeq	lr, {r1, r3}
    27c0:	01c2507c 	biceq	r5, r2, ip, ror r0
	...
    27d0:	000000a8 	andeq	r0, r0, r8, lsr #1
    27d4:	000000ac 	andeq	r0, r0, ip, lsr #1
    27d8:	00500001 	subseq	r0, r0, r1
    27dc:	00000000 	andeq	r0, r0, r0
    27e0:	a8000000 	stmdage	r0, {}	; <UNPREDICTABLE>
    27e4:	ac000000 	stcge	0, cr0, [r0], {-0}
    27e8:	0a000000 	beq	27f0 <__spl_size+0xf4c>
    27ec:	00089e00 	andeq	r9, r8, r0, lsl #28
    27f0:	0001c250 	andeq	ip, r1, r0, asr r2
	...
    27fc:	b4000000 	strlt	r0, [r0], #-0
    2800:	c4000000 	strgt	r0, [r0], #-0
    2804:	01000000 	mrseq	r0, (UNDEF: 0)
    2808:	00d45000 	sbcseq	r5, r4, r0
    280c:	00d80000 	sbcseq	r0, r8, r0
    2810:	00010000 	andeq	r0, r1, r0
    2814:	0000d850 	andeq	sp, r0, r0, asr r8
    2818:	0000e800 	andeq	lr, r0, r0, lsl #16
    281c:	70000300 	andvc	r0, r0, r0, lsl #6
    2820:	00009f7f 	andeq	r9, r0, pc, ror pc
    2824:	00000000 	andeq	r0, r0, r0
    2828:	00c40000 	sbceq	r0, r4, r0
    282c:	00c80000 	sbceq	r0, r8, r0
    2830:	000a0000 	andeq	r0, sl, r0
    2834:	507c089e 			; <UNDEFINED> instruction: 0x507c089e
    2838:	000001c2 	andeq	r0, r0, r2, asr #3
	...
    2844:	00d00000 	sbcseq	r0, r0, r0
    2848:	00d40000 	sbcseq	r0, r4, r0
    284c:	00010000 	andeq	r0, r1, r0
    2850:	00000051 	andeq	r0, r0, r1, asr r0
    2854:	00000000 	andeq	r0, r0, r0
    2858:	0000d000 	andeq	sp, r0, r0
    285c:	0000d400 	andeq	sp, r0, r0, lsl #8
    2860:	9e000a00 	vmlals.f32	s0, s0, s0
    2864:	c2500008 	subsgt	r0, r0, #8
    2868:	00000001 	andeq	r0, r0, r1
	...
    2874:	0000d000 	andeq	sp, r0, r0
    2878:	0000ec00 	andeq	lr, r0, r0, lsl #24
    287c:	50000100 	andpl	r0, r0, r0, lsl #2
    2880:	000000ec 	andeq	r0, r0, ip, ror #1
    2884:	00000268 	andeq	r0, r0, r8, ror #4
    2888:	01f30004 	mvnseq	r0, r4
    288c:	00009f50 	andeq	r9, r0, r0, asr pc
    2890:	00000000 	andeq	r0, r0, r0
    2894:	00d00000 	sbcseq	r0, r0, r0
    2898:	01800000 	orreq	r0, r0, r0
    289c:	00010000 	andeq	r0, r1, r0
    28a0:	00018051 	andeq	r8, r1, r1, asr r0
    28a4:	00026800 	andeq	r6, r2, r0, lsl #16
    28a8:	f3000400 	vshl.u8	d0, d0, d0
    28ac:	009f5101 	addseq	r5, pc, r1, lsl #2
    28b0:	00000000 	andeq	r0, r0, r0
    28b4:	d0000000 	andle	r0, r0, r0
    28b8:	80000000 	andhi	r0, r0, r0
    28bc:	01000001 	tsteq	r0, r1
    28c0:	01805200 	orreq	r5, r0, r0, lsl #4
    28c4:	02680000 	rsbeq	r0, r8, #0
    28c8:	00040000 	andeq	r0, r4, r0
    28cc:	9f5201f3 	svcls	0x005201f3
	...
    28d8:	00000104 	andeq	r0, r0, r4, lsl #2
    28dc:	00000108 	andeq	r0, r0, r8, lsl #2
    28e0:	005c0001 	subseq	r0, ip, r1
    28e4:	00000000 	andeq	r0, r0, r0
    28e8:	e0000000 	and	r0, r0, r0
    28ec:	fc000000 	stc2	0, cr0, [r0], {-0}
    28f0:	0a000000 	beq	28f8 <__spl_size+0x1054>
    28f4:	08089e00 	stmdaeq	r8, {r9, sl, fp, ip, pc}
    28f8:	0001c050 	andeq	ip, r1, r0, asr r0
	...
    2904:	04000000 	streq	r0, [r0], #-0
    2908:	08000001 	stmdaeq	r0, {r0}
    290c:	0a000001 	beq	2918 <__spl_size+0x1074>
    2910:	08089e00 	stmdaeq	r8, {r9, sl, fp, ip, pc}
    2914:	0001c050 	andeq	ip, r1, r0, asr r0
	...
    2920:	24000000 	strcs	r0, [r0], #-0
    2924:	04000001 	streq	r0, [r0], #-1
    2928:	02000002 	andeq	r0, r0, #2
    292c:	209f3400 	addscs	r3, pc, r0, lsl #8
    2930:	68000002 	stmdavs	r0, {r1}
    2934:	02000002 	andeq	r0, r0, #2
    2938:	009f3400 	addseq	r3, pc, r0, lsl #8
    293c:	00000000 	andeq	r0, r0, r0
    2940:	24000000 	strcs	r0, [r0], #-0
    2944:	80000001 	andhi	r0, r0, r1
    2948:	01000001 	tsteq	r0, r1
    294c:	01805200 	orreq	r5, r0, r0, lsl #4
    2950:	02040000 	andeq	r0, r4, #0
    2954:	00040000 	andeq	r0, r4, r0
    2958:	9f5201f3 	svcls	0x005201f3
    295c:	00000220 	andeq	r0, r0, r0, lsr #4
    2960:	00000268 	andeq	r0, r0, r8, ror #4
    2964:	01f30004 	mvnseq	r0, r4
    2968:	00009f52 	andeq	r9, r0, r2, asr pc
    296c:	00000000 	andeq	r0, r0, r0
    2970:	011c0000 	tsteq	ip, r0
    2974:	01800000 	orreq	r0, r0, r0
    2978:	00010000 	andeq	r0, r1, r0
    297c:	00018051 	andeq	r8, r1, r1, asr r0
    2980:	00020400 	andeq	r0, r2, r0, lsl #8
    2984:	f3000400 	vshl.u8	d0, d0, d0
    2988:	209f5101 	addscs	r5, pc, r1, lsl #2
    298c:	68000002 	stmdavs	r0, {r1}
    2990:	04000002 	streq	r0, [r0], #-2
    2994:	5101f300 	mrspl	pc, SP_irq	; <UNPREDICTABLE>
    2998:	0000009f 	muleq	r0, pc, r0	; <UNPREDICTABLE>
    299c:	00000000 	andeq	r0, r0, r0
    29a0:	00010800 	andeq	r0, r1, r0, lsl #16
    29a4:	00020400 	andeq	r0, r2, r0, lsl #8
    29a8:	91000300 	mrsls	r0, LR_irq
    29ac:	02209f64 	eoreq	r9, r0, #100, 30	; 0x190
    29b0:	02680000 	rsbeq	r0, r8, #0
    29b4:	00030000 	andeq	r0, r3, r0
    29b8:	009f6491 	umullseq	r6, pc, r1, r4	; <UNPREDICTABLE>
    29bc:	00000000 	andeq	r0, r0, r0
    29c0:	24000000 	strcs	r0, [r0], #-0
    29c4:	70000001 	andvc	r0, r0, r1
    29c8:	02000001 	andeq	r0, r0, #1
    29cc:	709f3400 	addsvc	r3, pc, r0, lsl #8
    29d0:	68000001 	stmdavs	r0, {r0}
    29d4:	02000002 	andeq	r0, r0, #2
    29d8:	009f3000 	addseq	r3, pc, r0
    29dc:	00000000 	andeq	r0, r0, r0
    29e0:	24000000 	strcs	r0, [r0], #-0
    29e4:	70000001 	andvc	r0, r0, r1
    29e8:	03000001 	movweq	r0, #1
    29ec:	9f649100 	svcls	0x00649100
    29f0:	00000170 	andeq	r0, r0, r0, ror r1
    29f4:	0000021c 	andeq	r0, r0, ip, lsl r2
    29f8:	68910003 	ldmvs	r1, {r0, r1}
    29fc:	00021c9f 	muleq	r2, pc, ip	; <UNPREDICTABLE>
    2a00:	00022000 	andeq	r2, r2, r0
    2a04:	5d000100 	stfpls	f0, [r0, #-0]
    2a08:	00000220 	andeq	r0, r0, r0, lsr #4
    2a0c:	00000268 	andeq	r0, r0, r8, ror #4
    2a10:	68910003 	ldmvs	r1, {r0, r1}
    2a14:	0000009f 	muleq	r0, pc, r0	; <UNPREDICTABLE>
    2a18:	00000000 	andeq	r0, r0, r0
    2a1c:	00012400 	andeq	r2, r1, r0, lsl #8
    2a20:	00013c00 	andeq	r3, r1, r0, lsl #24
    2a24:	34000200 	strcc	r0, [r0], #-512	; 0xfffffe00
    2a28:	0000009f 	muleq	r0, pc, r0	; <UNPREDICTABLE>
    2a2c:	00000000 	andeq	r0, r0, r0
    2a30:	00012400 	andeq	r2, r1, r0, lsl #8
    2a34:	00012800 	andeq	r2, r1, r0, lsl #16
    2a38:	91000300 	mrsls	r0, LR_irq
    2a3c:	01289f66 			; <UNDEFINED> instruction: 0x01289f66
    2a40:	01340000 	teqeq	r4, r0
    2a44:	00030000 	andeq	r0, r3, r0
    2a48:	349f6791 	ldrcc	r6, [pc], #1937	; 2a50 <__spl_size+0x11ac>
    2a4c:	3c000001 	stccc	0, cr0, [r0], {1}
    2a50:	03000001 	movweq	r0, #1
    2a54:	9f689100 	svcls	0x00689100
	...
    2a60:	00000124 	andeq	r0, r0, r4, lsr #2
    2a64:	00000128 	andeq	r0, r0, r8, lsr #2
    2a68:	2c500001 	mrrccs	0, 0, r0, r0, cr1	; <UNPREDICTABLE>
    2a6c:	34000001 	strcc	r0, [r0], #-1
    2a70:	01000001 	tsteq	r0, r1
    2a74:	01385e00 	teqeq	r8, r0, lsl #28
    2a78:	013c0000 	teqeq	ip, r0
    2a7c:	00010000 	andeq	r0, r1, r0
    2a80:	0000005e 	andeq	r0, r0, lr, asr r0
    2a84:	00000000 	andeq	r0, r0, r0
    2a88:	00012400 	andeq	r2, r1, r0, lsl #8
    2a8c:	00012800 	andeq	r2, r1, r0, lsl #16
    2a90:	9e000a00 	vmlals.f32	s0, s0, s0
    2a94:	c0520008 	subsgt	r0, r2, r8
    2a98:	00000001 	andeq	r0, r0, r1
    2a9c:	00012c00 	andeq	r2, r1, r0, lsl #24
    2aa0:	00013400 	andeq	r3, r1, r0, lsl #8
    2aa4:	9e000a00 	vmlals.f32	s0, s0, s0
    2aa8:	c0520008 	subsgt	r0, r2, r8
    2aac:	00000001 	andeq	r0, r0, r1
    2ab0:	00013800 	andeq	r3, r1, r0, lsl #16
    2ab4:	00013c00 	andeq	r3, r1, r0, lsl #24
    2ab8:	9e000a00 	vmlals.f32	s0, s0, s0
    2abc:	c0520008 	subsgt	r0, r2, r8
    2ac0:	00000001 	andeq	r0, r0, r1
	...
    2acc:	00014800 	andeq	r4, r1, r0, lsl #16
    2ad0:	00014c00 	andeq	r4, r1, r0, lsl #24
    2ad4:	9e000a00 	vmlals.f32	s0, s0, s0
    2ad8:	c0501c08 	subsgt	r1, r0, r8, lsl #24
    2adc:	00000001 	andeq	r0, r0, r1
	...
    2ae8:	00013c00 	andeq	r3, r1, r0, lsl #24
    2aec:	00014000 	andeq	r4, r1, r0
    2af0:	9e000a00 	vmlals.f32	s0, s0, s0
    2af4:	c0500808 	subsgt	r0, r0, r8, lsl #16
    2af8:	00000001 	andeq	r0, r0, r1
	...
    2b04:	00014400 	andeq	r4, r1, r0, lsl #8
    2b08:	00018000 	andeq	r8, r1, r0
    2b0c:	5c000100 	stfpls	f0, [r0], {-0}
	...
    2b18:	00000158 	andeq	r0, r0, r8, asr r1
    2b1c:	00000170 	andeq	r0, r0, r0, ror r1
    2b20:	089e000a 	ldmeq	lr, {r1, r3}
    2b24:	01c05300 	biceq	r5, r0, r0, lsl #6
	...
    2b34:	00000170 	andeq	r0, r0, r0, ror r1
    2b38:	00000204 	andeq	r0, r0, r4, lsl #4
    2b3c:	20520001 	subscs	r0, r2, r1
    2b40:	68000002 	stmdavs	r0, {r1}
    2b44:	01000002 	tsteq	r0, r2
    2b48:	00005200 	andeq	r5, r0, r0, lsl #4
    2b4c:	00000000 	andeq	r0, r0, r0
    2b50:	01700000 	cmneq	r0, r0
    2b54:	02040000 	andeq	r0, r4, #0
    2b58:	00020000 	andeq	r0, r2, r0
    2b5c:	02209f30 	eoreq	r9, r0, #48, 30	; 0xc0
    2b60:	02680000 	rsbeq	r0, r8, #0
    2b64:	00020000 	andeq	r0, r2, r0
    2b68:	00009f30 	andeq	r9, r0, r0, lsr pc
    2b6c:	00000000 	andeq	r0, r0, r0
    2b70:	01700000 	cmneq	r0, r0
    2b74:	01f00000 	mvnseq	r0, r0
    2b78:	00010000 	andeq	r0, r1, r0
    2b7c:	0001f051 	andeq	pc, r1, r1, asr r0	; <UNPREDICTABLE>
    2b80:	0001f800 	andeq	pc, r1, r0, lsl #16
    2b84:	5c000100 	stfpls	f0, [r0], {-0}
    2b88:	000001fc 	strdeq	r0, [r0], -ip
    2b8c:	00000204 	andeq	r0, r0, r4, lsl #4
    2b90:	20510001 	subscs	r0, r1, r1
    2b94:	50000002 	andpl	r0, r0, r2
    2b98:	02000002 	andeq	r0, r0, #2
    2b9c:	509f3000 	addspl	r3, pc, r0
    2ba0:	68000002 	stmdavs	r0, {r1}
    2ba4:	01000002 	tsteq	r0, r2
    2ba8:	00005100 	andeq	r5, r0, r0, lsl #2
    2bac:	00000000 	andeq	r0, r0, r0
    2bb0:	018c0000 	orreq	r0, ip, r0
    2bb4:	01d00000 	bicseq	r0, r0, r0
    2bb8:	00010000 	andeq	r0, r1, r0
    2bbc:	0000005c 	andeq	r0, r0, ip, asr r0
    2bc0:	00000000 	andeq	r0, r0, r0
    2bc4:	0001d000 	andeq	sp, r1, r0
    2bc8:	0001dc00 	andeq	sp, r1, r0, lsl #24
    2bcc:	53000100 	movwpl	r0, #256	; 0x100
    2bd0:	000001dc 	ldrdeq	r0, [r0], -ip
    2bd4:	000001f0 	strdeq	r0, [r0], -r0	; <UNPREDICTABLE>
    2bd8:	7f730003 	svcvc	0x00730003
    2bdc:	0002449f 	muleq	r2, pc, r4	; <UNPREDICTABLE>
    2be0:	00026800 	andeq	r6, r2, r0, lsl #16
    2be4:	73000300 	movwvc	r0, #768	; 0x300
    2be8:	00009f7f 	andeq	r9, r0, pc, ror pc
    2bec:	00000000 	andeq	r0, r0, r0
    2bf0:	018c0000 	orreq	r0, ip, r0
    2bf4:	01980000 	orrseq	r0, r8, r0
    2bf8:	00010000 	andeq	r0, r1, r0
    2bfc:	0000005c 	andeq	r0, r0, ip, asr r0
    2c00:	00000000 	andeq	r0, r0, r0
    2c04:	00018c00 	andeq	r8, r1, r0, lsl #24
    2c08:	00019800 	andeq	r9, r1, r0, lsl #16
    2c0c:	9e000a00 	vmlals.f32	s0, s0, s0
    2c10:	c0503008 	subsgt	r3, r0, r8
    2c14:	00000001 	andeq	r0, r0, r1
	...
    2c20:	00019800 	andeq	r9, r1, r0, lsl #16
    2c24:	0001b000 	andeq	fp, r1, r0
    2c28:	5c000100 	stfpls	f0, [r0], {-0}
	...
    2c34:	00000198 	muleq	r0, r8, r1
    2c38:	000001b0 			; <UNDEFINED> instruction: 0x000001b0
    2c3c:	9f300002 	svcls	0x00300002
	...
    2c48:	00000198 	muleq	r0, r8, r1
    2c4c:	00000204 	andeq	r0, r0, r4, lsl #4
    2c50:	089e000a 	ldmeq	lr, {r1, r3}
    2c54:	01c05000 	biceq	r5, r0, r0
    2c58:	00000000 	andeq	r0, r0, r0
    2c5c:	00000220 	andeq	r0, r0, r0, lsr #4
    2c60:	00000268 	andeq	r0, r0, r8, ror #4
    2c64:	089e000a 	ldmeq	lr, {r1, r3}
    2c68:	01c05000 	biceq	r5, r0, r0
	...
    2c78:	000001a0 	andeq	r0, r0, r0, lsr #3
    2c7c:	000001a4 	andeq	r0, r0, r4, lsr #3
    2c80:	a4500001 	ldrbge	r0, [r0], #-1
    2c84:	ac000001 	stcge	0, cr0, [r0], {1}
    2c88:	03000001 	movweq	r0, #1
    2c8c:	9f7f7000 	svcls	0x007f7000
    2c90:	000001ac 	andeq	r0, r0, ip, lsr #3
    2c94:	000001b0 			; <UNDEFINED> instruction: 0x000001b0
    2c98:	00500001 	subseq	r0, r0, r1
    2c9c:	00000000 	andeq	r0, r0, r0
    2ca0:	a0000000 	andge	r0, r0, r0
    2ca4:	ac000001 	stcge	0, cr0, [r0], {1}
    2ca8:	03000001 	movweq	r0, #1
    2cac:	9fff0900 	svcls	0x00ff0900
	...
    2cb8:	000001a0 	andeq	r0, r0, r0, lsr #3
    2cbc:	000001ac 	andeq	r0, r0, ip, lsr #3
    2cc0:	089e000a 	ldmeq	lr, {r1, r3}
    2cc4:	01c05200 	biceq	r5, r0, r0, lsl #4
	...
    2cd4:	00000198 	muleq	r0, r8, r1
    2cd8:	0000019c 	muleq	r0, ip, r1
    2cdc:	005c0001 	subseq	r0, ip, r1
    2ce0:	00000000 	andeq	r0, r0, r0
    2ce4:	98000000 	stmdals	r0, {}	; <UNPREDICTABLE>
    2ce8:	9c000001 	stcls	0, cr0, [r0], {1}
    2cec:	0a000001 	beq	2cf8 <__spl_size+0x1454>
    2cf0:	34089e00 	strcc	r9, [r8], #-3584	; 0xfffff200
    2cf4:	0001c050 	andeq	ip, r1, r0, asr r0
	...
    2d00:	9c000000 	stcls	0, cr0, [r0], {-0}
    2d04:	a0000001 	andge	r0, r0, r1
    2d08:	01000001 	tsteq	r0, r1
    2d0c:	00005c00 	andeq	r5, r0, r0, lsl #24
    2d10:	00000000 	andeq	r0, r0, r0
    2d14:	019c0000 	orrseq	r0, ip, r0
    2d18:	01a00000 	moveq	r0, r0
    2d1c:	000a0000 	andeq	r0, sl, r0
    2d20:	5038089e 	mlaspl	r8, lr, r8, r0
    2d24:	000001c0 	andeq	r0, r0, r0, asr #3
	...
    2d30:	01b00000 	movseq	r0, r0
    2d34:	01b40000 			; <UNDEFINED> instruction: 0x01b40000
    2d38:	000a0000 	andeq	r0, sl, r0
    2d3c:	5008089e 	mulpl	r8, lr, r8
    2d40:	000001c0 	andeq	r0, r0, r0, asr #3
	...
    2d4c:	01b80000 			; <UNDEFINED> instruction: 0x01b80000
    2d50:	01bc0000 			; <UNDEFINED> instruction: 0x01bc0000
    2d54:	00010000 	andeq	r0, r1, r0
    2d58:	0001bc53 	andeq	fp, r1, r3, asr ip
    2d5c:	0001d000 	andeq	sp, r1, r0
    2d60:	74000200 	strvc	r0, [r0], #-512	; 0xfffffe00
    2d64:	00000008 	andeq	r0, r0, r8
    2d68:	00000000 	andeq	r0, r0, r0
    2d6c:	0001b800 	andeq	fp, r1, r0, lsl #16
    2d70:	00020400 	andeq	r0, r2, r0, lsl #8
    2d74:	9e000a00 	vmlals.f32	s0, s0, s0
    2d78:	c0500808 	subsgt	r0, r0, r8, lsl #16
    2d7c:	00000001 	andeq	r0, r0, r1
    2d80:	00022000 	andeq	r2, r2, r0
    2d84:	00026800 	andeq	r6, r2, r0, lsl #16
    2d88:	9e000a00 	vmlals.f32	s0, s0, s0
    2d8c:	c0500808 	subsgt	r0, r0, r8, lsl #16
    2d90:	00000001 	andeq	r0, r0, r1
	...
    2d9c:	0001bc00 	andeq	fp, r1, r0, lsl #24
    2da0:	0001c000 	andeq	ip, r1, r0
    2da4:	9e000a00 	vmlals.f32	s0, s0, s0
    2da8:	c0501c08 	subsgt	r1, r0, r8, lsl #24
    2dac:	00000001 	andeq	r0, r0, r1
	...
    2db8:	0001d000 	andeq	sp, r1, r0
    2dbc:	0001e000 	andeq	lr, r1, r0
    2dc0:	9e000a00 	vmlals.f32	s0, s0, s0
    2dc4:	c0530008 	subsgt	r0, r3, r8
    2dc8:	00000001 	andeq	r0, r0, r1
    2dcc:	00022000 	andeq	r2, r2, r0
    2dd0:	00023400 	andeq	r3, r2, r0, lsl #8
    2dd4:	9e000a00 	vmlals.f32	s0, s0, s0
    2dd8:	c0530008 	subsgt	r0, r3, r8
    2ddc:	00000001 	andeq	r0, r0, r1
    2de0:	00024400 	andeq	r4, r2, r0, lsl #8
    2de4:	00026800 	andeq	r6, r2, r0, lsl #16
    2de8:	9e000a00 	vmlals.f32	s0, s0, s0
    2dec:	c0530008 	subsgt	r0, r3, r8
    2df0:	00000001 	andeq	r0, r0, r1
	...
    2dfc:	00020400 	andeq	r0, r2, r0, lsl #8
    2e00:	00022000 	andeq	r2, r2, r0
    2e04:	9e000a00 	vmlals.f32	s0, s0, s0
    2e08:	c0500008 	subsgt	r0, r0, r8
    2e0c:	00000001 	andeq	r0, r0, r1
	...
    2e18:	00021000 	andeq	r1, r2, r0
    2e1c:	00021800 	andeq	r1, r2, r0, lsl #16
    2e20:	53000100 	movwpl	r0, #256	; 0x100
	...
    2e2c:	00000204 	andeq	r0, r0, r4, lsl #4
    2e30:	0000020c 	andeq	r0, r0, ip, lsl #4
    2e34:	089e000a 	ldmeq	lr, {r1, r3}
    2e38:	01c05008 	biceq	r5, r0, r8
	...
    2e48:	00000214 	andeq	r0, r0, r4, lsl r2
    2e4c:	00000218 	andeq	r0, r0, r8, lsl r2
    2e50:	00530001 	subseq	r0, r3, r1
    2e54:	00000000 	andeq	r0, r0, r0
    2e58:	14000000 	strne	r0, [r0], #-0
    2e5c:	18000002 	stmdane	r0, {r1}
    2e60:	0a000002 	beq	2e70 <__spl_size+0x15cc>
    2e64:	08089e00 	stmdaeq	r8, {r9, sl, fp, ip, pc}
    2e68:	0001c050 	andeq	ip, r1, r0, asr r0
	...
    2e74:	b8000000 	stmdalt	r0, {}	; <UNPREDICTABLE>
    2e78:	c0000000 	andgt	r0, r0, r0
    2e7c:	0a000000 	beq	2e84 <__spl_size+0x15e0>
    2e80:	04089e00 	streq	r9, [r8], #-3584	; 0xfffff200
    2e84:	0001c050 	andeq	ip, r1, r0, asr r0
	...
    2e90:	c4000000 	strgt	r0, [r0], #-0
    2e94:	c8000000 	stmdagt	r0, {}	; <UNPREDICTABLE>
    2e98:	01000000 	mrseq	r0, (UNDEF: 0)
    2e9c:	00005300 	andeq	r5, r0, r0, lsl #6
    2ea0:	00000000 	andeq	r0, r0, r0
    2ea4:	00c40000 	sbceq	r0, r4, r0
    2ea8:	00c80000 	sbceq	r0, r8, r0
    2eac:	000a0000 	andeq	r0, sl, r0
    2eb0:	5004089e 	mulpl	r4, lr, r8
    2eb4:	000001c0 	andeq	r0, r0, r0, asr #3
	...
    2ec4:	00500000 	subseq	r0, r0, r0
    2ec8:	000a0000 	andeq	r0, sl, r0
    2ecc:	0848089e 	stmdaeq	r8, {r1, r2, r3, r4, r7, fp}^
    2ed0:	000001c2 	andeq	r0, r0, r2, asr #3
    2ed4:	00500000 	subseq	r0, r0, r0
    2ed8:	005c0000 	subseq	r0, ip, r0
    2edc:	000a0000 	andeq	r0, sl, r0
    2ee0:	02c0089e 	sbceq	r0, r0, #10354688	; 0x9e0000
    2ee4:	000001c2 	andeq	r0, r0, r2, asr #3
    2ee8:	005c0000 	subseq	r0, ip, r0
    2eec:	00680000 	rsbeq	r0, r8, r0
    2ef0:	000a0000 	andeq	r0, sl, r0
    2ef4:	0060089e 	mlseq	r0, lr, r8, r0
    2ef8:	000001c2 	andeq	r0, r0, r2, asr #3
    2efc:	00680000 	rsbeq	r0, r8, r0
    2f00:	00b80000 	adcseq	r0, r8, r0
    2f04:	000a0000 	andeq	r0, sl, r0
    2f08:	5000089e 	mulpl	r0, lr, r8
    2f0c:	000001c0 	andeq	r0, r0, r0, asr #3
	...
    2f18:	00140000 	andseq	r0, r4, r0
    2f1c:	00200000 	eoreq	r0, r0, r0
    2f20:	00010000 	andeq	r0, r1, r0
    2f24:	00002852 	andeq	r2, r0, r2, asr r8
    2f28:	00003400 	andeq	r3, r0, r0, lsl #8
    2f2c:	51000100 	mrspl	r0, (UNDEF: 16)
    2f30:	00000038 	andeq	r0, r0, r8, lsr r0
    2f34:	00000044 	andeq	r0, r0, r4, asr #32
    2f38:	48510001 	ldmdami	r1, {r0}^
    2f3c:	54000000 	strpl	r0, [r0], #-0
    2f40:	01000000 	mrseq	r0, (UNDEF: 0)
    2f44:	00585100 	subseq	r5, r8, r0, lsl #2
    2f48:	00600000 	rsbeq	r0, r0, r0
    2f4c:	00010000 	andeq	r0, r1, r0
    2f50:	00006451 	andeq	r6, r0, r1, asr r4
    2f54:	00007000 	andeq	r7, r0, r0
    2f58:	51000100 	mrspl	r0, (UNDEF: 16)
    2f5c:	00000078 	andeq	r0, r0, r8, ror r0
    2f60:	0000007c 	andeq	r0, r0, ip, ror r0
    2f64:	7c530001 	mrrcvc	0, 0, r0, r3, cr1
    2f68:	8c000000 	stchi	0, cr0, [r0], {-0}
    2f6c:	02000000 	andeq	r0, r0, #0
    2f70:	90047000 	andls	r7, r4, r0
    2f74:	9c000000 	stcls	0, cr0, [r0], {-0}
    2f78:	01000000 	mrseq	r0, (UNDEF: 0)
    2f7c:	00a45300 	adceq	r5, r4, r0, lsl #6
    2f80:	00b80000 	adcseq	r0, r8, r0
    2f84:	00010000 	andeq	r0, r1, r0
    2f88:	00000053 	andeq	r0, r0, r3, asr r0
	...
    2f94:	00000c00 	andeq	r0, r0, r0, lsl #24
    2f98:	9e000a00 	vmlals.f32	s0, s0, s0
    2f9c:	c2084808 	andgt	r4, r8, #8, 16	; 0x80000
    2fa0:	00000001 	andeq	r0, r0, r1
	...
    2fac:	00006800 	andeq	r6, r0, r0, lsl #16
    2fb0:	00006c00 	andeq	r6, r0, r0, lsl #24
    2fb4:	0a000400 	beq	3fbc <__spl_size+0x2718>
    2fb8:	009f1001 	addseq	r1, pc, r1
    2fbc:	00000000 	andeq	r0, r0, r0
    2fc0:	68000000 	stmdavs	r0, {}	; <UNPREDICTABLE>
    2fc4:	6c000000 	stcvs	0, cr0, [r0], {-0}
    2fc8:	0a000000 	beq	2fd0 <__spl_size+0x172c>
    2fcc:	24089e00 	strcs	r9, [r8], #-3584	; 0xfffff200
    2fd0:	0001c050 	andeq	ip, r1, r0, asr r0
	...
    2fdc:	18000000 	stmdane	r0, {}	; <UNPREDICTABLE>
    2fe0:	1c000000 	stcne	0, cr0, [r0], {-0}
    2fe4:	01000000 	mrseq	r0, (UNDEF: 0)
    2fe8:	00005200 	andeq	r5, r0, r0, lsl #4
    2fec:	00000000 	andeq	r0, r0, r0
    2ff0:	00180000 	andseq	r0, r8, r0
    2ff4:	001c0000 	andseq	r0, ip, r0
    2ff8:	000a0000 	andeq	r0, sl, r0
    2ffc:	0848089e 	stmdaeq	r8, {r1, r2, r3, r4, r7, fp}^
    3000:	000001c2 	andeq	r0, r0, r2, asr #3
	...
    300c:	001c0000 	andseq	r0, ip, r0
    3010:	00200000 	eoreq	r0, r0, r0
    3014:	000a0000 	andeq	r0, sl, r0
    3018:	0848089e 	stmdaeq	r8, {r1, r2, r3, r4, r7, fp}^
    301c:	000001c2 	andeq	r0, r0, r2, asr #3
	...
    3028:	007c0000 	rsbseq	r0, ip, r0
    302c:	00800000 	addeq	r0, r0, r0
    3030:	000a0000 	andeq	r0, sl, r0
    3034:	5004089e 	mulpl	r4, lr, r8
    3038:	000001c0 	andeq	r0, r0, r0, asr #3
	...
    3044:	002c0000 	eoreq	r0, ip, r0
    3048:	00300000 	eorseq	r0, r0, r0
    304c:	00010000 	andeq	r0, r1, r0
    3050:	00000051 	andeq	r0, r0, r1, asr r0
    3054:	00000000 	andeq	r0, r0, r0
    3058:	00002c00 	andeq	r2, r0, r0, lsl #24
    305c:	00003000 	andeq	r3, r0, r0
    3060:	9e000a00 	vmlals.f32	s0, s0, s0
    3064:	c2084808 	andgt	r4, r8, #8, 16	; 0x80000
    3068:	00000001 	andeq	r0, r0, r1
	...
    3074:	00003000 	andeq	r3, r0, r0
    3078:	00003400 	andeq	r3, r0, r0, lsl #8
    307c:	9e000a00 	vmlals.f32	s0, s0, s0
    3080:	c2084808 	andgt	r4, r8, #8, 16	; 0x80000
    3084:	00000001 	andeq	r0, r0, r1
	...
    3090:	00003c00 	andeq	r3, r0, r0, lsl #24
    3094:	00004000 	andeq	r4, r0, r0
    3098:	51000100 	mrspl	r0, (UNDEF: 16)
	...
    30a4:	0000003c 	andeq	r0, r0, ip, lsr r0
    30a8:	00000040 	andeq	r0, r0, r0, asr #32
    30ac:	089e000a 	ldmeq	lr, {r1, r3}
    30b0:	01c20848 	biceq	r0, r2, r8, asr #16
	...
    30c0:	00000040 	andeq	r0, r0, r0, asr #32
    30c4:	00000044 	andeq	r0, r0, r4, asr #32
    30c8:	089e000a 	ldmeq	lr, {r1, r3}
    30cc:	01c20848 	biceq	r0, r2, r8, asr #16
	...
    30dc:	0000004c 	andeq	r0, r0, ip, asr #32
    30e0:	00000050 	andeq	r0, r0, r0, asr r0
    30e4:	00510001 	subseq	r0, r1, r1
    30e8:	00000000 	andeq	r0, r0, r0
    30ec:	4c000000 	stcmi	0, cr0, [r0], {-0}
    30f0:	50000000 	andpl	r0, r0, r0
    30f4:	0a000000 	beq	30fc <__spl_size+0x1858>
    30f8:	48089e00 	stmdami	r8, {r9, sl, fp, ip, pc}
    30fc:	0001c208 	andeq	ip, r1, r8, lsl #4
	...
    3108:	50000000 	andpl	r0, r0, r0
    310c:	54000000 	strpl	r0, [r0], #-0
    3110:	0a000000 	beq	3118 <__spl_size+0x1874>
    3114:	c0089e00 	andgt	r9, r8, r0, lsl #28
    3118:	0001c202 	andeq	ip, r1, r2, lsl #4
	...
    3124:	58000000 	stmdapl	r0, {}	; <UNPREDICTABLE>
    3128:	5c000000 	stcpl	0, cr0, [r0], {-0}
    312c:	01000000 	mrseq	r0, (UNDEF: 0)
    3130:	00005100 	andeq	r5, r0, r0, lsl #2
    3134:	00000000 	andeq	r0, r0, r0
    3138:	00580000 	subseq	r0, r8, r0
    313c:	005c0000 	subseq	r0, ip, r0
    3140:	000a0000 	andeq	r0, sl, r0
    3144:	02c0089e 	sbceq	r0, r0, #10354688	; 0x9e0000
    3148:	000001c2 	andeq	r0, r0, r2, asr #3
	...
    3154:	005c0000 	subseq	r0, ip, r0
    3158:	00600000 	rsbeq	r0, r0, r0
    315c:	000a0000 	andeq	r0, sl, r0
    3160:	0060089e 	mlseq	r0, lr, r8, r0
    3164:	000001c2 	andeq	r0, r0, r2, asr #3
	...
    3170:	00640000 	rsbeq	r0, r4, r0
    3174:	00680000 	rsbeq	r0, r8, r0
    3178:	00010000 	andeq	r0, r1, r0
    317c:	00000051 	andeq	r0, r0, r1, asr r0
    3180:	00000000 	andeq	r0, r0, r0
    3184:	00006400 	andeq	r6, r0, r0, lsl #8
    3188:	00006800 	andeq	r6, r0, r0, lsl #16
    318c:	9e000a00 	vmlals.f32	s0, s0, s0
    3190:	c2006008 	andgt	r6, r0, #8
    3194:	00000001 	andeq	r0, r0, r1
	...
    31a0:	00006c00 	andeq	r6, r0, r0, lsl #24
    31a4:	00007000 	andeq	r7, r0, r0
    31a8:	9e000a00 	vmlals.f32	s0, s0, s0
    31ac:	c0500408 	subsgt	r0, r0, r8, lsl #8
    31b0:	00000001 	andeq	r0, r0, r1
	...
    31bc:	00007800 	andeq	r7, r0, r0, lsl #16
    31c0:	00007c00 	andeq	r7, r0, r0, lsl #24
    31c4:	53000100 	movwpl	r0, #256	; 0x100
    31c8:	0000007c 	andeq	r0, r0, ip, ror r0
    31cc:	00000098 	muleq	r0, r8, r0
    31d0:	04700002 	ldrbteq	r0, [r0], #-2
	...
    31dc:	00000088 	andeq	r0, r0, r8, lsl #1
    31e0:	0000008c 	andeq	r0, r0, ip, lsl #1
    31e4:	089e000a 	ldmeq	lr, {r1, r3}
    31e8:	01c05008 	biceq	r5, r0, r8
	...
    31f8:	00000094 	muleq	r0, r4, r0
    31fc:	00000098 	muleq	r0, r8, r0
    3200:	00530001 	subseq	r0, r3, r1
    3204:	00000000 	andeq	r0, r0, r0
    3208:	94000000 	strls	r0, [r0], #-0
    320c:	98000000 	stmdals	r0, {}	; <UNPREDICTABLE>
    3210:	0a000000 	beq	3218 <__spl_size+0x1974>
    3214:	08089e00 	stmdaeq	r8, {r9, sl, fp, ip, pc}
    3218:	0001c050 	andeq	ip, r1, r0, asr r0
	...
    3224:	98000000 	stmdals	r0, {}	; <UNPREDICTABLE>
    3228:	9c000000 	stcls	0, cr0, [r0], {-0}
    322c:	0a000000 	beq	3234 <__spl_size+0x1990>
    3230:	18089e00 	stmdane	r8, {r9, sl, fp, ip, pc}
    3234:	0001c050 	andeq	ip, r1, r0, asr r0
	...
    3240:	a4000000 	strge	r0, [r0], #-0
    3244:	a8000000 	stmdage	r0, {}	; <UNPREDICTABLE>
    3248:	01000000 	mrseq	r0, (UNDEF: 0)
    324c:	00005300 	andeq	r5, r0, r0, lsl #6
    3250:	00000000 	andeq	r0, r0, r0
    3254:	00a40000 	adceq	r0, r4, r0
    3258:	00a80000 	adceq	r0, r8, r0
    325c:	000a0000 	andeq	r0, sl, r0
    3260:	5018089e 	mulspl	r8, lr, r8
    3264:	000001c0 	andeq	r0, r0, r0, asr #3
	...
    3274:	00080000 	andeq	r0, r8, r0
    3278:	00010000 	andeq	r0, r1, r0
    327c:	00000850 	andeq	r0, r0, r0, asr r8
    3280:	00005000 	andeq	r5, r0, r0
    3284:	f3000400 	vshl.u8	d0, d0, d0
    3288:	009f5001 	addseq	r5, pc, r1
	...
    3294:	0b000000 	bleq	329c <__spl_size+0x19f8>
    3298:	01000000 	mrseq	r0, (UNDEF: 0)
    329c:	000b5100 	andeq	r5, fp, r0, lsl #2
    32a0:	00500000 	subseq	r0, r0, r0
    32a4:	00040000 	andeq	r0, r4, r0
    32a8:	9f5101f3 	svcls	0x005101f3
	...
    32b4:	00000038 	andeq	r0, r0, r8, lsr r0
    32b8:	00000050 	andeq	r0, r0, r0, asr r0
    32bc:	00540001 	subseq	r0, r4, r1
	...
    32c8:	10000000 	andne	r0, r0, r0
    32cc:	01000000 	mrseq	r0, (UNDEF: 0)
    32d0:	00105000 	andseq	r5, r0, r0
    32d4:	00240000 	eoreq	r0, r4, r0
    32d8:	00010000 	andeq	r0, r1, r0
    32dc:	00002452 	andeq	r2, r0, r2, asr r4
    32e0:	00002800 	andeq	r2, r0, r0, lsl #16
    32e4:	50000100 	andpl	r0, r0, r0, lsl #2
    32e8:	00000028 	andeq	r0, r0, r8, lsr #32
    32ec:	0000002c 	andeq	r0, r0, ip, lsr #32
    32f0:	00520001 	subseq	r0, r2, r1
	...
    32fc:	14000000 	strne	r0, [r0], #-0
    3300:	01000000 	mrseq	r0, (UNDEF: 0)
    3304:	00145000 	andseq	r5, r4, r0
    3308:	00200000 	eoreq	r0, r0, r0
    330c:	00030000 	andeq	r0, r3, r0
    3310:	249f7f70 	ldrcs	r7, [pc], #3952	; 3318 <__spl_size+0x1a74>
    3314:	28000000 	stmdacs	r0, {}	; <UNPREDICTABLE>
    3318:	01000000 	mrseq	r0, (UNDEF: 0)
    331c:	00285000 	eoreq	r5, r8, r0
    3320:	002c0000 	eoreq	r0, ip, r0
    3324:	00010000 	andeq	r0, r1, r0
    3328:	00000052 	andeq	r0, r0, r2, asr r0
    332c:	00000000 	andeq	r0, r0, r0
	...

Disassembly of section .debug_ranges:

00000000 <.debug_ranges>:
   0:	00000000 	andeq	r0, r0, r0
   4:	00000008 	andeq	r0, r0, r8
   8:	0000000c 	andeq	r0, r0, ip
   c:	00000010 	andeq	r0, r0, r0, lsl r0
	...
  18:	00000008 	andeq	r0, r0, r8
  1c:	0000000c 	andeq	r0, r0, ip
  20:	00000018 	andeq	r0, r0, r8, lsl r0
  24:	0000001c 	andeq	r0, r0, ip, lsl r0
  28:	00000028 	andeq	r0, r0, r8, lsr #32
  2c:	00000030 	andeq	r0, r0, r0, lsr r0
	...
  38:	00000030 	andeq	r0, r0, r0, lsr r0
  3c:	00000034 	andeq	r0, r0, r4, lsr r0
  40:	00000038 	andeq	r0, r0, r8, lsr r0
  44:	0000003c 	andeq	r0, r0, ip, lsr r0
	...
  50:	00000034 	andeq	r0, r0, r4, lsr r0
  54:	00000038 	andeq	r0, r0, r8, lsr r0
  58:	0000003c 	andeq	r0, r0, ip, lsr r0
  5c:	00000044 	andeq	r0, r0, r4, asr #32
	...
  68:	00000044 	andeq	r0, r0, r4, asr #32
  6c:	00000048 	andeq	r0, r0, r8, asr #32
  70:	0000004c 	andeq	r0, r0, ip, asr #32
  74:	00000050 	andeq	r0, r0, r0, asr r0
	...
  80:	00000048 	andeq	r0, r0, r8, asr #32
  84:	0000004c 	andeq	r0, r0, ip, asr #32
  88:	00000050 	andeq	r0, r0, r0, asr r0
  8c:	00000058 	andeq	r0, r0, r8, asr r0
	...
  98:	0000008c 	andeq	r0, r0, ip, lsl #1
  9c:	00000090 	muleq	r0, r0, r0
  a0:	000000a0 	andeq	r0, r0, r0, lsr #1
  a4:	000000c0 	andeq	r0, r0, r0, asr #1
	...
  b0:	0000008c 	andeq	r0, r0, ip, lsl #1
  b4:	00000090 	muleq	r0, r0, r0
  b8:	000000a0 	andeq	r0, r0, r0, lsr #1
  bc:	000000ac 	andeq	r0, r0, ip, lsr #1
  c0:	000000b0 	strheq	r0, [r0], -r0	; <UNPREDICTABLE>
  c4:	000000b4 	strheq	r0, [r0], -r4
	...
  d0:	000000c0 	andeq	r0, r0, r0, asr #1
  d4:	000000c4 	andeq	r0, r0, r4, asr #1
  d8:	000000c8 	andeq	r0, r0, r8, asr #1
  dc:	000000cc 	andeq	r0, r0, ip, asr #1
	...
  e8:	000000c4 	andeq	r0, r0, r4, asr #1
  ec:	000000c8 	andeq	r0, r0, r8, asr #1
  f0:	000000d8 	ldrdeq	r0, [r0], -r8
  f4:	000000e0 	andeq	r0, r0, r0, ror #1
	...
 100:	00000068 	andeq	r0, r0, r8, rrx
 104:	0000006c 	andeq	r0, r0, ip, rrx
 108:	00000078 	andeq	r0, r0, r8, ror r0
 10c:	0000007c 	andeq	r0, r0, ip, ror r0
	...
 118:	00000080 	andeq	r0, r0, r0, lsl #1
 11c:	00000084 	andeq	r0, r0, r4, lsl #1
 120:	0000008c 	andeq	r0, r0, ip, lsl #1
 124:	000000b8 	strheq	r0, [r0], -r8
	...
 130:	00000080 	andeq	r0, r0, r0, lsl #1
 134:	00000084 	andeq	r0, r0, r4, lsl #1
 138:	000000a8 	andeq	r0, r0, r8, lsr #1
 13c:	000000ac 	andeq	r0, r0, ip, lsr #1
	...
 148:	00000090 	muleq	r0, r0, r0
 14c:	00000094 	muleq	r0, r4, r0
 150:	00000098 	muleq	r0, r8, r0
 154:	000000a0 	andeq	r0, r0, r0, lsr #1
	...
 160:	000000c8 	andeq	r0, r0, r8, asr #1
 164:	000000cc 	andeq	r0, r0, ip, asr #1
 168:	000000d0 	ldrdeq	r0, [r0], -r0	; <UNPREDICTABLE>
 16c:	00000178 	andeq	r0, r0, r8, ror r1
 170:	00000180 	andeq	r0, r0, r0, lsl #3
 174:	000001ec 	andeq	r0, r0, ip, ror #3
	...
 180:	000000c8 	andeq	r0, r0, r8, asr #1
 184:	000000cc 	andeq	r0, r0, ip, asr #1
 188:	000000dc 	ldrdeq	r0, [r0], -ip
 18c:	000000e0 	andeq	r0, r0, r0, ror #1
	...
 198:	000000e0 	andeq	r0, r0, r0, ror #1
 19c:	000000e4 	andeq	r0, r0, r4, ror #1
 1a0:	000000f0 	strdeq	r0, [r0], -r0	; <UNPREDICTABLE>
 1a4:	00000114 	andeq	r0, r0, r4, lsl r1
	...
 1b0:	000000e0 	andeq	r0, r0, r0, ror #1
 1b4:	000000e4 	andeq	r0, r0, r4, ror #1
 1b8:	000000f8 	strdeq	r0, [r0], -r8
 1bc:	00000100 	andeq	r0, r0, r0, lsl #2
	...
 1c8:	00000138 	andeq	r0, r0, r8, lsr r1
 1cc:	0000013c 	andeq	r0, r0, ip, lsr r1
 1d0:	00000140 	andeq	r0, r0, r0, asr #2
 1d4:	00000144 	andeq	r0, r0, r4, asr #2
	...
 1e0:	0000013c 	andeq	r0, r0, ip, lsr r1
 1e4:	00000140 	andeq	r0, r0, r0, asr #2
 1e8:	00000144 	andeq	r0, r0, r4, asr #2
 1ec:	00000148 	andeq	r0, r0, r8, asr #2
 1f0:	00000154 	andeq	r0, r0, r4, asr r1
 1f4:	00000178 	andeq	r0, r0, r8, ror r1
	...
 200:	0000013c 	andeq	r0, r0, ip, lsr r1
 204:	00000140 	andeq	r0, r0, r0, asr #2
 208:	0000015c 	andeq	r0, r0, ip, asr r1
 20c:	00000164 	andeq	r0, r0, r4, ror #2
	...
 218:	00000144 	andeq	r0, r0, r4, asr #2
 21c:	00000148 	andeq	r0, r0, r8, asr #2
 220:	0000016c 	andeq	r0, r0, ip, ror #2
 224:	00000170 	andeq	r0, r0, r0, ror r1
	...
 230:	000001ec 	andeq	r0, r0, ip, ror #3
 234:	000001f0 	strdeq	r0, [r0], -r0	; <UNPREDICTABLE>
 238:	000001f4 	strdeq	r0, [r0], -r4
 23c:	000001f8 	strdeq	r0, [r0], -r8
	...
 248:	000001f0 	strdeq	r0, [r0], -r0	; <UNPREDICTABLE>
 24c:	000001f4 	strdeq	r0, [r0], -r4
 250:	00000200 	andeq	r0, r0, r0, lsl #4
 254:	00000204 	andeq	r0, r0, r4, lsl #4
	...
 260:	000001f8 	strdeq	r0, [r0], -r8
 264:	000001fc 	strdeq	r0, [r0], -ip
 268:	00000204 	andeq	r0, r0, r4, lsl #4
 26c:	00000264 	andeq	r0, r0, r4, ror #4
	...
 278:	000001f8 	strdeq	r0, [r0], -r8
 27c:	000001fc 	strdeq	r0, [r0], -ip
 280:	00000204 	andeq	r0, r0, r4, lsl #4
 284:	00000208 	andeq	r0, r0, r8, lsl #4
	...
 290:	00000208 	andeq	r0, r0, r8, lsl #4
 294:	0000020c 	andeq	r0, r0, ip, lsl #4
 298:	00000218 	andeq	r0, r0, r8, lsl r2
 29c:	0000021c 	andeq	r0, r0, ip, lsl r2
	...
 2a8:	00000214 	andeq	r0, r0, r4, lsl r2
 2ac:	00000218 	andeq	r0, r0, r8, lsl r2
 2b0:	0000021c 	andeq	r0, r0, ip, lsl r2
 2b4:	00000258 	andeq	r0, r0, r8, asr r2
	...
 2c0:	000002f4 	strdeq	r0, [r0], -r4
 2c4:	000006ec 	andeq	r0, r0, ip, ror #13
 2c8:	00000700 	andeq	r0, r0, r0, lsl #14
 2cc:	0000096c 	andeq	r0, r0, ip, ror #18
	...
 2d8:	000002f4 	strdeq	r0, [r0], -r4
 2dc:	000002f8 	strdeq	r0, [r0], -r8
 2e0:	000002fc 	strdeq	r0, [r0], -ip
 2e4:	00000300 	andeq	r0, r0, r0, lsl #6
	...
 2f0:	000002f8 	strdeq	r0, [r0], -r8
 2f4:	000002fc 	strdeq	r0, [r0], -ip
 2f8:	00000308 	andeq	r0, r0, r8, lsl #6
 2fc:	00000310 	andeq	r0, r0, r0, lsl r3
	...
 308:	000003a4 	andeq	r0, r0, r4, lsr #7
 30c:	000003a8 	andeq	r0, r0, r8, lsr #7
 310:	000003ac 	andeq	r0, r0, ip, lsr #7
 314:	000003b0 			; <UNDEFINED> instruction: 0x000003b0
	...
 320:	000003b4 			; <UNDEFINED> instruction: 0x000003b4
 324:	000003b8 			; <UNDEFINED> instruction: 0x000003b8
 328:	000003c0 	andeq	r0, r0, r0, asr #7
 32c:	000003c4 	andeq	r0, r0, r4, asr #7
	...
 338:	000003dc 	ldrdeq	r0, [r0], -ip
 33c:	000003e0 	andeq	r0, r0, r0, ror #7
 340:	000003ec 	andeq	r0, r0, ip, ror #7
 344:	000003f0 	strdeq	r0, [r0], -r0	; <UNPREDICTABLE>
 348:	00000418 	andeq	r0, r0, r8, lsl r4
 34c:	0000041c 	andeq	r0, r0, ip, lsl r4
	...
 358:	000003fc 	strdeq	r0, [r0], -ip
 35c:	00000400 	andeq	r0, r0, r0, lsl #8
 360:	0000041c 	andeq	r0, r0, ip, lsl r4
 364:	00000420 	andeq	r0, r0, r0, lsr #8
	...
 370:	00000428 	andeq	r0, r0, r8, lsr #8
 374:	00000480 	andeq	r0, r0, r0, lsl #9
 378:	00000490 	muleq	r0, r0, r4
 37c:	00000494 	muleq	r0, r4, r4
 380:	0000049c 	muleq	r0, ip, r4
 384:	000004a8 	andeq	r0, r0, r8, lsr #9
	...
 390:	00000428 	andeq	r0, r0, r8, lsr #8
 394:	0000042c 	andeq	r0, r0, ip, lsr #8
 398:	00000430 	andeq	r0, r0, r0, lsr r4
 39c:	00000434 	andeq	r0, r0, r4, lsr r4
	...
 3a8:	00000434 	andeq	r0, r0, r4, lsr r4
 3ac:	00000438 	andeq	r0, r0, r8, lsr r4
 3b0:	00000444 	andeq	r0, r0, r4, asr #8
 3b4:	00000468 	andeq	r0, r0, r8, ror #8
	...
 3c0:	00000434 	andeq	r0, r0, r4, lsr r4
 3c4:	00000438 	andeq	r0, r0, r8, lsr r4
 3c8:	0000044c 	andeq	r0, r0, ip, asr #8
 3cc:	00000454 	andeq	r0, r0, r4, asr r4
	...
 3d8:	00000480 	andeq	r0, r0, r0, lsl #9
 3dc:	00000484 	andeq	r0, r0, r4, lsl #9
 3e0:	00000488 	andeq	r0, r0, r8, lsl #9
 3e4:	0000048c 	andeq	r0, r0, ip, lsl #9
	...
 3f0:	00000484 	andeq	r0, r0, r4, lsl #9
 3f4:	00000488 	andeq	r0, r0, r8, lsl #9
 3f8:	000004a8 	andeq	r0, r0, r8, lsr #9
 3fc:	000004ac 	andeq	r0, r0, ip, lsr #9
	...
 408:	0000048c 	andeq	r0, r0, ip, lsl #9
 40c:	00000490 	muleq	r0, r0, r4
 410:	000004ac 	andeq	r0, r0, ip, lsr #9
 414:	000004b0 			; <UNDEFINED> instruction: 0x000004b0
 418:	000004b4 			; <UNDEFINED> instruction: 0x000004b4
 41c:	000004d4 	ldrdeq	r0, [r0], -r4
 420:	000004d8 	ldrdeq	r0, [r0], -r8
 424:	000004dc 	ldrdeq	r0, [r0], -ip
 428:	000007b8 			; <UNDEFINED> instruction: 0x000007b8
 42c:	00000844 	andeq	r0, r0, r4, asr #16
 430:	0000088c 	andeq	r0, r0, ip, lsl #17
 434:	000008a0 	andeq	r0, r0, r0, lsr #17
 438:	000008e0 	andeq	r0, r0, r0, ror #17
 43c:	000008f4 	strdeq	r0, [r0], -r4
	...
 448:	0000048c 	andeq	r0, r0, ip, lsl #9
 44c:	00000490 	muleq	r0, r0, r4
 450:	000004ac 	andeq	r0, r0, ip, lsr #9
 454:	000004b0 			; <UNDEFINED> instruction: 0x000004b0
	...
 460:	000004d0 	ldrdeq	r0, [r0], -r0	; <UNPREDICTABLE>
 464:	000004d4 	ldrdeq	r0, [r0], -r4
 468:	000004d8 	ldrdeq	r0, [r0], -r8
 46c:	000004dc 	ldrdeq	r0, [r0], -ip
	...
 478:	000004e4 	andeq	r0, r0, r4, ror #9
 47c:	000006b4 			; <UNDEFINED> instruction: 0x000006b4
 480:	00000700 	andeq	r0, r0, r0, lsl #14
 484:	00000718 	andeq	r0, r0, r8, lsl r7
 488:	00000750 	andeq	r0, r0, r0, asr r7
 48c:	000007b8 			; <UNDEFINED> instruction: 0x000007b8
 490:	00000844 	andeq	r0, r0, r4, asr #16
 494:	0000088c 	andeq	r0, r0, ip, lsl #17
 498:	000008a0 	andeq	r0, r0, r0, lsr #17
 49c:	000008c8 	andeq	r0, r0, r8, asr #17
 4a0:	000008f4 	strdeq	r0, [r0], -r4
 4a4:	0000096c 	andeq	r0, r0, ip, ror #18
	...
 4b0:	000004e4 	andeq	r0, r0, r4, ror #9
 4b4:	000004f4 	strdeq	r0, [r0], -r4
 4b8:	00000500 	andeq	r0, r0, r0, lsl #10
 4bc:	0000051c 	andeq	r0, r0, ip, lsl r5
 4c0:	00000520 	andeq	r0, r0, r0, lsr #10
 4c4:	0000052c 	andeq	r0, r0, ip, lsr #10
 4c8:	00000530 	andeq	r0, r0, r0, lsr r5
 4cc:	00000588 	andeq	r0, r0, r8, lsl #11
	...
 4d8:	00000538 	andeq	r0, r0, r8, lsr r5
 4dc:	0000053c 	andeq	r0, r0, ip, lsr r5
 4e0:	0000054c 	andeq	r0, r0, ip, asr #10
 4e4:	00000550 	andeq	r0, r0, r0, asr r5
	...
 4f0:	00000554 	andeq	r0, r0, r4, asr r5
 4f4:	00000558 	andeq	r0, r0, r8, asr r5
 4f8:	00000560 	andeq	r0, r0, r0, ror #10
 4fc:	00000588 	andeq	r0, r0, r8, lsl #11
	...
 508:	00000554 	andeq	r0, r0, r4, asr r5
 50c:	00000558 	andeq	r0, r0, r8, asr r5
 510:	0000057c 	andeq	r0, r0, ip, ror r5
 514:	00000580 	andeq	r0, r0, r0, lsl #11
	...
 520:	00000564 	andeq	r0, r0, r4, ror #10
 524:	00000568 	andeq	r0, r0, r8, ror #10
 528:	0000056c 	andeq	r0, r0, ip, ror #10
 52c:	00000574 	andeq	r0, r0, r4, ror r5
	...
 538:	00000670 	andeq	r0, r0, r0, ror r6
 53c:	00000674 	andeq	r0, r0, r4, ror r6
 540:	00000678 	andeq	r0, r0, r8, ror r6
 544:	0000069c 	muleq	r0, ip, r6
 548:	000006a0 	andeq	r0, r0, r0, lsr #13
 54c:	000006a4 	andeq	r0, r0, r4, lsr #13
 550:	00000750 	andeq	r0, r0, r0, asr r7
 554:	00000794 	muleq	r0, r4, r7
 558:	00000844 	andeq	r0, r0, r4, asr #16
 55c:	0000088c 	andeq	r0, r0, ip, lsl #17
 560:	000008a0 	andeq	r0, r0, r0, lsr #17
 564:	000008c8 	andeq	r0, r0, r8, asr #17
	...
 570:	00000670 	andeq	r0, r0, r0, ror r6
 574:	00000674 	andeq	r0, r0, r4, ror r6
 578:	00000678 	andeq	r0, r0, r8, ror r6
 57c:	0000067c 	andeq	r0, r0, ip, ror r6
	...
 588:	00000698 	muleq	r0, r8, r6
 58c:	0000069c 	muleq	r0, ip, r6
 590:	000006a0 	andeq	r0, r0, r0, lsr #13
 594:	000006a4 	andeq	r0, r0, r4, lsr #13
	...
 5a0:	00000004 	andeq	r0, r0, r4
 5a4:	00000008 	andeq	r0, r0, r8
 5a8:	0000000c 	andeq	r0, r0, ip
 5ac:	0000007c 	andeq	r0, r0, ip, ror r0
	...
 5bc:	00000004 	andeq	r0, r0, r4
 5c0:	00000008 	andeq	r0, r0, r8
 5c4:	0000000c 	andeq	r0, r0, ip
	...
 5d0:	0000000c 	andeq	r0, r0, ip
 5d4:	00000010 	andeq	r0, r0, r0, lsl r0
 5d8:	00000020 	andeq	r0, r0, r0, lsr #32
 5dc:	00000024 	andeq	r0, r0, r4, lsr #32
 5e0:	00000050 	andeq	r0, r0, r0, asr r0
 5e4:	00000054 	andeq	r0, r0, r4, asr r0
	...
 5f0:	00000034 	andeq	r0, r0, r4, lsr r0
 5f4:	00000038 	andeq	r0, r0, r8, lsr r0
 5f8:	00000054 	andeq	r0, r0, r4, asr r0
 5fc:	00000058 	andeq	r0, r0, r8, asr r0
	...
 608:	00000044 	andeq	r0, r0, r4, asr #32
 60c:	00000048 	andeq	r0, r0, r8, asr #32
 610:	00000068 	andeq	r0, r0, r8, rrx
 614:	0000006c 	andeq	r0, r0, ip, rrx
	...
 620:	000000f0 	strdeq	r0, [r0], -r0	; <UNPREDICTABLE>
 624:	000000f4 	strdeq	r0, [r0], -r4
 628:	00000124 	andeq	r0, r0, r4, lsr #2
 62c:	0000013c 	andeq	r0, r0, ip, lsr r1
	...
 638:	000000f0 	strdeq	r0, [r0], -r0	; <UNPREDICTABLE>
 63c:	000000f4 	strdeq	r0, [r0], -r4
 640:	00000124 	andeq	r0, r0, r4, lsr #2
 644:	00000128 	andeq	r0, r0, r8, lsr #2
	...
 650:	00000104 	andeq	r0, r0, r4, lsl #2
 654:	0000010c 	andeq	r0, r0, ip, lsl #2
 658:	00000154 	andeq	r0, r0, r4, asr r1
 65c:	00000158 	andeq	r0, r0, r8, asr r1
 660:	0000015c 	andeq	r0, r0, ip, asr r1
 664:	00000170 	andeq	r0, r0, r0, ror r1
 668:	00000174 	andeq	r0, r0, r4, ror r1
 66c:	000001e0 	andeq	r0, r0, r0, ror #3
 670:	000001ec 	andeq	r0, r0, ip, ror #3
 674:	00000344 	andeq	r0, r0, r4, asr #6
 678:	00000354 	andeq	r0, r0, r4, asr r3
 67c:	00000508 	andeq	r0, r0, r8, lsl #10
 680:	00000514 	andeq	r0, r0, r4, lsl r5
 684:	00000604 	andeq	r0, r0, r4, lsl #12
	...
 690:	00000104 	andeq	r0, r0, r4, lsl #2
 694:	0000010c 	andeq	r0, r0, ip, lsl #2
 698:	00000224 	andeq	r0, r0, r4, lsr #4
 69c:	000002e0 	andeq	r0, r0, r0, ror #5
 6a0:	00000374 	andeq	r0, r0, r4, ror r3
 6a4:	00000388 	andeq	r0, r0, r8, lsl #7
 6a8:	00000390 	muleq	r0, r0, r3
 6ac:	00000440 	andeq	r0, r0, r0, asr #8
 6b0:	00000560 	andeq	r0, r0, r0, ror #10
 6b4:	000005c8 	andeq	r0, r0, r8, asr #11
	...
 6c0:	00000294 	muleq	r0, r4, r2
 6c4:	000002a0 	andeq	r0, r0, r0, lsr #5
 6c8:	000002a4 	andeq	r0, r0, r4, lsr #5
 6cc:	000002a8 	andeq	r0, r0, r8, lsr #5
	...
 6d8:	000002c0 	andeq	r0, r0, r0, asr #5
 6dc:	000002cc 	andeq	r0, r0, ip, asr #5
 6e0:	000002d4 	ldrdeq	r0, [r0], -r4
 6e4:	000002d8 	ldrdeq	r0, [r0], -r8
	...
 6f0:	00000424 	andeq	r0, r0, r4, lsr #8
 6f4:	00000430 	andeq	r0, r0, r0, lsr r4
 6f8:	00000434 	andeq	r0, r0, r4, lsr r4
 6fc:	00000438 	andeq	r0, r0, r8, lsr r4
	...
 708:	0000056c 	andeq	r0, r0, ip, ror #10
 70c:	00000578 	andeq	r0, r0, r8, ror r5
 710:	00000580 	andeq	r0, r0, r0, lsl #11
 714:	00000584 	andeq	r0, r0, r4, lsl #11
	...
 720:	00000300 	andeq	r0, r0, r0, lsl #6
 724:	00000328 	andeq	r0, r0, r8, lsr #6
 728:	000005f0 	strdeq	r0, [r0], -r0	; <UNPREDICTABLE>
 72c:	00000604 	andeq	r0, r0, r4, lsl #12
	...
 738:	0000030c 	andeq	r0, r0, ip, lsl #6
 73c:	00000318 	andeq	r0, r0, r8, lsl r3
 740:	00000320 	andeq	r0, r0, r0, lsr #6
 744:	00000324 	andeq	r0, r0, r4, lsr #6
	...
 750:	00000478 	andeq	r0, r0, r8, ror r4
 754:	000004dc 	ldrdeq	r0, [r0], -ip
 758:	00000514 	andeq	r0, r0, r4, lsl r5
 75c:	00000534 	andeq	r0, r0, r4, lsr r5
 760:	000005c8 	andeq	r0, r0, r8, asr #11
 764:	000005f0 	strdeq	r0, [r0], -r0	; <UNPREDICTABLE>
	...
 770:	000004a8 	andeq	r0, r0, r8, lsr #9
 774:	000004b0 			; <UNDEFINED> instruction: 0x000004b0
 778:	000004b4 			; <UNDEFINED> instruction: 0x000004b4
 77c:	000004dc 	ldrdeq	r0, [r0], -ip
 780:	000005d8 	ldrdeq	r0, [r0], -r8
 784:	000005f0 	strdeq	r0, [r0], -r0	; <UNPREDICTABLE>
	...
 790:	000004c0 	andeq	r0, r0, r0, asr #9
 794:	000004cc 	andeq	r0, r0, ip, asr #9
 798:	000004d4 	ldrdeq	r0, [r0], -r4
 79c:	000004d8 	ldrdeq	r0, [r0], -r8
	...
 7a8:	000004ec 	andeq	r0, r0, ip, ror #9
 7ac:	000004f8 	strdeq	r0, [r0], -r8
 7b0:	000004fc 	strdeq	r0, [r0], -ip
 7b4:	00000500 	andeq	r0, r0, r0, lsl #10
	...
 7c4:	00000004 	andeq	r0, r0, r4
 7c8:	00000008 	andeq	r0, r0, r8
 7cc:	0000000c 	andeq	r0, r0, ip
	...
 7d8:	00000004 	andeq	r0, r0, r4
 7dc:	00000008 	andeq	r0, r0, r8
 7e0:	0000000c 	andeq	r0, r0, ip
 7e4:	00000010 	andeq	r0, r0, r0, lsl r0
 7e8:	00000068 	andeq	r0, r0, r8, rrx
 7ec:	0000006c 	andeq	r0, r0, ip, rrx
	...
 7f8:	00000020 	andeq	r0, r0, r0, lsr #32
 7fc:	00000024 	andeq	r0, r0, r4, lsr #32
 800:	0000007c 	andeq	r0, r0, ip, ror r0
 804:	00000080 	andeq	r0, r0, r0, lsl #1
	...
 810:	000000d0 	ldrdeq	r0, [r0], -r0	; <UNPREDICTABLE>
 814:	000000d4 	ldrdeq	r0, [r0], -r4
 818:	000000f8 	strdeq	r0, [r0], -r8
 81c:	000000fc 	strdeq	r0, [r0], -ip
 820:	00000100 	andeq	r0, r0, r0, lsl #2
 824:	00000108 	andeq	r0, r0, r8, lsl #2
	...
 830:	000000d0 	ldrdeq	r0, [r0], -r0	; <UNPREDICTABLE>
 834:	000000d4 	ldrdeq	r0, [r0], -r4
 838:	000000f8 	strdeq	r0, [r0], -r8
 83c:	000000fc 	strdeq	r0, [r0], -ip
	...
 848:	000000fc 	strdeq	r0, [r0], -ip
 84c:	00000100 	andeq	r0, r0, r0, lsl #2
 850:	00000108 	andeq	r0, r0, r8, lsl #2
 854:	00000204 	andeq	r0, r0, r4, lsl #4
 858:	00000220 	andeq	r0, r0, r0, lsr #4
 85c:	00000268 	andeq	r0, r0, r8, ror #4
	...
 868:	000000fc 	strdeq	r0, [r0], -ip
 86c:	00000100 	andeq	r0, r0, r0, lsl #2
 870:	00000108 	andeq	r0, r0, r8, lsl #2
 874:	0000015c 	andeq	r0, r0, ip, asr r1
 878:	00000160 	andeq	r0, r0, r0, ror #2
 87c:	00000170 	andeq	r0, r0, r0, ror r1
	...
 888:	000000fc 	strdeq	r0, [r0], -ip
 88c:	00000100 	andeq	r0, r0, r0, lsl #2
 890:	00000108 	andeq	r0, r0, r8, lsl #2
 894:	0000010c 	andeq	r0, r0, ip, lsl #2
	...
 8a0:	0000010c 	andeq	r0, r0, ip, lsl #2
 8a4:	0000012c 	andeq	r0, r0, ip, lsr #2
 8a8:	00000130 	andeq	r0, r0, r0, lsr r1
 8ac:	0000013c 	andeq	r0, r0, ip, lsr r1
	...
 8b8:	0000010c 	andeq	r0, r0, ip, lsl #2
 8bc:	00000110 	andeq	r0, r0, r0, lsl r1
 8c0:	0000011c 	andeq	r0, r0, ip, lsl r1
 8c4:	00000120 	andeq	r0, r0, r0, lsr #2
 8c8:	00000124 	andeq	r0, r0, r4, lsr #2
 8cc:	00000128 	andeq	r0, r0, r8, lsr #2
 8d0:	00000130 	andeq	r0, r0, r0, lsr r1
 8d4:	00000134 	andeq	r0, r0, r4, lsr r1
 8d8:	00000138 	andeq	r0, r0, r8, lsr r1
 8dc:	0000013c 	andeq	r0, r0, ip, lsr r1
	...
 8e8:	0000012c 	andeq	r0, r0, ip, lsr #2
 8ec:	00000130 	andeq	r0, r0, r0, lsr r1
 8f0:	00000148 	andeq	r0, r0, r8, asr #2
 8f4:	0000014c 	andeq	r0, r0, ip, asr #2
	...
 900:	00000158 	andeq	r0, r0, r8, asr r1
 904:	0000015c 	andeq	r0, r0, ip, asr r1
 908:	00000160 	andeq	r0, r0, r0, ror #2
 90c:	00000170 	andeq	r0, r0, r0, ror r1
	...
 918:	0000015c 	andeq	r0, r0, ip, asr r1
 91c:	00000160 	andeq	r0, r0, r0, ror #2
 920:	00000170 	andeq	r0, r0, r0, ror r1
 924:	00000204 	andeq	r0, r0, r4, lsl #4
 928:	00000220 	andeq	r0, r0, r0, lsr #4
 92c:	00000268 	andeq	r0, r0, r8, ror #4
	...
 938:	00000174 	andeq	r0, r0, r4, ror r1
 93c:	00000178 	andeq	r0, r0, r8, ror r1
 940:	00000194 	muleq	r0, r4, r1
 944:	00000198 	muleq	r0, r8, r1
	...
 950:	00000178 	andeq	r0, r0, r8, ror r1
 954:	00000180 	andeq	r0, r0, r0, lsl #3
 958:	0000018c 	andeq	r0, r0, ip, lsl #3
 95c:	00000194 	muleq	r0, r4, r1
 960:	00000198 	muleq	r0, r8, r1
 964:	000001b0 			; <UNDEFINED> instruction: 0x000001b0
	...
 970:	00000178 	andeq	r0, r0, r8, ror r1
 974:	00000180 	andeq	r0, r0, r0, lsl #3
 978:	00000190 	muleq	r0, r0, r1
 97c:	00000194 	muleq	r0, r4, r1
 980:	000001a8 	andeq	r0, r0, r8, lsr #3
 984:	000001ac 	andeq	r0, r0, ip, lsr #3
	...
 990:	000001d0 	ldrdeq	r0, [r0], -r0	; <UNPREDICTABLE>
 994:	000001d4 	ldrdeq	r0, [r0], -r4
 998:	000001dc 	ldrdeq	r0, [r0], -ip
 99c:	000001e0 	andeq	r0, r0, r0, ror #3
 9a0:	00000230 	andeq	r0, r0, r0, lsr r2
 9a4:	00000234 	andeq	r0, r0, r4, lsr r2
 9a8:	00000240 	andeq	r0, r0, r0, asr #4
 9ac:	00000244 	andeq	r0, r0, r4, asr #4
	...

Disassembly of section .debug_frame:

00000000 <.debug_frame>:
   0:	0000000c 	andeq	r0, r0, ip
   4:	ffffffff 			; <UNDEFINED> instruction: 0xffffffff
   8:	7c020001 	stcvc	0, cr0, [r2], {1}
   c:	000d0c0e 	andeq	r0, sp, lr, lsl #24
  10:	0000000c 	andeq	r0, r0, ip
  14:	00000000 	andeq	r0, r0, r0
  18:	81800b78 	orrhi	r0, r0, r8, ror fp
  1c:	000000fc 	strdeq	r0, [r0], -ip
  20:	0000000c 	andeq	r0, r0, ip
  24:	ffffffff 			; <UNDEFINED> instruction: 0xffffffff
  28:	7c020001 	stcvc	0, cr0, [r2], {1}
  2c:	000d0c0e 	andeq	r0, sp, lr, lsl #24
  30:	0000000c 	andeq	r0, r0, ip
  34:	00000020 	andeq	r0, r0, r0, lsr #32
  38:	818018a4 	orrhi	r1, r0, r4, lsr #17
  3c:	00000004 	andeq	r0, r0, r4
  40:	0000000c 	andeq	r0, r0, ip
  44:	00000020 	andeq	r0, r0, r0, lsr #32
  48:	818018a8 	orrhi	r1, r0, r8, lsr #17
  4c:	00000004 	andeq	r0, r0, r4
  50:	0000000c 	andeq	r0, r0, ip
  54:	ffffffff 			; <UNDEFINED> instruction: 0xffffffff
  58:	7c020001 	stcvc	0, cr0, [r2], {1}
  5c:	000d0c0e 	andeq	r0, sp, lr, lsl #24
  60:	0000001c 	andeq	r0, r0, ip, lsl r0
  64:	00000050 	andeq	r0, r0, r0, asr r0
  68:	81800c74 	orrhi	r0, r0, r4, ror ip
  6c:	000000c0 	andeq	r0, r0, r0, asr #1
  70:	84140e44 	ldrhi	r0, [r4], #-3652	; 0xfffff1bc
  74:	86048505 	strhi	r8, [r4], -r5, lsl #10
  78:	8e028703 	cdphi	7, 0, cr8, cr2, cr3, {0}
  7c:	00000001 	andeq	r0, r0, r1
  80:	00000024 	andeq	r0, r0, r4, lsr #32
  84:	00000050 	andeq	r0, r0, r0, asr r0
  88:	81800d34 	orrhi	r0, r0, r4, lsr sp
  8c:	000001c4 	andeq	r0, r0, r4, asr #3
  90:	84140e48 	ldrhi	r0, [r4], #-3656	; 0xfffff1b8
  94:	86048505 	strhi	r8, [r4], -r5, lsl #10
  98:	8e028703 	cdphi	7, 0, cr8, cr2, cr3, {0}
  9c:	0e8e0201 	cdpeq	2, 8, cr0, cr14, cr1, {0}
  a0:	c6c5c400 	strbgt	ip, [r5], r0, lsl #8
  a4:	0000cec7 	andeq	ip, r0, r7, asr #29
  a8:	0000001c 	andeq	r0, r0, ip, lsl r0
  ac:	00000050 	andeq	r0, r0, r0, asr r0
  b0:	81800ef8 	strdhi	r0, [r0, r8]
  b4:	000006e8 	andeq	r0, r0, r8, ror #13
  b8:	84080e42 	strhi	r0, [r8], #-3650	; 0xfffff1be
  bc:	44018e02 	strmi	r8, [r1], #-3586	; 0xfffff1fe
  c0:	0a70380e 	beq	1c0e100 <STACK_SRV_SIZE+0x1bce100>
  c4:	0b42080e 	bleq	1082104 <STACK_SRV_SIZE+0x1042104>
  c8:	0000000c 	andeq	r0, r0, ip
  cc:	ffffffff 			; <UNDEFINED> instruction: 0xffffffff
  d0:	7c020001 	stcvc	0, cr0, [r2], {1}
  d4:	000d0c0e 	andeq	r0, sp, lr, lsl #24
  d8:	0000001c 	andeq	r0, r0, ip, lsl r0
  dc:	000000c8 	andeq	r0, r0, r8, asr #1
  e0:	818018ac 	orrhi	r1, r0, ip, lsr #17
  e4:	0000009c 	muleq	r0, ip, r0
  e8:	84180e42 	ldrhi	r0, [r8], #-3650	; 0xfffff1be
  ec:	86058506 	strhi	r8, [r5], -r6, lsl #10
  f0:	88038704 	stmdahi	r3, {r2, r8, r9, sl, pc}
  f4:	00018e02 	andeq	r8, r1, r2, lsl #28
  f8:	0000001c 	andeq	r0, r0, ip, lsl r0
  fc:	000000c8 	andeq	r0, r0, r8, asr #1
 100:	81801948 	orrhi	r1, r0, r8, asr #18
 104:	0000009c 	muleq	r0, ip, r0
 108:	84180e42 	ldrhi	r0, [r8], #-3650	; 0xfffff1be
 10c:	86058506 	strhi	r8, [r5], -r6, lsl #10
 110:	88038704 	stmdahi	r3, {r2, r8, r9, sl, pc}
 114:	00018e02 	andeq	r8, r1, r2, lsl #28
 118:	0000001c 	andeq	r0, r0, ip, lsl r0
 11c:	000000c8 	andeq	r0, r0, r8, asr #1
 120:	818019e4 	orrhi	r1, r0, r4, ror #19
 124:	0000009c 	muleq	r0, ip, r0
 128:	84180e42 	ldrhi	r0, [r8], #-3650	; 0xfffff1be
 12c:	86058506 	strhi	r8, [r5], -r6, lsl #10
 130:	88038704 	stmdahi	r3, {r2, r8, r9, sl, pc}
 134:	00018e02 	andeq	r8, r1, r2, lsl #28
 138:	0000001c 	andeq	r0, r0, ip, lsl r0
 13c:	000000c8 	andeq	r0, r0, r8, asr #1
 140:	81801a80 	orrhi	r1, r0, r0, lsl #21
 144:	0000009c 	muleq	r0, ip, r0
 148:	84180e42 	ldrhi	r0, [r8], #-3650	; 0xfffff1be
 14c:	86058506 	strhi	r8, [r5], -r6, lsl #10
 150:	88038704 	stmdahi	r3, {r2, r8, r9, sl, pc}
 154:	00018e02 	andeq	r8, r1, r2, lsl #28
 158:	0000000c 	andeq	r0, r0, ip
 15c:	000000c8 	andeq	r0, r0, r8, asr #1
 160:	81801b1c 	orrhi	r1, r0, ip, lsl fp
 164:	00000004 	andeq	r0, r0, r4
 168:	0000000c 	andeq	r0, r0, ip
 16c:	000000c8 	andeq	r0, r0, r8, asr #1
 170:	81801b20 	orrhi	r1, r0, r0, lsr #22
 174:	00000004 	andeq	r0, r0, r4
 178:	0000000c 	andeq	r0, r0, ip
 17c:	ffffffff 			; <UNDEFINED> instruction: 0xffffffff
 180:	7c020001 	stcvc	0, cr0, [r2], {1}
 184:	000d0c0e 	andeq	r0, sp, lr, lsl #24
 188:	00000014 	andeq	r0, r0, r4, lsl r0
 18c:	00000178 	andeq	r0, r0, r8, ror r1
 190:	81800574 	orrhi	r0, r0, r4, ror r5
 194:	00000098 	muleq	r0, r8, r0
 198:	8e040e44 	cdphi	14, 0, cr0, cr4, cr4, {2}
 19c:	00000001 	andeq	r0, r0, r1
 1a0:	0000000c 	andeq	r0, r0, ip
 1a4:	00000178 	andeq	r0, r0, r8, ror r1
 1a8:	8180060c 	orrhi	r0, r0, ip, lsl #12
 1ac:	0000001c 	andeq	r0, r0, ip, lsl r0
 1b0:	0000000c 	andeq	r0, r0, ip
 1b4:	00000178 	andeq	r0, r0, r8, ror r1
 1b8:	81800628 	orrhi	r0, r0, r8, lsr #12
 1bc:	00000034 	andeq	r0, r0, r4, lsr r0
 1c0:	00000048 	andeq	r0, r0, r8, asr #32
 1c4:	00000178 	andeq	r0, r0, r8, ror r1
 1c8:	8180065c 	orrhi	r0, r0, ip, asr r6
 1cc:	0000051c 	andeq	r0, r0, ip, lsl r5
 1d0:	80100e42 	andshi	r0, r0, r2, asr #28
 1d4:	82038104 	andhi	r8, r3, #4, 2
 1d8:	42018302 	andmi	r8, r1, #134217728	; 0x8000000
 1dc:	0d84340e 	cfstrseq	mvf3, [r4, #56]	; 0x38
 1e0:	0b860c85 	bleq	fe1833fc <__stack_srv_end+0x7c9017f4>
 1e4:	09880a87 	stmibeq	r8, {r0, r1, r2, r7, r9, fp}
 1e8:	078a0889 	streq	r0, [sl, r9, lsl #17]
 1ec:	058e068b 	streq	r0, [lr, #1675]	; 0x68b
 1f0:	68700e44 	ldmdavs	r0!, {r2, r6, r9, sl, fp}^
 1f4:	42340e0a 	eorsmi	r0, r4, #10, 28	; 0xa0
 1f8:	c9cacbce 	stmibgt	sl, {r1, r2, r3, r6, r7, r8, r9, fp, lr, pc}^
 1fc:	c5c6c7c8 	strbgt	ip, [r6, #1992]	; 0x7c8
 200:	42100ec4 	andsmi	r0, r0, #196, 28	; 0xc40
 204:	c0c1c2c3 	sbcgt	ip, r1, r3, asr #5
 208:	0b42000e 	bleq	1080248 <STACK_SRV_SIZE+0x1040248>
 20c:	0000000c 	andeq	r0, r0, ip
 210:	ffffffff 			; <UNDEFINED> instruction: 0xffffffff
 214:	7c020001 	stcvc	0, cr0, [r2], {1}
 218:	000d0c0e 	andeq	r0, sp, lr, lsl #24
 21c:	0000000c 	andeq	r0, r0, ip
 220:	0000020c 	andeq	r0, r0, ip, lsl #4
 224:	818015e0 	orrhi	r1, r0, r0, ror #11
 228:	000000b8 	strheq	r0, [r0], -r8
 22c:	0000000c 	andeq	r0, r0, ip
 230:	0000020c 	andeq	r0, r0, ip, lsl #4
 234:	81801698 			; <UNDEFINED> instruction: 0x81801698
 238:	00000018 	andeq	r0, r0, r8, lsl r0
 23c:	00000024 	andeq	r0, r0, r4, lsr #32
 240:	0000020c 	andeq	r0, r0, ip, lsl #4
 244:	818016b0 			; <UNDEFINED> instruction: 0x818016b0
 248:	00000198 	muleq	r0, r8, r1
 24c:	84100e44 	ldrhi	r0, [r0], #-3652	; 0xfffff1bc
 250:	86038504 	strhi	r8, [r3], -r4, lsl #10
 254:	42018e02 	andmi	r8, r1, #2, 28
 258:	a002180e 	andge	r1, r2, lr, lsl #16
 25c:	42100e0a 	andsmi	r0, r0, #10, 28	; 0xa0
 260:	0000000b 	andeq	r0, r0, fp
 264:	0000000c 	andeq	r0, r0, ip
 268:	ffffffff 			; <UNDEFINED> instruction: 0xffffffff
 26c:	7c020001 	stcvc	0, cr0, [r2], {1}
 270:	000d0c0e 	andeq	r0, sp, lr, lsl #24
 274:	00000014 	andeq	r0, r0, r4, lsl r0
 278:	00000264 	andeq	r0, r0, r4, ror #4
 27c:	81801b24 	orrhi	r1, r0, r4, lsr #22
 280:	00000050 	andeq	r0, r0, r0, asr r0
 284:	84080e42 	strhi	r0, [r8], #-3650	; 0xfffff1be
 288:	00018e02 	andeq	r8, r1, r2, lsl #28
 28c:	0000000c 	andeq	r0, r0, ip
 290:	00000264 	andeq	r0, r0, r4, ror #4
 294:	81801b74 	orrhi	r1, r0, r4, ror fp
 298:	00000004 	andeq	r0, r0, r4
 29c:	0000000c 	andeq	r0, r0, ip
 2a0:	00000264 	andeq	r0, r0, r4, ror #4
 2a4:	81801b78 	orrhi	r1, r0, r8, ror fp
 2a8:	00000004 	andeq	r0, r0, r4
 2ac:	0000000c 	andeq	r0, r0, ip
 2b0:	00000264 	andeq	r0, r0, r4, ror #4
 2b4:	81801b7c 	orrhi	r1, r0, ip, ror fp
 2b8:	00000004 	andeq	r0, r0, r4
 2bc:	0000000c 	andeq	r0, r0, ip
 2c0:	00000264 	andeq	r0, r0, r4, ror #4
 2c4:	81801b80 	orrhi	r1, r0, r0, lsl #23
 2c8:	00000004 	andeq	r0, r0, r4
 2cc:	0000000c 	andeq	r0, r0, ip
 2d0:	ffffffff 			; <UNDEFINED> instruction: 0xffffffff
 2d4:	7c020001 	stcvc	0, cr0, [r2], {1}
 2d8:	000d0c0e 	andeq	r0, sp, lr, lsl #24
 2dc:	00000020 	andeq	r0, r0, r0, lsr #32
 2e0:	000002cc 	andeq	r0, r0, ip, asr #5
 2e4:	81801848 	orrhi	r1, r0, r8, asr #16
 2e8:	0000005c 	andeq	r0, r0, ip, asr r0
 2ec:	84100e42 	ldrhi	r0, [r0], #-3650	; 0xfffff1be
 2f0:	86038504 	strhi	r8, [r3], -r4, lsl #10
 2f4:	66018e02 	strvs	r8, [r1], -r2, lsl #28
 2f8:	c4c5c6ce 	strbgt	ip, [r5], #1742	; 0x6ce
 2fc:	0000000e 	andeq	r0, r0, lr
 300:	0000000c 	andeq	r0, r0, ip
 304:	ffffffff 			; <UNDEFINED> instruction: 0xffffffff
 308:	7c020001 	stcvc	0, cr0, [r2], {1}
 30c:	000d0c0e 	andeq	r0, sp, lr, lsl #24
 310:	0000000c 	andeq	r0, r0, ip
 314:	00000300 	andeq	r0, r0, r0, lsl #6
 318:	81800548 	orrhi	r0, r0, r8, asr #10
 31c:	0000002c 	andeq	r0, r0, ip, lsr #32
